
========================================================================

** ELF Header Information

    File Name: .\obj\RcuNet.axf

    Machine class: ELFCLASS32 (32-bit)
    Data encoding: ELFDATA2LSB (Little endian)
    Header version: EV_CURRENT (Current version)
    Operating System ABI: none
    ABI Version: 0
    File Type: ET_EXEC (Executable) (2)
    Machine: EM_ARM (ARM)

    Image Entry point: 0x00000279
    Flags: EF_ARM_HASENTRY (0x05000002)

    ARM ELF revision: 5 (ABI version 2)

    Built with
    ARM C/C++ Compiler, 4.1 [Build 481]
    ARM Assembler, 5.03 [Build 76]
    ARM Assembler, 4.1 [Build 481]
    ARM Linker, 4.1 [Build 481] 

    Header size: 52 bytes (0x34)
    Program header entry size: 32 bytes (0x20)
    Section header entry size: 40 bytes (0x28)

    Program header entries: 1
    Section header entries: 16

    Program header offset: 960372 (0x000ea774)
    Section header offset: 960404 (0x000ea794)

    Section header string table index: 15

========================================================================

** Program header #0 (PT_LOAD) [PF_X + PF_W + PF_R + PF_ARM_ENTRY]
    Size : 84024 bytes (40424 bytes in file)
    Virtual address: 0x00000000 (Alignment 8)


========================================================================

** Section #1 'ER_IROM1' (SHT_PROGBITS) [SHF_ALLOC + SHF_EXECINSTR]
    Size   : 40176 bytes (alignment 4)
    Address: 0x00000000

    $d.realdata
    RESET
    __Vectors
        0x00000000:    2000ab48    H..     DCD    536914760
        0x00000004:    000003a5    ....    DCD    933
        0x00000008:    000003cd    ....    DCD    973
        0x0000000c:    0000028d    ....    DCD    653
        0x00000010:    000003d1    ....    DCD    977
        0x00000014:    000003d3    ....    DCD    979
        0x00000018:    000003d5    ....    DCD    981
        0x0000001c:    00000000    ....    DCD    0
        0x00000020:    00000000    ....    DCD    0
        0x00000024:    00000000    ....    DCD    0
        0x00000028:    00000000    ....    DCD    0
        0x0000002c:    000003d7    ....    DCD    983
        0x00000030:    000003d9    ....    DCD    985
        0x00000034:    00000000    ....    DCD    0
        0x00000038:    000003db    ....    DCD    987
        0x0000003c:    0000046f    o...    DCD    1135
        0x00000040:    000003df    ....    DCD    991
        0x00000044:    000003df    ....    DCD    991
        0x00000048:    000003df    ....    DCD    991
        0x0000004c:    000003df    ....    DCD    991
        0x00000050:    000003df    ....    DCD    991
        0x00000054:    000003df    ....    DCD    991
        0x00000058:    000003df    ....    DCD    991
        0x0000005c:    000003df    ....    DCD    991
        0x00000060:    000003df    ....    DCD    991
        0x00000064:    000003df    ....    DCD    991
        0x00000068:    000003df    ....    DCD    991
        0x0000006c:    000003df    ....    DCD    991
        0x00000070:    000003df    ....    DCD    991
        0x00000074:    000003df    ....    DCD    991
        0x00000078:    000003df    ....    DCD    991
        0x0000007c:    000003df    ....    DCD    991
        0x00000080:    000003df    ....    DCD    991
        0x00000084:    000003df    ....    DCD    991
        0x00000088:    000003df    ....    DCD    991
        0x0000008c:    000003df    ....    DCD    991
        0x00000090:    000003df    ....    DCD    991
        0x00000094:    000003df    ....    DCD    991
        0x00000098:    000003df    ....    DCD    991
        0x0000009c:    000003df    ....    DCD    991
        0x000000a0:    000003df    ....    DCD    991
        0x000000a4:    000003df    ....    DCD    991
        0x000000a8:    000003df    ....    DCD    991
        0x000000ac:    000003df    ....    DCD    991
        0x000000b0:    000003df    ....    DCD    991
        0x000000b4:    000003df    ....    DCD    991
        0x000000b8:    000003df    ....    DCD    991
        0x000000bc:    000003df    ....    DCD    991
        0x000000c0:    000003df    ....    DCD    991
        0x000000c4:    000003df    ....    DCD    991
        0x000000c8:    000003df    ....    DCD    991
        0x000000cc:    000003df    ....    DCD    991
        0x000000d0:    000003df    ....    DCD    991
        0x000000d4:    000003df    ....    DCD    991
        0x000000d8:    000003df    ....    DCD    991
        0x000000dc:    000003df    ....    DCD    991
        0x000000e0:    000003df    ....    DCD    991
        0x000000e4:    000003df    ....    DCD    991
        0x000000e8:    000003df    ....    DCD    991
        0x000000ec:    000003df    ....    DCD    991
        0x000000f0:    000003df    ....    DCD    991
        0x000000f4:    000003df    ....    DCD    991
        0x000000f8:    000003df    ....    DCD    991
        0x000000fc:    000003df    ....    DCD    991
        0x00000100:    000003df    ....    DCD    991
        0x00000104:    000003df    ....    DCD    991
        0x00000108:    000003df    ....    DCD    991
        0x0000010c:    000003df    ....    DCD    991
        0x00000110:    000003df    ....    DCD    991
        0x00000114:    000003df    ....    DCD    991
        0x00000118:    000003df    ....    DCD    991
        0x0000011c:    000003df    ....    DCD    991
        0x00000120:    000003df    ....    DCD    991
        0x00000124:    000003df    ....    DCD    991
        0x00000128:    000003df    ....    DCD    991
        0x0000012c:    000003df    ....    DCD    991
        0x00000130:    000003df    ....    DCD    991
        0x00000134:    000003df    ....    DCD    991
        0x00000138:    000003df    ....    DCD    991
        0x0000013c:    000003df    ....    DCD    991
        0x00000140:    000003df    ....    DCD    991
        0x00000144:    000003df    ....    DCD    991
        0x00000148:    000003df    ....    DCD    991
        0x0000014c:    000003df    ....    DCD    991
        0x00000150:    000003df    ....    DCD    991
        0x00000154:    000003df    ....    DCD    991
        0x00000158:    000003df    ....    DCD    991
        0x0000015c:    000003df    ....    DCD    991
        0x00000160:    000003df    ....    DCD    991
        0x00000164:    000003df    ....    DCD    991
        0x00000168:    000003df    ....    DCD    991
        0x0000016c:    000003df    ....    DCD    991
        0x00000170:    000003df    ....    DCD    991
        0x00000174:    000003df    ....    DCD    991
        0x00000178:    000003df    ....    DCD    991
        0x0000017c:    000003df    ....    DCD    991
        0x00000180:    000003df    ....    DCD    991
        0x00000184:    000003df    ....    DCD    991
        0x00000188:    000003df    ....    DCD    991
        0x0000018c:    000003df    ....    DCD    991
        0x00000190:    000003df    ....    DCD    991
        0x00000194:    000003df    ....    DCD    991
        0x00000198:    000003df    ....    DCD    991
        0x0000019c:    000003df    ....    DCD    991
        0x000001a0:    000003df    ....    DCD    991
        0x000001a4:    000003df    ....    DCD    991
        0x000001a8:    000003df    ....    DCD    991
        0x000001ac:    000003df    ....    DCD    991
        0x000001b0:    000093f1    ....    DCD    37873
        0x000001b4:    0000939b    ....    DCD    37787
        0x000001b8:    000003df    ....    DCD    991
        0x000001bc:    000003df    ....    DCD    991
        0x000001c0:    000003df    ....    DCD    991
        0x000001c4:    000003df    ....    DCD    991
        0x000001c8:    000003df    ....    DCD    991
        0x000001cc:    000003df    ....    DCD    991
        0x000001d0:    000003df    ....    DCD    991
        0x000001d4:    000003df    ....    DCD    991
        0x000001d8:    000003df    ....    DCD    991
        0x000001dc:    000003df    ....    DCD    991
        0x000001e0:    00000437    7...    DCD    1079
        0x000001e4:    000003df    ....    DCD    991
        0x000001e8:    000003df    ....    DCD    991
        0x000001ec:    000003df    ....    DCD    991
        0x000001f0:    000003df    ....    DCD    991
        0x000001f4:    000003df    ....    DCD    991
        0x000001f8:    000003df    ....    DCD    991
        0x000001fc:    000003df    ....    DCD    991
        0x00000200:    000003df    ....    DCD    991
        0x00000204:    000003df    ....    DCD    991
        0x00000208:    000003df    ....    DCD    991
        0x0000020c:    000003df    ....    DCD    991
        0x00000210:    000003df    ....    DCD    991
        0x00000214:    000003df    ....    DCD    991
        0x00000218:    000003df    ....    DCD    991
        0x0000021c:    000003df    ....    DCD    991
        0x00000220:    000003df    ....    DCD    991
        0x00000224:    000003df    ....    DCD    991
        0x00000228:    000003df    ....    DCD    991
        0x0000022c:    000003df    ....    DCD    991
        0x00000230:    000003df    ....    DCD    991
        0x00000234:    000003df    ....    DCD    991
        0x00000238:    000003df    ....    DCD    991
        0x0000023c:    000003df    ....    DCD    991
        0x00000240:    000003df    ....    DCD    991
        0x00000244:    000003df    ....    DCD    991
        0x00000248:    000003df    ....    DCD    991
        0x0000024c:    000003df    ....    DCD    991
        0x00000250:    000003df    ....    DCD    991
        0x00000254:    000003df    ....    DCD    991
        0x00000258:    000003df    ....    DCD    991
        0x0000025c:    000003df    ....    DCD    991
        0x00000260:    000003df    ....    DCD    991
        0x00000264:    000003df    ....    DCD    991
        0x00000268:    000003df    ....    DCD    991
        0x0000026c:    000003df    ....    DCD    991
        0x00000270:    000003df    ....    DCD    991
        0x00000274:    000003df    ....    DCD    991
    $t
    .ARM.Collect$$$$00000000
    .ARM.Collect$$$$00000001
    __Vectors_End
    __main
    _main_stk
        0x00000278:    f8dfd00c    ....    LDR      sp,__lit__00000000 ; [0x288] = 0x2000ab48
    .ARM.Collect$$$$00000004
    _main_scatterload
        0x0000027c:    f009fa7a    ..z.    BL       __scatterload ; 0x9774
    .ARM.Collect$$$$00000007
    __main_after_scatterload
    _main_init
        0x00000280:    4800        .H      LDR      r0,[pc,#0] ; [0x284] = 0x4c7
        0x00000282:    4700        .G      BX       r0
    $d
        0x00000284:    000004c7    ....    DCD    1223
    .ARM.Collect$$$$00002712
    __lit__00000000
        0x00000288:    2000ab48    H..     DCD    536914760
    $t
    .emb_text
    $v0
    HardFault_Handler
        0x0000028c:    2004        .       MOVS     r0,#4
        0x0000028e:    4671        qF      MOV      r1,lr
        0x00000290:    4208        .B      TST      r0,r1
        0x00000292:    d002        ..      BEQ      0x29a ; HardFault_Handler + 14
        0x00000294:    f3ef8009    ....    MRS      r0,PSP
        0x00000298:    e001        ..      B        0x29e ; HardFault_Handler + 18
        0x0000029a:    f3ef8008    ....    MRS      r0,MSP
        0x0000029e:    4671        qF      MOV      r1,lr
        0x000002a0:    4a00        .J      LDR      r2,[pc,#0] ; [0x2a4] = 0x975
        0x000002a2:    4710        .G      BX       r2
    $d
        0x000002a4:    00000975    u...    DCD    2421
    $t
    .text
    SystemCoreClockUpdate
        0x000002a8:    b510        ..      PUSH     {r4,lr}
        0x000002aa:    f04f4480    O..D    MOV      r4,#0x40000000
        0x000002ae:    f8d40210    ....    LDR      r0,[r4,#0x210]
        0x000002b2:    f0000007    ....    AND      r0,r0,#7
        0x000002b6:    2802        .(      CMP      r0,#2
        0x000002b8:    d003        ..      BEQ      0x2c2 ; SystemCoreClockUpdate + 26
        0x000002ba:    4935        5I      LDR      r1,[pc,#212] ; [0x390] = 0x20000008
        0x000002bc:    f8510020    Q. .    LDR      r0,[r1,r0,LSL #2]
        0x000002c0:    e001        ..      B        0x2c6 ; SystemCoreClockUpdate + 30
        0x000002c2:    f000fa0c    ....    BL       CLK_GetPLLClockFreq ; 0x6de
        0x000002c6:    f8d41220    .. .    LDR      r1,[r4,#0x220]
        0x000002ca:    4a32        2J      LDR      r2,[pc,#200] ; [0x394] = 0x7a120
        0x000002cc:    f001010f    ....    AND      r1,r1,#0xf
        0x000002d0:    1c49        I.      ADDS     r1,r1,#1
        0x000002d2:    fbb0f0f1    ....    UDIV     r0,r0,r1
        0x000002d6:    492e        .I      LDR      r1,[pc,#184] ; [0x390] = 0x20000008
        0x000002d8:    3908        .9      SUBS     r1,r1,#8
        0x000002da:    6008        .`      STR      r0,[r1,#0]
        0x000002dc:    4410        .D      ADD      r0,r0,r2
        0x000002de:    0052        R.      LSLS     r2,r2,#1
        0x000002e0:    fbb0f0f2    ....    UDIV     r0,r0,r2
        0x000002e4:    6048        H`      STR      r0,[r1,#4]
        0x000002e6:    bd10        ..      POP      {r4,pc}
    SystemInit
        0x000002e8:    482b        +H      LDR      r0,[pc,#172] ; [0x398] = 0xe000ed88
        0x000002ea:    b510        ..      PUSH     {r4,lr}
        0x000002ec:    6801        .h      LDR      r1,[r0,#0]
        0x000002ee:    f4410170    A.p.    ORR      r1,r1,#0xf00000
        0x000002f2:    6001        .`      STR      r1,[r0,#0]
        0x000002f4:    f04f0008    O...    MOV      r0,#8
        0x000002f8:    f000fa27    ..'.    BL       CLK_WaitClockReady ; 0x74a
        0x000002fc:    f04f4380    O..C    MOV      r3,#0x40000000
        0x00000300:    f8d30208    ....    LDR      r0,[r3,#0x208]
        0x00000304:    f3c00240    ..@.    UBFX     r2,r0,#1,#1
        0x00000308:    b92a        *.      CBNZ     r2,0x316 ; SystemInit + 46
        0x0000030a:    f8d30208    ....    LDR      r0,[r3,#0x208]
        0x0000030e:    f0400002    @...    ORR      r0,r0,#2
        0x00000312:    f8c30208    ....    STR      r0,[r3,#0x208]
        0x00000316:    4822        "H      LDR      r0,[pc,#136] ; [0x3a0] = 0x40041000
        0x00000318:    4920         I      LDR      r1,[pc,#128] ; [0x39c] = 0xa5eb1357
        0x0000031a:    6001        .`      STR      r1,[r0,#0]
        0x0000031c:    6801        .h      LDR      r1,[r0,#0]
        0x0000031e:    2901        .)      CMP      r1,#1
        0x00000320:    d1fc        ..      BNE      0x31c ; SystemInit + 52
        0x00000322:    f8d01110    ....    LDR      r1,[r0,#0x110]
        0x00000326:    07c9        ..      LSLS     r1,r1,#31
        0x00000328:    d128        (.      BNE      0x37c ; SystemInit + 148
        0x0000032a:    f64a1465    J.e.    MOV      r4,#0xa965
        0x0000032e:    6044        D`      STR      r4,[r0,#4]
        0x00000330:    6841        Ah      LDR      r1,[r0,#4]
        0x00000332:    03c9        ..      LSLS     r1,r1,#15
        0x00000334:    d5fc        ..      BPL      0x330 ; SystemInit + 72
        0x00000336:    6bc1        .k      LDR      r1,[r0,#0x3c]
        0x00000338:    f0410104    A...    ORR      r1,r1,#4
        0x0000033c:    63c1        .c      STR      r1,[r0,#0x3c]
        0x0000033e:    6bc1        .k      LDR      r1,[r0,#0x3c]
        0x00000340:    0609        ..      LSLS     r1,r1,#24
        0x00000342:    d5fc        ..      BPL      0x33e ; SystemInit + 86
        0x00000344:    6044        D`      STR      r4,[r0,#4]
        0x00000346:    6841        Ah      LDR      r1,[r0,#4]
        0x00000348:    03c9        ..      LSLS     r1,r1,#15
        0x0000034a:    d5fc        ..      BPL      0x346 ; SystemInit + 94
        0x0000034c:    f8d0109c    ....    LDR      r1,[r0,#0x9c]
        0x00000350:    f8c0109c    ....    STR      r1,[r0,#0x9c]
        0x00000354:    6bc1        .k      LDR      r1,[r0,#0x3c]
        0x00000356:    0609        ..      LSLS     r1,r1,#24
        0x00000358:    d5fc        ..      BPL      0x354 ; SystemInit + 108
        0x0000035a:    6044        D`      STR      r4,[r0,#4]
        0x0000035c:    6841        Ah      LDR      r1,[r0,#4]
        0x0000035e:    03c9        ..      LSLS     r1,r1,#15
        0x00000360:    d5fc        ..      BPL      0x35c ; SystemInit + 116
        0x00000362:    6bc1        .k      LDR      r1,[r0,#0x3c]
        0x00000364:    f0210104    !...    BIC      r1,r1,#4
        0x00000368:    63c1        .c      STR      r1,[r0,#0x3c]
        0x0000036a:    6bc1        .k      LDR      r1,[r0,#0x3c]
        0x0000036c:    0609        ..      LSLS     r1,r1,#24
        0x0000036e:    d5fc        ..      BPL      0x36a ; SystemInit + 130
        0x00000370:    6044        D`      STR      r4,[r0,#4]
        0x00000372:    6841        Ah      LDR      r1,[r0,#4]
        0x00000374:    03c9        ..      LSLS     r1,r1,#15
        0x00000376:    d5fc        ..      BPL      0x372 ; SystemInit + 138
        0x00000378:    2102        .!      MOVS     r1,#2
        0x0000037a:    62c1        .b      STR      r1,[r0,#0x2c]
        0x0000037c:    2a00        .*      CMP      r2,#0
        0x0000037e:    d105        ..      BNE      0x38c ; SystemInit + 164
        0x00000380:    f8d30208    ....    LDR      r0,[r3,#0x208]
        0x00000384:    f0200002     ...    BIC      r0,r0,#2
        0x00000388:    f8c30208    ....    STR      r0,[r3,#0x208]
        0x0000038c:    bd10        ..      POP      {r4,pc}
    $d
        0x0000038e:    0000        ..      DCW    0
        0x00000390:    20000008    ...     DCD    536870920
        0x00000394:    0007a120     ...    DCD    500000
        0x00000398:    e000ed88    ....    DCD    3758157192
        0x0000039c:    a5eb1357    W...    DCD    2783646551
        0x000003a0:    40041000    ...@    DCD    1074008064
    $t
    .text
    $v0
    Reset_Handler
        0x000003a4:    480e        .H      LDR      r0,[pc,#56] ; [0x3e0] = 0x40000100
        0x000003a6:    f04f0159    O.Y.    MOV      r1,#0x59
        0x000003aa:    6001        .`      STR      r1,[r0,#0]
        0x000003ac:    f04f0116    O...    MOV      r1,#0x16
        0x000003b0:    6001        .`      STR      r1,[r0,#0]
        0x000003b2:    f04f0188    O...    MOV      r1,#0x88
        0x000003b6:    6001        .`      STR      r1,[r0,#0]
        0x000003b8:    4a0a        .J      LDR      r2,[pc,#40] ; [0x3e4] = 0x40000024
        0x000003ba:    f64521a5    E..!    MOV      r1,#0x5aa5
        0x000003be:    6011        .`      STR      r1,[r2,#0]
        0x000003c0:    2100        .!      MOVS     r1,#0
        0x000003c2:    6001        .`      STR      r1,[r0,#0]
        0x000003c4:    4808        .H      LDR      r0,[pc,#32] ; [0x3e8] = 0x2e9
        0x000003c6:    4780        .G      BLX      r0
        0x000003c8:    4808        .H      LDR      r0,[pc,#32] ; [0x3ec] = 0x279
        0x000003ca:    4700        .G      BX       r0
    NMI_Handler
        0x000003cc:    e7fe        ..      B        NMI_Handler ; 0x3cc
        0x000003ce:    e7fe        ..      B        0x3ce ; NMI_Handler + 2
    MemManage_Handler
        0x000003d0:    e7fe        ..      B        MemManage_Handler ; 0x3d0
    BusFault_Handler
        0x000003d2:    e7fe        ..      B        BusFault_Handler ; 0x3d2
    UsageFault_Handler
        0x000003d4:    e7fe        ..      B        UsageFault_Handler ; 0x3d4
    SVC_Handler
        0x000003d6:    e7fe        ..      B        SVC_Handler ; 0x3d6
    DebugMon_Handler
        0x000003d8:    e7fe        ..      B        DebugMon_Handler ; 0x3d8
    PendSV_Handler
        0x000003da:    e7fe        ..      B        PendSV_Handler ; 0x3da
        0x000003dc:    e7fe        ..      B        0x3dc ; PendSV_Handler + 2
    Default_Handler
    ACMP_IRQHandler
    ADC_IRQHandler
    BOD_IRQHandler
    CAN0_IRQHandler
    CAN1_IRQHandler
    CAP_IRQHandler
    CLKF_IRQHandler
    CRC_IRQHandler
    CRYPTO_IRQHandler
    EADC0_IRQHandler
    EADC1_IRQHandler
    EADC2_IRQHandler
    EADC3_IRQHandler
    EINT0_IRQHandler
    EINT1_IRQHandler
    EINT2_IRQHandler
    EINT3_IRQHandler
    EINT4_IRQHandler
    EINT5_IRQHandler
    EINT6_IRQHandler
    EINT7_IRQHandler
    EPWM0BRK_IRQHandler
    EPWM0_IRQHandler
    EPWM1BRK_IRQHandler
    EPWM1_IRQHandler
    GPA_IRQHandler
    GPB_IRQHandler
    GPC_IRQHandler
    GPD_IRQHandler
    GPE_IRQHandler
    GPF_IRQHandler
    GPG_IRQHandler
    GPH_IRQHandler
    GPI_IRQHandler
    I2C0_IRQHandler
    I2C1_IRQHandler
    I2C2_IRQHandler
    I2C3_IRQHandler
    I2C4_IRQHandler
    I2S0_IRQHandler
    I2S1_IRQHandler
    ICAP0_IRQHandler
    ICAP1_IRQHandler
    IRC_IRQHandler
    OPA0_IRQHandler
    OPA1_IRQHandler
    PDMA_IRQHandler
    PS2D_IRQHandler
    PWM0CH0_IRQHandler
    PWM0CH1_IRQHandler
    PWM0CH2_IRQHandler
    PWM0CH3_IRQHandler
    PWM0CH4_IRQHandler
    PWM0CH5_IRQHandler
    PWM0_BRK_IRQHandler
    PWM1CH0_IRQHandler
    PWM1CH1_IRQHandler
    PWM1CH2_IRQHandler
    PWM1CH3_IRQHandler
    PWM1CH4_IRQHandler
    PWM1CH5_IRQHandler
    PWM1_BRK_IRQHandler
    PWRWU_IRQHandler
    QEI0_IRQHandler
    QEI1_IRQHandler
    RTC_IRQHandler
    SC0_IRQHandler
    SC1_IRQHandler
    SC2_IRQHandler
    SC3_IRQHandler
    SC4_IRQHandler
    SC5_IRQHandler
    SD_IRQHandler
    SPI0_IRQHandler
    SPI1_IRQHandler
    SPI2_IRQHandler
    SPI3_IRQHandler
    SRAMF_IRQHandler
    TAMPER_IRQHandler
    TMR0_IRQHandler
    TMR1_IRQHandler
    TMR2_IRQHandler
    TMR3_IRQHandler
    UART1_IRQHandler
    UART2_IRQHandler
    UART3_IRQHandler
    UART4_IRQHandler
    UART5_IRQHandler
    USBD_IRQHandler
    USBH_IRQHandler
    USB_OTG_IRQHandler
    WDT_IRQHandler
    WWDT_IRQHandler
        0x000003de:    e7fe        ..      B        Default_Handler ; 0x3de
    $d
        0x000003e0:    40000100    ...@    DCD    1073742080
        0x000003e4:    40000024    $..@    DCD    1073741860
        0x000003e8:    000002e9    ....    DCD    745
        0x000003ec:    00000279    y...    DCD    633
    $t
    .text
    SetSysTick
        0x000003f0:    4987        .I      LDR      r1,[pc,#540] ; [0x610] = 0x20000004
        0x000003f2:    6809        .h      LDR      r1,[r1,#0]
        0x000003f4:    4348        HC      MULS     r0,r1,r0
        0x000003f6:    f04f21e0    O..!    MOV      r1,#0xe000e000
        0x000003fa:    6148        Ha      STR      r0,[r1,#0x14]
        0x000003fc:    2000        .       MOVS     r0,#0
        0x000003fe:    6188        .a      STR      r0,[r1,#0x18]
        0x00000400:    2007        .       MOVS     r0,#7
        0x00000402:    6108        .a      STR      r0,[r1,#0x10]
        0x00000404:    4770        pG      BX       lr
    UART0_Init
        0x00000406:    4883        .H      LDR      r0,[pc,#524] ; [0x614] = 0x20000028
        0x00000408:    b510        ..      PUSH     {r4,lr}
        0x0000040a:    2200        ."      MOVS     r2,#0
        0x0000040c:    6142        Ba      STR      r2,[r0,#0x14]
        0x0000040e:    f24011ff    @...    MOV      r1,#0x1ff
        0x00000412:    6181        .a      STR      r1,[r0,#0x18]
        0x00000414:    61c2        .a      STR      r2,[r0,#0x1c]
        0x00000416:    6201        .b      STR      r1,[r0,#0x20]
        0x00000418:    4c7f        .L      LDR      r4,[pc,#508] ; [0x618] = 0x40070000
        0x0000041a:    f44f4196    O..A    MOV      r1,#0x4b00
        0x0000041e:    4620         F      MOV      r0,r4
        0x00000420:    f000fbdc    ....    BL       UART_Open ; 0xbdc
        0x00000424:    69e1        .i      LDR      r1,[r4,#0x1c]
        0x00000426:    f0410101    A...    ORR      r1,r1,#1
        0x0000042a:    61e1        .a      STR      r1,[r4,#0x1c]
        0x0000042c:    e8bd4010    ...@    POP      {r4,lr}
        0x00000430:    2068        h       MOVS     r0,#0x68
        0x00000432:    f000b853    ..S.    B.W      NVIC_EnableIRQ ; 0x4dc
    UART0_IRQHandler
        0x00000436:    b570        p.      PUSH     {r4-r6,lr}
        0x00000438:    4c77        wL      LDR      r4,[pc,#476] ; [0x618] = 0x40070000
        0x0000043a:    69e0        .i      LDR      r0,[r4,#0x1c]
        0x0000043c:    05c1        ..      LSLS     r1,r0,#23
        0x0000043e:    4875        uH      LDR      r0,[pc,#468] ; [0x614] = 0x20000028
        0x00000440:    d514        ..      BPL      0x46c ; UART0_IRQHandler + 54
        0x00000442:    4a76        vJ      LDR      r2,[pc,#472] ; [0x61c] = 0x2000012c
        0x00000444:    1566        f.      ASRS     r6,r4,#21
        0x00000446:    2500        .%      MOVS     r5,#0
        0x00000448:    69e1        .i      LDR      r1,[r4,#0x1c]
        0x0000044a:    07c9        ..      LSLS     r1,r1,#31
        0x0000044c:    d00e        ..      BEQ      0x46c ; UART0_IRQHandler + 54
        0x0000044e:    6981        .i      LDR      r1,[r0,#0x18]
        0x00000450:    6943        Ci      LDR      r3,[r0,#0x14]
        0x00000452:    4299        .B      CMP      r1,r3
        0x00000454:    d0f8        ..      BEQ      0x448 ; UART0_IRQHandler + 18
        0x00000456:    6821        !h      LDR      r1,[r4,#0]
        0x00000458:    6943        Ci      LDR      r3,[r0,#0x14]
        0x0000045a:    54d1        .T      STRB     r1,[r2,r3]
        0x0000045c:    6941        Ai      LDR      r1,[r0,#0x14]
        0x0000045e:    1c49        I.      ADDS     r1,r1,#1
        0x00000460:    6141        Aa      STR      r1,[r0,#0x14]
        0x00000462:    6941        Ai      LDR      r1,[r0,#0x14]
        0x00000464:    42b1        .B      CMP      r1,r6
        0x00000466:    d1ef        ..      BNE      0x448 ; UART0_IRQHandler + 18
        0x00000468:    6145        Ea      STR      r5,[r0,#0x14]
        0x0000046a:    e7ed        ..      B        0x448 ; UART0_IRQHandler + 18
        0x0000046c:    bd70        p.      POP      {r4-r6,pc}
    SysTick_Handler
        0x0000046e:    4869        iH      LDR      r0,[pc,#420] ; [0x614] = 0x20000028
        0x00000470:    6901        .i      LDR      r1,[r0,#0x10]
        0x00000472:    310a        .1      ADDS     r1,r1,#0xa
        0x00000474:    6101        .a      STR      r1,[r0,#0x10]
        0x00000476:    4770        pG      BX       lr
    LwIP_Periodic_Handle
        0x00000478:    b570        p.      PUSH     {r4-r6,lr}
        0x0000047a:    4d66        fM      LDR      r5,[pc,#408] ; [0x614] = 0x20000028
        0x0000047c:    4604        .F      MOV      r4,r0
        0x0000047e:    6828        (h      LDR      r0,[r5,#0]
        0x00000480:    1a20         .      SUBS     r0,r4,r0
        0x00000482:    28fa        .(      CMP      r0,#0xfa
        0x00000484:    d302        ..      BCC      0x48c ; LwIP_Periodic_Handle + 20
        0x00000486:    602c        ,`      STR      r4,[r5,#0]
        0x00000488:    f004f909    ....    BL       tcp_tmr ; 0x469e
        0x0000048c:    6868        hh      LDR      r0,[r5,#4]
        0x0000048e:    f2413188    A..1    MOV      r1,#0x1388
        0x00000492:    1a20         .      SUBS     r0,r4,r0
        0x00000494:    4288        .B      CMP      r0,r1
        0x00000496:    d302        ..      BCC      0x49e ; LwIP_Periodic_Handle + 38
        0x00000498:    606c        l`      STR      r4,[r5,#4]
        0x0000049a:    f008f8c8    ....    BL       etharp_tmr ; 0x862e
        0x0000049e:    68a8        .h      LDR      r0,[r5,#8]
        0x000004a0:    1a20         .      SUBS     r0,r4,r0
        0x000004a2:    f5b07ffa    ....    CMP      r0,#0x1f4
        0x000004a6:    d302        ..      BCC      0x4ae ; LwIP_Periodic_Handle + 54
        0x000004a8:    60ac        .`      STR      r4,[r5,#8]
        0x000004aa:    f001f9e1    ....    BL       dhcp_fine_tmr ; 0x1870
        0x000004ae:    68e8        .h      LDR      r0,[r5,#0xc]
        0x000004b0:    f64e2160    N.`!    MOV      r1,#0xea60
        0x000004b4:    1a20         .      SUBS     r0,r4,r0
        0x000004b6:    4288        .B      CMP      r0,r1
        0x000004b8:    d304        ..      BCC      0x4c4 ; LwIP_Periodic_Handle + 76
        0x000004ba:    60ec        .`      STR      r4,[r5,#0xc]
        0x000004bc:    e8bd4070    ..p@    POP      {r4-r6,lr}
        0x000004c0:    f001b876    ..v.    B.W      dhcp_coarse_tmr ; 0x15b0
        0x000004c4:    bd70        p.      POP      {r4-r6,pc}
    main
        0x000004c6:    f000f815    ....    BL       SYS_Init ; 0x4f4
        0x000004ca:    f7ffff9c    ....    BL       UART0_Init ; 0x406
        0x000004ce:    f000f86a    ..j.    BL       LwipInit ; 0x5a6
        0x000004d2:    4c50        PL      LDR      r4,[pc,#320] ; [0x614] = 0x20000028
        0x000004d4:    6920         i      LDR      r0,[r4,#0x10]
        0x000004d6:    f7ffffcf    ....    BL       LwIP_Periodic_Handle ; 0x478
        0x000004da:    e7fb        ..      B        0x4d4 ; main + 14
    NVIC_EnableIRQ
        0x000004dc:    f000021f    ....    AND      r2,r0,#0x1f
        0x000004e0:    2101        .!      MOVS     r1,#1
        0x000004e2:    4091        .@      LSLS     r1,r1,r2
        0x000004e4:    0940        @.      LSRS     r0,r0,#5
        0x000004e6:    f04f22e0    O.."    MOV      r2,#0xe000e000
        0x000004ea:    eb020080    ....    ADD      r0,r2,r0,LSL #2
        0x000004ee:    f8c01100    ....    STR      r1,[r0,#0x100]
        0x000004f2:    4770        pG      BX       lr
    SYS_Init
        0x000004f4:    e92d41f0    -..A    PUSH     {r4-r8,lr}
        0x000004f8:    f000faeb    ....    BL       SYS_UnlockReg ; 0xad2
        0x000004fc:    2001        .       MOVS     r0,#1
        0x000004fe:    f000f99f    ....    BL       CLK_EnableXtalRC ; 0x840
        0x00000502:    2001        .       MOVS     r0,#1
        0x00000504:    f000f921    ..!.    BL       CLK_WaitClockReady ; 0x74a
        0x00000508:    2100        .!      MOVS     r1,#0
        0x0000050a:    4608        .F      MOV      r0,r1
        0x0000050c:    f000f90e    ....    BL       CLK_SetHCLK ; 0x72c
        0x00000510:    f04f4480    O..D    MOV      r4,#0x40000000
        0x00000514:    f8d40240    ..@.    LDR      r0,[r4,#0x240]
        0x00000518:    f4403080    @..0    ORR      r0,r0,#0x10000
        0x0000051c:    f8c40240    ..@.    STR      r0,[r4,#0x240]
        0x00000520:    f244001a    D...    MOV      r0,#0x401a
        0x00000524:    f8c40240    ..@.    STR      r0,[r4,#0x240]
        0x00000528:    2004        .       MOVS     r0,#4
        0x0000052a:    f000f90e    ....    BL       CLK_WaitClockReady ; 0x74a
        0x0000052e:    2100        .!      MOVS     r1,#0
        0x00000530:    2002        .       MOVS     r0,#2
        0x00000532:    f000f8fb    ....    BL       CLK_SetHCLK ; 0x72c
        0x00000536:    4d3a        :M      LDR      r5,[pc,#232] ; [0x620] = 0x57803d10
        0x00000538:    4628        (F      MOV      r0,r5
        0x0000053a:    f000f98d    ....    BL       CLK_EnableModuleClock ; 0x858
        0x0000053e:    4e39        9N      LDR      r6,[pc,#228] ; [0x624] = 0x2affe05
        0x00000540:    4630        0F      MOV      r0,r6
        0x00000542:    f000f989    ....    BL       CLK_EnableModuleClock ; 0x858
        0x00000546:    f04f47e0    O..G    MOV      r7,#0x70000000
        0x0000054a:    4638        8F      MOV      r0,r7
        0x0000054c:    f000f984    ....    BL       CLK_EnableModuleClock ; 0x858
        0x00000550:    2200        ."      MOVS     r2,#0
        0x00000552:    4611        .F      MOV      r1,r2
        0x00000554:    4628        (F      MOV      r0,r5
        0x00000556:    f000f94a    ..J.    BL       CLK_SetModuleClock ; 0x7ee
        0x0000055a:    f44f02fc    O...    MOV      r2,#0x7e0000
        0x0000055e:    2100        .!      MOVS     r1,#0
        0x00000560:    4630        0F      MOV      r0,r6
        0x00000562:    f000f944    ..D.    BL       CLK_SetModuleClock ; 0x7ee
        0x00000566:    2200        ."      MOVS     r2,#0
        0x00000568:    2103        .!      MOVS     r1,#3
        0x0000056a:    4638        8F      MOV      r0,r7
        0x0000056c:    f000f93f    ..?.    BL       CLK_SetModuleClock ; 0x7ee
        0x00000570:    f7fffe9a    ....    BL       SystemCoreClockUpdate ; 0x2a8
        0x00000574:    f44f7088    O..p    MOV      r0,#0x110
        0x00000578:    6620         f      STR      r0,[r4,#0x60]
        0x0000057a:    482b        +H      LDR      r0,[pc,#172] ; [0x628] = 0x66066666
        0x0000057c:    6420         d      STR      r0,[r4,#0x40]
        0x0000057e:    2006        .       MOVS     r0,#6
        0x00000580:    6460        `d      STR      r0,[r4,#0x44]
        0x00000582:    482a        *H      LDR      r0,[pc,#168] ; [0x62c] = 0x400040a8
        0x00000584:    6801        .h      LDR      r1,[r0,#0]
        0x00000586:    f24012df    @...    MOV      r2,#0x1df
        0x0000058a:    ea410102    A...    ORR      r1,r1,r2
        0x0000058e:    6001        .`      STR      r1,[r0,#0]
        0x00000590:    f04f40cc    O..@    MOV      r0,#0x66000000
        0x00000594:    63e0        .c      STR      r0,[r4,#0x3c]
        0x00000596:    f2427010    B..p    MOV      r0,#0x2710
        0x0000059a:    f7ffff29    ..).    BL       SetSysTick ; 0x3f0
        0x0000059e:    e8bd41f0    ...A    POP      {r4-r8,lr}
        0x000005a2:    f000ba92    ....    B.W      SYS_LockReg ; 0xaca
    LwipInit
        0x000005a6:    b500        ..      PUSH     {lr}
        0x000005a8:    b087        ..      SUB      sp,sp,#0x1c
        0x000005aa:    f002f9a8    ....    BL       mem_init ; 0x28fe
        0x000005ae:    f002fbf1    ....    BL       memp_init ; 0x2d94
        0x000005b2:    481f        .H      LDR      r0,[pc,#124] ; [0x630] = 0xa00a8c0
        0x000005b4:    9003        ..      STR      r0,[sp,#0xc]
        0x000005b6:    481f        .H      LDR      r0,[pc,#124] ; [0x634] = 0x1400a8c0
        0x000005b8:    9005        ..      STR      r0,[sp,#0x14]
        0x000005ba:    f64f70ff    O..p    MOV      r0,#0xffff
        0x000005be:    9004        ..      STR      r0,[sp,#0x10]
        0x000005c0:    4816        .H      LDR      r0,[pc,#88] ; [0x61c] = 0x2000012c
        0x000005c2:    2100        .!      MOVS     r1,#0
        0x000005c4:    380d        .8      SUBS     r0,r0,#0xd
        0x000005c6:    2226        &"      MOVS     r2,#0x26
        0x000005c8:    7001        .p      STRB     r1,[r0,#0]
        0x000005ca:    7042        Bp      STRB     r2,[r0,#1]
        0x000005cc:    22c0        ."      MOVS     r2,#0xc0
        0x000005ce:    7082        .p      STRB     r2,[r0,#2]
        0x000005d0:    22a8        ."      MOVS     r2,#0xa8
        0x000005d2:    70c2        .p      STRB     r2,[r0,#3]
        0x000005d4:    7101        .q      STRB     r1,[r0,#4]
        0x000005d6:    210a        .!      MOVS     r1,#0xa
        0x000005d8:    7141        Aq      STRB     r1,[r0,#5]
        0x000005da:    4b17        .K      LDR      r3,[pc,#92] ; [0x638] = 0x8f29
        0x000005dc:    4a17        .J      LDR      r2,[pc,#92] ; [0x63c] = 0x91ab
        0x000005de:    2100        .!      MOVS     r1,#0
        0x000005e0:    e88d000e    ....    STM      sp,{r1-r3}
        0x000005e4:    ab05        ..      ADD      r3,sp,#0x14
        0x000005e6:    aa04        ..      ADD      r2,sp,#0x10
        0x000005e8:    a903        ..      ADD      r1,sp,#0xc
        0x000005ea:    3827        '8      SUBS     r0,r0,#0x27
        0x000005ec:    f002fcd6    ....    BL       netif_add ; 0x2f9c
        0x000005f0:    480a        .H      LDR      r0,[pc,#40] ; [0x61c] = 0x2000012c
        0x000005f2:    3834        48      SUBS     r0,r0,#0x34
        0x000005f4:    f002fd08    ....    BL       netif_set_default ; 0x3008
        0x000005f8:    4808        .H      LDR      r0,[pc,#32] ; [0x61c] = 0x2000012c
        0x000005fa:    3834        48      SUBS     r0,r0,#0x34
        0x000005fc:    f002fd53    ..S.    BL       netif_set_up ; 0x30a6
        0x00000600:    205c        \       MOVS     r0,#0x5c
        0x00000602:    f7ffff6b    ..k.    BL       NVIC_EnableIRQ ; 0x4dc
        0x00000606:    205d        ]       MOVS     r0,#0x5d
        0x00000608:    f7ffff68    ..h.    BL       NVIC_EnableIRQ ; 0x4dc
        0x0000060c:    b007        ..      ADD      sp,sp,#0x1c
        0x0000060e:    bd00        ..      POP      {pc}
    $d
        0x00000610:    20000004    ...     DCD    536870916
        0x00000614:    20000028    (..     DCD    536870952
        0x00000618:    40070000    ...@    DCD    1074200576
        0x0000061c:    2000012c    ,..     DCD    536871212
        0x00000620:    57803d10    .=.W    DCD    1468022032
        0x00000624:    02affe05    ....    DCD    45088261
        0x00000628:    66066666    ff.f    DCD    1711695462
        0x0000062c:    400040a8    .@.@    DCD    1073758376
        0x00000630:    0a00a8c0    ....    DCD    167815360
        0x00000634:    1400a8c0    ....    DCD    335587520
        0x00000638:    00008f29    )...    DCD    36649
        0x0000063c:    000091ab    ....    DCD    37291
    $t
    .text
    CLK_DisableCKO
        0x00000640:    48bf        .H      LDR      r0,[pc,#764] ; [0x940] = 0x40000208
        0x00000642:    6801        .h      LDR      r1,[r0,#0]
        0x00000644:    f0210106    !...    BIC      r1,r1,#6
        0x00000648:    6001        .`      STR      r1,[r0,#0]
        0x0000064a:    4770        pG      BX       lr
    CLK_EnableCKO
        0x0000064c:    ea411142    A.B.    ORR      r1,r1,r2,LSL #5
        0x00000650:    f0410210    A...    ORR      r2,r1,#0x10
        0x00000654:    49ba        .I      LDR      r1,[pc,#744] ; [0x940] = 0x40000208
        0x00000656:    658a        .e      STR      r2,[r1,#0x58]
        0x00000658:    680a        .h      LDR      r2,[r1,#0]
        0x0000065a:    f0420240    B.@.    ORR      r2,r2,#0x40
        0x0000065e:    600a        .`      STR      r2,[r1,#0]
        0x00000660:    68ca        .h      LDR      r2,[r1,#0xc]
        0x00000662:    f0225240    ".@R    BIC      r2,r2,#0x30000000
        0x00000666:    ea420200    B...    ORR      r2,r2,r0
        0x0000066a:    60ca        .`      STR      r2,[r1,#0xc]
        0x0000066c:    4770        pG      BX       lr
    CLK_PowerDown
        0x0000066e:    49b5        .I      LDR      r1,[pc,#724] ; [0x944] = 0xe000ed10
        0x00000670:    2004        .       MOVS     r0,#4
        0x00000672:    6008        .`      STR      r0,[r1,#0]
        0x00000674:    48b4        .H      LDR      r0,[pc,#720] ; [0x948] = 0x40000200
        0x00000676:    6801        .h      LDR      r1,[r0,#0]
        0x00000678:    f0410190    A...    ORR      r1,r1,#0x90
        0x0000067c:    6001        .`      STR      r1,[r0,#0]
        0x0000067e:    bf30        0.      WFI      
        0x00000680:    4770        pG      BX       lr
    CLK_Idle
        0x00000682:    48b1        .H      LDR      r0,[pc,#708] ; [0x948] = 0x40000200
        0x00000684:    6801        .h      LDR      r1,[r0,#0]
        0x00000686:    f0410180    A...    ORR      r1,r1,#0x80
        0x0000068a:    6001        .`      STR      r1,[r0,#0]
        0x0000068c:    bf30        0.      WFI      
        0x0000068e:    4770        pG      BX       lr
    CLK_GetPCLKFreq
        0x00000690:    b510        ..      PUSH     {r4,lr}
        0x00000692:    f7fffe09    ....    BL       SystemCoreClockUpdate ; 0x2a8
        0x00000696:    48aa        .H      LDR      r0,[pc,#680] ; [0x940] = 0x40000208
        0x00000698:    3008        .0      ADDS     r0,r0,#8
        0x0000069a:    6800        .h      LDR      r0,[r0,#0]
        0x0000069c:    0641        A.      LSLS     r1,r0,#25
        0x0000069e:    48ab        .H      LDR      r0,[pc,#684] ; [0x94c] = 0x20000000
        0x000006a0:    6800        .h      LDR      r0,[r0,#0]
        0x000006a2:    d500        ..      BPL      0x6a6 ; CLK_GetPCLKFreq + 22
        0x000006a4:    0840        @.      LSRS     r0,r0,#1
        0x000006a6:    bd10        ..      POP      {r4,pc}
    CLK_GetHXTFreq
        0x000006a8:    48a7        .H      LDR      r0,[pc,#668] ; [0x948] = 0x40000200
        0x000006aa:    6800        .h      LDR      r0,[r0,#0]
        0x000006ac:    07c0        ..      LSLS     r0,r0,#31
        0x000006ae:    d000        ..      BEQ      0x6b2 ; CLK_GetHXTFreq + 10
        0x000006b0:    48a7        .H      LDR      r0,[pc,#668] ; [0x950] = 0xb71b00
        0x000006b2:    4770        pG      BX       lr
    CLK_GetLXTFreq
        0x000006b4:    48a4        .H      LDR      r0,[pc,#656] ; [0x948] = 0x40000200
        0x000006b6:    6800        .h      LDR      r0,[r0,#0]
        0x000006b8:    0780        ..      LSLS     r0,r0,#30
        0x000006ba:    d502        ..      BPL      0x6c2 ; CLK_GetLXTFreq + 14
        0x000006bc:    f44f4000    O..@    MOV      r0,#0x8000
        0x000006c0:    4770        pG      BX       lr
        0x000006c2:    2000        .       MOVS     r0,#0
        0x000006c4:    4770        pG      BX       lr
    CLK_GetHCLKFreq
        0x000006c6:    b510        ..      PUSH     {r4,lr}
        0x000006c8:    f7fffdee    ....    BL       SystemCoreClockUpdate ; 0x2a8
        0x000006cc:    489f        .H      LDR      r0,[pc,#636] ; [0x94c] = 0x20000000
        0x000006ce:    6800        .h      LDR      r0,[r0,#0]
        0x000006d0:    bd10        ..      POP      {r4,pc}
    CLK_GetCPUFreq
        0x000006d2:    b510        ..      PUSH     {r4,lr}
        0x000006d4:    f7fffde8    ....    BL       SystemCoreClockUpdate ; 0x2a8
        0x000006d8:    489c        .H      LDR      r0,[pc,#624] ; [0x94c] = 0x20000000
        0x000006da:    6800        .h      LDR      r0,[r0,#0]
        0x000006dc:    bd10        ..      POP      {r4,pc}
    CLK_GetPLLClockFreq
        0x000006de:    4898        .H      LDR      r0,[pc,#608] ; [0x940] = 0x40000208
        0x000006e0:    3038        80      ADDS     r0,r0,#0x38
        0x000006e2:    6800        .h      LDR      r0,[r0,#0]
        0x000006e4:    02c1        ..      LSLS     r1,r0,#11
        0x000006e6:    d501        ..      BPL      0x6ec ; CLK_GetPLLClockFreq + 14
        0x000006e8:    2000        .       MOVS     r0,#0
        0x000006ea:    4770        pG      BX       lr
        0x000006ec:    0301        ..      LSLS     r1,r0,#12
        0x000006ee:    d501        ..      BPL      0x6f4 ; CLK_GetPLLClockFreq + 22
        0x000006f0:    4a98        .J      LDR      r2,[pc,#608] ; [0x954] = 0x1518000
        0x000006f2:    e000        ..      B        0x6f6 ; CLK_GetPLLClockFreq + 24
        0x000006f4:    4a96        .J      LDR      r2,[pc,#600] ; [0x950] = 0xb71b00
        0x000006f6:    f3c03181    ...1    UBFX     r1,r0,#14,#2
        0x000006fa:    b131        1.      CBZ      r1,0x70a ; CLK_GetPLLClockFreq + 44
        0x000006fc:    2901        .)      CMP      r1,#1
        0x000006fe:    d006        ..      BEQ      0x70e ; CLK_GetPLLClockFreq + 48
        0x00000700:    2902        .)      CMP      r1,#2
        0x00000702:    d004        ..      BEQ      0x70e ; CLK_GetPLLClockFreq + 48
        0x00000704:    2903        .)      CMP      r1,#3
        0x00000706:    d105        ..      BNE      0x714 ; CLK_GetPLLClockFreq + 54
        0x00000708:    e003        ..      B        0x712 ; CLK_GetPLLClockFreq + 52
        0x0000070a:    2101        .!      MOVS     r1,#1
        0x0000070c:    e002        ..      B        0x714 ; CLK_GetPLLClockFreq + 54
        0x0000070e:    2102        .!      MOVS     r1,#2
        0x00000710:    e000        ..      B        0x714 ; CLK_GetPLLClockFreq + 54
        0x00000712:    2104        .!      MOVS     r1,#4
        0x00000714:    f3c00308    ....    UBFX     r3,r0,#0,#9
        0x00000718:    1c9b        ..      ADDS     r3,r3,#2
        0x0000071a:    f3c02044    ..D     UBFX     r0,r0,#9,#5
        0x0000071e:    1c80        ..      ADDS     r0,r0,#2
        0x00000720:    435a        ZC      MULS     r2,r3,r2
        0x00000722:    fbb2f0f0    ....    UDIV     r0,r2,r0
        0x00000726:    fbb0f0f1    ....    UDIV     r0,r0,r1
        0x0000072a:    4770        pG      BX       lr
    CLK_SetHCLK
        0x0000072c:    4a8a        .J      LDR      r2,[pc,#552] ; [0x958] = 0x40000210
        0x0000072e:    6913        .i      LDR      r3,[r2,#0x10]
        0x00000730:    f023030f    #...    BIC      r3,r3,#0xf
        0x00000734:    ea430301    C...    ORR      r3,r3,r1
        0x00000738:    6113        .a      STR      r3,[r2,#0x10]
        0x0000073a:    6811        .h      LDR      r1,[r2,#0]
        0x0000073c:    f0210107    !...    BIC      r1,r1,#7
        0x00000740:    ea410100    A...    ORR      r1,r1,r0
        0x00000744:    6011        .`      STR      r1,[r2,#0]
        0x00000746:    f7ffbdaf    ....    B.W      SystemCoreClockUpdate ; 0x2a8
    CLK_WaitClockReady
        0x0000074a:    4684        .F      MOV      r12,r0
        0x0000074c:    f44f31d8    O..1    MOV      r1,#0x1b000
        0x00000750:    f04f4280    O..B    MOV      r2,#0x40000000
        0x00000754:    e005        ..      B        0x762 ; CLK_WaitClockReady + 24
        0x00000756:    1e0b        ..      SUBS     r3,r1,#0
        0x00000758:    f1a10101    ....    SUB      r1,r1,#1
        0x0000075c:    dc01        ..      BGT      0x762 ; CLK_WaitClockReady + 24
        0x0000075e:    2000        .       MOVS     r0,#0
        0x00000760:    4770        pG      BX       lr
        0x00000762:    f8d23250    ..P2    LDR      r3,[r2,#0x250]
        0x00000766:    ea3c0003    <...    BICS     r0,r12,r3
        0x0000076a:    d1f4        ..      BNE      0x756 ; CLK_WaitClockReady + 12
        0x0000076c:    2001        .       MOVS     r0,#1
        0x0000076e:    4770        pG      BX       lr
    CLK_SetCoreClock
        0x00000770:    b510        ..      PUSH     {r4,lr}
        0x00000772:    f04f4280    O..B    MOV      r2,#0x40000000
        0x00000776:    f8d21210    ....    LDR      r1,[r2,#0x210]
        0x0000077a:    4978        xI      LDR      r1,[pc,#480] ; [0x95c] = 0x16e3600
        0x0000077c:    4288        .B      CMP      r0,r1
        0x0000077e:    d200        ..      BCS      0x782 ; CLK_SetCoreClock + 18
        0x00000780:    4608        .F      MOV      r0,r1
        0x00000782:    f8d21200    ....    LDR      r1,[r2,#0x200]
        0x00000786:    07c9        ..      LSLS     r1,r1,#31
        0x00000788:    d002        ..      BEQ      0x790 ; CLK_SetCoreClock + 32
        0x0000078a:    2100        .!      MOVS     r1,#0
        0x0000078c:    4c70        pL      LDR      r4,[pc,#448] ; [0x950] = 0xb71b00
        0x0000078e:    e002        ..      B        0x796 ; CLK_SetCoreClock + 38
        0x00000790:    4c70        pL      LDR      r4,[pc,#448] ; [0x954] = 0x1518000
        0x00000792:    f44f2100    O..!    MOV      r1,#0x80000
        0x00000796:    4b72        rK      LDR      r3,[pc,#456] ; [0x960] = 0x2faf080
        0x00000798:    4298        .B      CMP      r0,r3
        0x0000079a:    d203        ..      BCS      0x7a4 ; CLK_SetCoreClock + 52
        0x0000079c:    0080        ..      LSLS     r0,r0,#2
        0x0000079e:    f4414340    A.@C    ORR      r3,r1,#0xc000
        0x000007a2:    e002        ..      B        0x7aa ; CLK_SetCoreClock + 58
        0x000007a4:    0040        @.      LSLS     r0,r0,#1
        0x000007a6:    f4414380    A..C    ORR      r3,r1,#0x4000
        0x000007aa:    496e        nI      LDR      r1,[pc,#440] ; [0x964] = 0xf4240
        0x000007ac:    fbb0f0f1    ....    UDIV     r0,r0,r1
        0x000007b0:    fbb4f1f1    ....    UDIV     r1,r4,r1
        0x000007b4:    f44f7481    O..t    MOV      r4,#0x102
        0x000007b8:    e001        ..      B        0x7be ; CLK_SetCoreClock + 78
        0x000007ba:    0849        I.      LSRS     r1,r1,#1
        0x000007bc:    0840        @.      LSRS     r0,r0,#1
        0x000007be:    2911        .)      CMP      r1,#0x11
        0x000007c0:    d8fb        ..      BHI      0x7ba ; CLK_SetCoreClock + 74
        0x000007c2:    42a0        .B      CMP      r0,r4
        0x000007c4:    d2f9        ..      BCS      0x7ba ; CLK_SetCoreClock + 74
        0x000007c6:    4c68        hL      LDR      r4,[pc,#416] ; [0x968] = 0xfffffc00
        0x000007c8:    1e80        ..      SUBS     r0,r0,#2
        0x000007ca:    eb042141    ..A!    ADD      r1,r4,r1,LSL #9
        0x000007ce:    4319        .C      ORRS     r1,r1,r3
        0x000007d0:    4301        .C      ORRS     r1,r1,r0
        0x000007d2:    f8c21240    ..@.    STR      r1,[r2,#0x240]
        0x000007d6:    2004        .       MOVS     r0,#4
        0x000007d8:    f7ffffb7    ....    BL       CLK_WaitClockReady ; 0x74a
        0x000007dc:    2100        .!      MOVS     r1,#0
        0x000007de:    2002        .       MOVS     r0,#2
        0x000007e0:    f7ffffa4    ....    BL       CLK_SetHCLK ; 0x72c
        0x000007e4:    f7fffd60    ..`.    BL       SystemCoreClockUpdate ; 0x2a8
        0x000007e8:    4858        XH      LDR      r0,[pc,#352] ; [0x94c] = 0x20000000
        0x000007ea:    6800        .h      LDR      r0,[r0,#0]
        0x000007ec:    bd10        ..      POP      {r4,pc}
    CLK_SetModuleClock
        0x000007ee:    b530        0.      PUSH     {r4,r5,lr}
        0x000007f0:    f4103f7f    ...?    TST      r0,#0x3fc00
        0x000007f4:    d012        ..      BEQ      0x81c ; CLK_SetModuleClock + 46
        0x000007f6:    4c58        XL      LDR      r4,[pc,#352] ; [0x958] = 0x40000210
        0x000007f8:    f3c04381    ...C    UBFX     r3,r0,#18,#2
        0x000007fc:    3410        .4      ADDS     r4,r4,#0x10
        0x000007fe:    eb040383    ....    ADD      r3,r4,r3,LSL #2
        0x00000802:    f8d3c000    ....    LDR      r12,[r3,#0]
        0x00000806:    f3c02487    ...$    UBFX     r4,r0,#10,#8
        0x0000080a:    f3c01544    ..D.    UBFX     r5,r0,#5,#5
        0x0000080e:    40ac        .@      LSLS     r4,r4,r5
        0x00000810:    ea2c0c04    ,...    BIC      r12,r12,r4
        0x00000814:    ea4c0c02    L...    ORR      r12,r12,r2
        0x00000818:    f8c3c000    ....    STR      r12,[r3,#0]
        0x0000081c:    0e42        B.      LSRS     r2,r0,#25
        0x0000081e:    0752        R.      LSLS     r2,r2,#29
        0x00000820:    d00d        ..      BEQ      0x83e ; CLK_SetModuleClock + 80
        0x00000822:    4b4d        MK      LDR      r3,[pc,#308] ; [0x958] = 0x40000210
        0x00000824:    f3c07201    ...r    UBFX     r2,r0,#28,#2
        0x00000828:    eb030282    ....    ADD      r2,r3,r2,LSL #2
        0x0000082c:    6813        .h      LDR      r3,[r2,#0]
        0x0000082e:    f3c06442    ..Bd    UBFX     r4,r0,#25,#3
        0x00000832:    f3c05004    ...P    UBFX     r0,r0,#20,#5
        0x00000836:    4084        .@      LSLS     r4,r4,r0
        0x00000838:    43a3        .C      BICS     r3,r3,r4
        0x0000083a:    430b        .C      ORRS     r3,r3,r1
        0x0000083c:    6013        .`      STR      r3,[r2,#0]
        0x0000083e:    bd30        0.      POP      {r4,r5,pc}
    CLK_EnableXtalRC
        0x00000840:    4941        AI      LDR      r1,[pc,#260] ; [0x948] = 0x40000200
        0x00000842:    680a        .h      LDR      r2,[r1,#0]
        0x00000844:    ea420200    B...    ORR      r2,r2,r0
        0x00000848:    600a        .`      STR      r2,[r1,#0]
        0x0000084a:    4770        pG      BX       lr
    CLK_DisableXtalRC
        0x0000084c:    493e        >I      LDR      r1,[pc,#248] ; [0x948] = 0x40000200
        0x0000084e:    680a        .h      LDR      r2,[r1,#0]
        0x00000850:    ea220200    "...    BIC      r2,r2,r0
        0x00000854:    600a        .`      STR      r2,[r1,#0]
        0x00000856:    4770        pG      BX       lr
    CLK_EnableModuleClock
        0x00000858:    0f82        ..      LSRS     r2,r0,#30
        0x0000085a:    f04f4180    O..A    MOV      r1,#0x40000000
        0x0000085e:    eb010182    ....    ADD      r1,r1,r2,LSL #2
        0x00000862:    f8d12204    ..."    LDR      r2,[r1,#0x204]
        0x00000866:    f000031f    ....    AND      r3,r0,#0x1f
        0x0000086a:    2001        .       MOVS     r0,#1
        0x0000086c:    4098        .@      LSLS     r0,r0,r3
        0x0000086e:    4302        .C      ORRS     r2,r2,r0
        0x00000870:    f8c12204    ..."    STR      r2,[r1,#0x204]
        0x00000874:    4770        pG      BX       lr
    CLK_DisableModuleClock
        0x00000876:    0f82        ..      LSRS     r2,r0,#30
        0x00000878:    f04f4180    O..A    MOV      r1,#0x40000000
        0x0000087c:    eb010182    ....    ADD      r1,r1,r2,LSL #2
        0x00000880:    f8d12204    ..."    LDR      r2,[r1,#0x204]
        0x00000884:    f000031f    ....    AND      r3,r0,#0x1f
        0x00000888:    2001        .       MOVS     r0,#1
        0x0000088a:    4098        .@      LSLS     r0,r0,r3
        0x0000088c:    4382        .C      BICS     r2,r2,r0
        0x0000088e:    f8c12204    ..."    STR      r2,[r1,#0x204]
        0x00000892:    4770        pG      BX       lr
    CLK_EnablePLL
        0x00000894:    f44f2200    O.."    MOV      r2,#0x80000
        0x00000898:    b510        ..      PUSH     {r4,lr}
        0x0000089a:    02d3        ..      LSLS     r3,r2,#11
        0x0000089c:    4290        .B      CMP      r0,r2
        0x0000089e:    f8d30240    ..@.    LDR      r0,[r3,#0x240]
        0x000008a2:    f4203080     ..0    BIC      r0,r0,#0x10000
        0x000008a6:    d105        ..      BNE      0x8b4 ; CLK_EnablePLL + 32
        0x000008a8:    f4402000    @..     ORR      r0,r0,#0x80000
        0x000008ac:    f8c30240    ..@.    STR      r0,[r3,#0x240]
        0x000008b0:    4c28        (L      LDR      r4,[pc,#160] ; [0x954] = 0x1518000
        0x000008b2:    e003        ..      B        0x8bc ; CLK_EnablePLL + 40
        0x000008b4:    f8c30240    ..@.    STR      r0,[r3,#0x240]
        0x000008b8:    4c25        %L      LDR      r4,[pc,#148] ; [0x950] = 0xb71b00
        0x000008ba:    2200        ."      MOVS     r2,#0
        0x000008bc:    4828        (H      LDR      r0,[pc,#160] ; [0x960] = 0x2faf080
        0x000008be:    4281        .B      CMP      r1,r0
        0x000008c0:    d203        ..      BCS      0x8ca ; CLK_EnablePLL + 54
        0x000008c2:    0088        ..      LSLS     r0,r1,#2
        0x000008c4:    f4424240    B.@B    ORR      r2,r2,#0xc000
        0x000008c8:    e002        ..      B        0x8d0 ; CLK_EnablePLL + 60
        0x000008ca:    0048        H.      LSLS     r0,r1,#1
        0x000008cc:    f4424280    B..B    ORR      r2,r2,#0x4000
        0x000008d0:    4924        $I      LDR      r1,[pc,#144] ; [0x964] = 0xf4240
        0x000008d2:    fbb0f0f1    ....    UDIV     r0,r0,r1
        0x000008d6:    fbb4f1f1    ....    UDIV     r1,r4,r1
        0x000008da:    f44f7481    O..t    MOV      r4,#0x102
        0x000008de:    e001        ..      B        0x8e4 ; CLK_EnablePLL + 80
        0x000008e0:    0849        I.      LSRS     r1,r1,#1
        0x000008e2:    0840        @.      LSRS     r0,r0,#1
        0x000008e4:    2911        .)      CMP      r1,#0x11
        0x000008e6:    d8fb        ..      BHI      0x8e0 ; CLK_EnablePLL + 76
        0x000008e8:    42a0        .B      CMP      r0,r4
        0x000008ea:    d2f9        ..      BCS      0x8e0 ; CLK_EnablePLL + 76
        0x000008ec:    4c1e        .L      LDR      r4,[pc,#120] ; [0x968] = 0xfffffc00
        0x000008ee:    1e80        ..      SUBS     r0,r0,#2
        0x000008f0:    eb042141    ..A!    ADD      r1,r4,r1,LSL #9
        0x000008f4:    4311        .C      ORRS     r1,r1,r2
        0x000008f6:    4301        .C      ORRS     r1,r1,r0
        0x000008f8:    f8c31240    ..@.    STR      r1,[r3,#0x240]
        0x000008fc:    2004        .       MOVS     r0,#4
        0x000008fe:    f7ffff24    ..$.    BL       CLK_WaitClockReady ; 0x74a
        0x00000902:    e8bd4010    ...@    POP      {r4,lr}
        0x00000906:    e6ea        ..      B        CLK_GetPLLClockFreq ; 0x6de
    CLK_DisablePLL
        0x00000908:    4818        .H      LDR      r0,[pc,#96] ; [0x96c] = 0x40000240
        0x0000090a:    6801        .h      LDR      r1,[r0,#0]
        0x0000090c:    f4213180    !..1    BIC      r1,r1,#0x10000
        0x00000910:    6001        .`      STR      r1,[r0,#0]
        0x00000912:    4770        pG      BX       lr
    CLK_SetSysTickClockSrc
        0x00000914:    4910        .I      LDR      r1,[pc,#64] ; [0x958] = 0x40000210
        0x00000916:    680a        .h      LDR      r2,[r1,#0]
        0x00000918:    f0220238    ".8.    BIC      r2,r2,#0x38
        0x0000091c:    ea420200    B...    ORR      r2,r2,r0
        0x00000920:    600a        .`      STR      r2,[r1,#0]
        0x00000922:    4770        pG      BX       lr
    CLK_SysTickDelay
        0x00000924:    4912        .I      LDR      r1,[pc,#72] ; [0x970] = 0x20000004
        0x00000926:    6809        .h      LDR      r1,[r1,#0]
        0x00000928:    4348        HC      MULS     r0,r1,r0
        0x0000092a:    f04f21e0    O..!    MOV      r1,#0xe000e000
        0x0000092e:    6148        Ha      STR      r0,[r1,#0x14]
        0x00000930:    2000        .       MOVS     r0,#0
        0x00000932:    6188        .a      STR      r0,[r1,#0x18]
        0x00000934:    2005        .       MOVS     r0,#5
        0x00000936:    6108        .a      STR      r0,[r1,#0x10]
        0x00000938:    6908        .i      LDR      r0,[r1,#0x10]
        0x0000093a:    03c0        ..      LSLS     r0,r0,#15
        0x0000093c:    d5fc        ..      BPL      0x938 ; CLK_SysTickDelay + 20
        0x0000093e:    4770        pG      BX       lr
    $d
        0x00000940:    40000208    ...@    DCD    1073742344
        0x00000944:    e000ed10    ....    DCD    3758157072
        0x00000948:    40000200    ...@    DCD    1073742336
        0x0000094c:    20000000    ...     DCD    536870912
        0x00000950:    00b71b00    ....    DCD    12000000
        0x00000954:    01518000    ..Q.    DCD    22118400
        0x00000958:    40000210    ...@    DCD    1073742352
        0x0000095c:    016e3600    .6n.    DCD    24000000
        0x00000960:    02faf080    ....    DCD    50000000
        0x00000964:    000f4240    @B..    DCD    1000000
        0x00000968:    fffffc00    ....    DCD    4294966272
        0x0000096c:    40000240    @..@    DCD    1073742400
        0x00000970:    20000004    ...     DCD    536870916
    $t
    .text
    Hard_Fault_Handler
    __tagsym$$used
        0x00000974:    4604        .F      MOV      r4,r0
        0x00000976:    a02b        +.      ADR      r0,{pc}+0xae ; 0xa24
        0x00000978:    f008ff0e    ....    BL       __0printf$5 ; 0x9798
        0x0000097c:    4620         F      MOV      r0,r4
        0x0000097e:    f000f82c    ..,.    BL       stackDump ; 0x9da
        0x00000982:    e7fe        ..      B        0x982 ; Hard_Fault_Handler + 14
    SendChar_ToUART
        0x00000984:    492d        -I      LDR      r1,[pc,#180] ; [0xa3c] = 0x40070000
        0x00000986:    698a        .i      LDR      r2,[r1,#0x18]
        0x00000988:    0212        ..      LSLS     r2,r2,#8
        0x0000098a:    d4fc        ..      BMI      0x986 ; SendChar_ToUART + 2
        0x0000098c:    6008        .`      STR      r0,[r1,#0]
        0x0000098e:    280a        .(      CMP      r0,#0xa
        0x00000990:    d104        ..      BNE      0x99c ; SendChar_ToUART + 24
        0x00000992:    6988        .i      LDR      r0,[r1,#0x18]
        0x00000994:    0200        ..      LSLS     r0,r0,#8
        0x00000996:    d4fc        ..      BMI      0x992 ; SendChar_ToUART + 14
        0x00000998:    200d        .       MOVS     r0,#0xd
        0x0000099a:    6008        .`      STR      r0,[r1,#0]
        0x0000099c:    4770        pG      BX       lr
    SendChar
        0x0000099e:    e7f1        ..      B        SendChar_ToUART ; 0x984
    GetChar
        0x000009a0:    4826        &H      LDR      r0,[pc,#152] ; [0xa3c] = 0x40070000
        0x000009a2:    6981        .i      LDR      r1,[r0,#0x18]
        0x000009a4:    0449        I.      LSLS     r1,r1,#17
        0x000009a6:    d4fc        ..      BMI      0x9a2 ; GetChar + 2
        0x000009a8:    6800        .h      LDR      r0,[r0,#0]
        0x000009aa:    b2c0        ..      UXTB     r0,r0
        0x000009ac:    4770        pG      BX       lr
    kbhit
        0x000009ae:    4823        #H      LDR      r0,[pc,#140] ; [0xa3c] = 0x40070000
        0x000009b0:    6980        .i      LDR      r0,[r0,#0x18]
        0x000009b2:    f34030c0    @..0    SBFX     r0,r0,#15,#1
        0x000009b6:    1c40        @.      ADDS     r0,r0,#1
        0x000009b8:    4770        pG      BX       lr
    IsDebugFifoEmpty
        0x000009ba:    4820         H      LDR      r0,[pc,#128] ; [0xa3c] = 0x40070000
        0x000009bc:    6980        .i      LDR      r0,[r0,#0x18]
        0x000009be:    f0005080    ...P    AND      r0,r0,#0x10000000
        0x000009c2:    4770        pG      BX       lr
    _ttywrch
        0x000009c4:    e7de        ..      B        SendChar_ToUART ; 0x984
    fputc
        0x000009c6:    b500        ..      PUSH     {lr}
        0x000009c8:    4603        .F      MOV      r3,r0
        0x000009ca:    f7ffffdb    ....    BL       SendChar_ToUART ; 0x984
        0x000009ce:    4618        .F      MOV      r0,r3
        0x000009d0:    bd00        ..      POP      {pc}
    fgetc
        0x000009d2:    e7e5        ..      B        GetChar ; 0x9a0
    ferror
        0x000009d4:    f04f30ff    O..0    MOV      r0,#0xffffffff
        0x000009d8:    4770        pG      BX       lr
    stackDump
        0x000009da:    b510        ..      PUSH     {r4,lr}
        0x000009dc:    4604        .F      MOV      r4,r0
        0x000009de:    6801        .h      LDR      r1,[r0,#0]
        0x000009e0:    a017        ..      ADR      r0,{pc}+0x60 ; 0xa40
        0x000009e2:    f008fed9    ....    BL       __0printf$5 ; 0x9798
        0x000009e6:    a019        ..      ADR      r0,{pc}+0x66 ; 0xa4c
        0x000009e8:    6861        ah      LDR      r1,[r4,#4]
        0x000009ea:    f008fed5    ....    BL       __0printf$5 ; 0x9798
        0x000009ee:    a01a        ..      ADR      r0,{pc}+0x6a ; 0xa58
        0x000009f0:    68a1        .h      LDR      r1,[r4,#8]
        0x000009f2:    f008fed1    ....    BL       __0printf$5 ; 0x9798
        0x000009f6:    a01b        ..      ADR      r0,{pc}+0x6e ; 0xa64
        0x000009f8:    68e1        .h      LDR      r1,[r4,#0xc]
        0x000009fa:    f008fecd    ....    BL       __0printf$5 ; 0x9798
        0x000009fe:    a01c        ..      ADR      r0,{pc}+0x72 ; 0xa70
        0x00000a00:    6921        !i      LDR      r1,[r4,#0x10]
        0x00000a02:    f008fec9    ....    BL       __0printf$5 ; 0x9798
        0x00000a06:    a01d        ..      ADR      r0,{pc}+0x76 ; 0xa7c
        0x00000a08:    6961        ai      LDR      r1,[r4,#0x14]
        0x00000a0a:    f008fec5    ....    BL       __0printf$5 ; 0x9798
        0x00000a0e:    a01e        ..      ADR      r0,{pc}+0x7a ; 0xa88
        0x00000a10:    69a1        .i      LDR      r1,[r4,#0x18]
        0x00000a12:    f008fec1    ....    BL       __0printf$5 ; 0x9798
        0x00000a16:    69e1        .i      LDR      r1,[r4,#0x1c]
        0x00000a18:    e8bd4010    ...@    POP      {r4,lr}
        0x00000a1c:    a01d        ..      ADR      r0,{pc}+0x78 ; 0xa94
        0x00000a1e:    f008bebb    ....    B.W      __0printf$5 ; 0x9798
    $d
        0x00000a22:    0000        ..      DCW    0
        0x00000a24:    48206e49    In H    DCD    1210084937
        0x00000a28:    20647261    ard     DCD    543453793
        0x00000a2c:    6c756146    Faul    DCD    1819631942
        0x00000a30:    61482074    t Ha    DCD    1632116852
        0x00000a34:    656c646e    ndle    DCD    1701602414
        0x00000a38:    00000a72    r...    DCD    2674
        0x00000a3c:    40070000    ...@    DCD    1074200576
        0x00000a40:    20203072    r0      DCD    538980466
        0x00000a44:    7830203d    = 0x    DCD    2016419901
        0x00000a48:    000a7825    %x..    DCD    686117
        0x00000a4c:    20203172    r1      DCD    538980722
        0x00000a50:    7830203d    = 0x    DCD    2016419901
        0x00000a54:    000a7825    %x..    DCD    686117
        0x00000a58:    20203272    r2      DCD    538980978
        0x00000a5c:    7830203d    = 0x    DCD    2016419901
        0x00000a60:    000a7825    %x..    DCD    686117
        0x00000a64:    20203372    r3      DCD    538981234
        0x00000a68:    7830203d    = 0x    DCD    2016419901
        0x00000a6c:    000a7825    %x..    DCD    686117
        0x00000a70:    20323172    r12     DCD    540160370
        0x00000a74:    7830203d    = 0x    DCD    2016419901
        0x00000a78:    000a7825    %x..    DCD    686117
        0x00000a7c:    2020726c    lr      DCD    538997356
        0x00000a80:    7830203d    = 0x    DCD    2016419901
        0x00000a84:    000a7825    %x..    DCD    686117
        0x00000a88:    20206370    pc      DCD    538993520
        0x00000a8c:    7830203d    = 0x    DCD    2016419901
        0x00000a90:    000a7825    %x..    DCD    686117
        0x00000a94:    20727370    psr     DCD    544371568
        0x00000a98:    7830203d    = 0x    DCD    2016419901
        0x00000a9c:    000a7825    %x..    DCD    686117
    $t
    .text
    SYS_ClearResetSrc
        0x00000aa0:    f04f4180    O..A    MOV      r1,#0x40000000
        0x00000aa4:    684a        Jh      LDR      r2,[r1,#4]
        0x00000aa6:    4302        .C      ORRS     r2,r2,r0
        0x00000aa8:    604a        J`      STR      r2,[r1,#4]
        0x00000aaa:    4770        pG      BX       lr
    SYS_GetBODStatus
        0x00000aac:    f04f4080    O..@    MOV      r0,#0x40000000
        0x00000ab0:    6980        .i      LDR      r0,[r0,#0x18]
        0x00000ab2:    f0000040    ..@.    AND      r0,r0,#0x40
        0x00000ab6:    4770        pG      BX       lr
    SYS_GetResetSrc
        0x00000ab8:    f04f4080    O..@    MOV      r0,#0x40000000
        0x00000abc:    6840        @h      LDR      r0,[r0,#4]
        0x00000abe:    4770        pG      BX       lr
    SYS_IsRegLocked
        0x00000ac0:    4826        &H      LDR      r0,[pc,#152] ; [0xb5c] = 0x40000100
        0x00000ac2:    6800        .h      LDR      r0,[r0,#0]
        0x00000ac4:    f0000001    ....    AND      r0,r0,#1
        0x00000ac8:    4770        pG      BX       lr
    SYS_LockReg
        0x00000aca:    4924        $I      LDR      r1,[pc,#144] ; [0xb5c] = 0x40000100
        0x00000acc:    2000        .       MOVS     r0,#0
        0x00000ace:    6008        .`      STR      r0,[r1,#0]
        0x00000ad0:    4770        pG      BX       lr
    SYS_UnlockReg
        0x00000ad2:    b510        ..      PUSH     {r4,lr}
        0x00000ad4:    2159        Y!      MOVS     r1,#0x59
        0x00000ad6:    2316        .#      MOVS     r3,#0x16
        0x00000ad8:    f04f4080    O..@    MOV      r0,#0x40000000
        0x00000adc:    2288        ."      MOVS     r2,#0x88
        0x00000ade:    e005        ..      B        0xaec ; SYS_UnlockReg + 26
        0x00000ae0:    f8c01100    ....    STR      r1,[r0,#0x100]
        0x00000ae4:    f8c03100    ...1    STR      r3,[r0,#0x100]
        0x00000ae8:    f8c02100    ...!    STR      r2,[r0,#0x100]
        0x00000aec:    f8d04100    ...A    LDR      r4,[r0,#0x100]
        0x00000af0:    2c01        .,      CMP      r4,#1
        0x00000af2:    d1f5        ..      BNE      0xae0 ; SYS_UnlockReg + 14
        0x00000af4:    bd10        ..      POP      {r4,pc}
    SYS_ReadPDID
        0x00000af6:    f04f4080    O..@    MOV      r0,#0x40000000
        0x00000afa:    6800        .h      LDR      r0,[r0,#0]
        0x00000afc:    4770        pG      BX       lr
    SYS_ResetChip
        0x00000afe:    f04f4080    O..@    MOV      r0,#0x40000000
        0x00000b02:    6881        .h      LDR      r1,[r0,#8]
        0x00000b04:    f0410101    A...    ORR      r1,r1,#1
        0x00000b08:    6081        .`      STR      r1,[r0,#8]
        0x00000b0a:    4770        pG      BX       lr
    SYS_ResetCPU
        0x00000b0c:    f04f4080    O..@    MOV      r0,#0x40000000
        0x00000b10:    6881        .h      LDR      r1,[r0,#8]
        0x00000b12:    f0410102    A...    ORR      r1,r1,#2
        0x00000b16:    6081        .`      STR      r1,[r0,#8]
        0x00000b18:    4770        pG      BX       lr
    SYS_ResetModule
        0x00000b1a:    f04f4180    O..A    MOV      r1,#0x40000000
        0x00000b1e:    eb016110    ...a    ADD      r1,r1,r0,LSR #24
        0x00000b22:    688b        .h      LDR      r3,[r1,#8]
        0x00000b24:    2201        ."      MOVS     r2,#1
        0x00000b26:    4082        .@      LSLS     r2,r2,r0
        0x00000b28:    4313        .C      ORRS     r3,r3,r2
        0x00000b2a:    608b        .`      STR      r3,[r1,#8]
        0x00000b2c:    6888        .h      LDR      r0,[r1,#8]
        0x00000b2e:    4390        .C      BICS     r0,r0,r2
        0x00000b30:    6088        .`      STR      r0,[r1,#8]
        0x00000b32:    4770        pG      BX       lr
    SYS_EnableBOD
        0x00000b34:    f04f4280    O..B    MOV      r2,#0x40000000
        0x00000b38:    6993        .i      LDR      r3,[r2,#0x18]
        0x00000b3a:    f023030e    #...    BIC      r3,r3,#0xe
        0x00000b3e:    6193        .a      STR      r3,[r2,#0x18]
        0x00000b40:    6993        .i      LDR      r3,[r2,#0x18]
        0x00000b42:    4303        .C      ORRS     r3,r3,r0
        0x00000b44:    f0410001    A...    ORR      r0,r1,#1
        0x00000b48:    4303        .C      ORRS     r3,r3,r0
        0x00000b4a:    6193        .a      STR      r3,[r2,#0x18]
        0x00000b4c:    4770        pG      BX       lr
    SYS_DisableBOD
        0x00000b4e:    f04f4080    O..@    MOV      r0,#0x40000000
        0x00000b52:    6981        .i      LDR      r1,[r0,#0x18]
        0x00000b54:    f0210101    !...    BIC      r1,r1,#1
        0x00000b58:    6181        .a      STR      r1,[r0,#0x18]
        0x00000b5a:    4770        pG      BX       lr
    $d
        0x00000b5c:    40000100    ...@    DCD    1073742080
    $t
    .text
    UART_ClearIntFlag
        0x00000b60:    054a        J.      LSLS     r2,r1,#21
        0x00000b62:    d507        ..      BPL      0xb74 ; UART_ClearIntFlag + 20
        0x00000b64:    6982        .i      LDR      r2,[r0,#0x18]
        0x00000b66:    f0420270    B.p.    ORR      r2,r2,#0x70
        0x00000b6a:    6182        .a      STR      r2,[r0,#0x18]
        0x00000b6c:    6982        .i      LDR      r2,[r0,#0x18]
        0x00000b6e:    f0420208    B...    ORR      r2,r2,#8
        0x00000b72:    6182        .a      STR      r2,[r0,#0x18]
        0x00000b74:    050a        ..      LSLS     r2,r1,#20
        0x00000b76:    d503        ..      BPL      0xb80 ; UART_ClearIntFlag + 32
        0x00000b78:    6942        Bi      LDR      r2,[r0,#0x14]
        0x00000b7a:    f0420201    B...    ORR      r2,r2,#1
        0x00000b7e:    6142        Ba      STR      r2,[r0,#0x14]
        0x00000b80:    048a        ..      LSLS     r2,r1,#18
        0x00000b82:    d503        ..      BPL      0xb8c ; UART_ClearIntFlag + 44
        0x00000b84:    6982        .i      LDR      r2,[r0,#0x18]
        0x00000b86:    4b70        pK      LDR      r3,[pc,#448] ; [0xd48] = 0x1000001
        0x00000b88:    431a        .C      ORRS     r2,r2,r3
        0x00000b8a:    6182        .a      STR      r2,[r0,#0x18]
        0x00000b8c:    04c9        ..      LSLS     r1,r1,#19
        0x00000b8e:    d503        ..      BPL      0xb98 ; UART_ClearIntFlag + 56
        0x00000b90:    69c1        .i      LDR      r1,[r0,#0x1c]
        0x00000b92:    f0410110    A...    ORR      r1,r1,#0x10
        0x00000b96:    61c1        .a      STR      r1,[r0,#0x1c]
        0x00000b98:    4770        pG      BX       lr
    UART_Close
        0x00000b9a:    2100        .!      MOVS     r1,#0
        0x00000b9c:    6041        A`      STR      r1,[r0,#4]
        0x00000b9e:    4770        pG      BX       lr
    UART_DisableFlowCtrl
        0x00000ba0:    6841        Ah      LDR      r1,[r0,#4]
        0x00000ba2:    f4215140    !.@Q    BIC      r1,r1,#0x3000
        0x00000ba6:    6041        A`      STR      r1,[r0,#4]
        0x00000ba8:    4770        pG      BX       lr
    UART_DisableInt
        0x00000baa:    6842        Bh      LDR      r2,[r0,#4]
        0x00000bac:    438a        .C      BICS     r2,r2,r1
        0x00000bae:    6042        B`      STR      r2,[r0,#4]
        0x00000bb0:    4770        pG      BX       lr
    UART_EnableFlowCtrl
        0x00000bb2:    6901        .i      LDR      r1,[r0,#0x10]
        0x00000bb4:    f4417100    A..q    ORR      r1,r1,#0x200
        0x00000bb8:    6101        .a      STR      r1,[r0,#0x10]
        0x00000bba:    6901        .i      LDR      r1,[r0,#0x10]
        0x00000bbc:    f0010102    ....    AND      r1,r1,#2
        0x00000bc0:    6101        .a      STR      r1,[r0,#0x10]
        0x00000bc2:    6941        Ai      LDR      r1,[r0,#0x14]
        0x00000bc4:    f4417180    A..q    ORR      r1,r1,#0x100
        0x00000bc8:    6141        Aa      STR      r1,[r0,#0x14]
        0x00000bca:    6841        Ah      LDR      r1,[r0,#4]
        0x00000bcc:    f4415140    A.@Q    ORR      r1,r1,#0x3000
        0x00000bd0:    6041        A`      STR      r1,[r0,#4]
        0x00000bd2:    4770        pG      BX       lr
    UART_EnableInt
        0x00000bd4:    6842        Bh      LDR      r2,[r0,#4]
        0x00000bd6:    430a        .C      ORRS     r2,r2,r1
        0x00000bd8:    6042        B`      STR      r2,[r0,#4]
        0x00000bda:    4770        pG      BX       lr
    UART_Open
        0x00000bdc:    b57f        ..      PUSH     {r0-r6,lr}
        0x00000bde:    4604        .F      MOV      r4,r0
        0x00000be0:    485a        ZH      LDR      r0,[pc,#360] ; [0xd4c] = 0x9a9c
        0x00000be2:    460d        .F      MOV      r5,r1
        0x00000be4:    6801        .h      LDR      r1,[r0,#0]
        0x00000be6:    e9d02002    ...     LDRD     r2,r0,[r0,#8]
        0x00000bea:    e9cd2002    ...     STRD     r2,r0,[sp,#8]
        0x00000bee:    9100        ..      STR      r1,[sp,#0]
        0x00000bf0:    f7fffd75    ..u.    BL       CLK_GetPLLClockFreq ; 0x6de
        0x00000bf4:    4a56        VJ      LDR      r2,[pc,#344] ; [0xd50] = 0x40000214
        0x00000bf6:    9001        ..      STR      r0,[sp,#4]
        0x00000bf8:    6810        .h      LDR      r0,[r2,#0]
        0x00000bfa:    f04f0100    O...    MOV      r1,#0
        0x00000bfe:    f3c06001    ...`    UBFX     r0,r0,#24,#2
        0x00000c02:    6321        !c      STR      r1,[r4,#0x30]
        0x00000c04:    f04f0303    O...    MOV      r3,#3
        0x00000c08:    60e3        .`      STR      r3,[r4,#0xc]
        0x00000c0a:    60a1        .`      STR      r1,[r4,#8]
        0x00000c0c:    f85d1020    ]. .    LDR      r1,[sp,r0,LSL #2]
        0x00000c10:    68d0        .h      LDR      r0,[r2,#0xc]
        0x00000c12:    2d00        .-      CMP      r5,#0
        0x00000c14:    f3c02003    ...     UBFX     r0,r0,#8,#4
        0x00000c18:    f1000001    ....    ADD      r0,r0,#1
        0x00000c1c:    fbb1f1f0    ....    UDIV     r1,r1,r0
        0x00000c20:    d013        ..      BEQ      0xc4a ; UART_Open + 110
        0x00000c22:    eb010055    ..U.    ADD      r0,r1,r5,LSR #1
        0x00000c26:    fbb0f0f5    ....    UDIV     r0,r0,r5
        0x00000c2a:    f1a00002    ....    SUB      r0,r0,#2
        0x00000c2e:    f5b03f80    ...?    CMP      r0,#0x10000
        0x00000c32:    d307        ..      BCC      0xc44 ; UART_Open + 104
        0x00000c34:    eb0100c5    ....    ADD      r0,r1,r5,LSL #3
        0x00000c38:    fbb0f0f5    ....    UDIV     r0,r0,r5
        0x00000c3c:    1f59        Y.      SUBS     r1,r3,#5
        0x00000c3e:    eb011010    ....    ADD      r0,r1,r0,LSR #4
        0x00000c42:    e001        ..      B        0xc48 ; UART_Open + 108
        0x00000c44:    f0405040    @.@P    ORR      r0,r0,#0x30000000
        0x00000c48:    6260        `b      STR      r0,[r4,#0x24]
        0x00000c4a:    bd7f        ..      POP      {r0-r6,pc}
    UART_Read
        0x00000c4c:    b510        ..      PUSH     {r4,lr}
        0x00000c4e:    4603        .F      MOV      r3,r0
        0x00000c50:    2000        .       MOVS     r0,#0
        0x00000c52:    e005        ..      B        0xc60 ; UART_Read + 20
        0x00000c54:    699c        .i      LDR      r4,[r3,#0x18]
        0x00000c56:    0464        d.      LSLS     r4,r4,#17
        0x00000c58:    d404        ..      BMI      0xc64 ; UART_Read + 24
        0x00000c5a:    681c        .h      LDR      r4,[r3,#0]
        0x00000c5c:    540c        .T      STRB     r4,[r1,r0]
        0x00000c5e:    1c40        @.      ADDS     r0,r0,#1
        0x00000c60:    4290        .B      CMP      r0,r2
        0x00000c62:    d3f7        ..      BCC      0xc54 ; UART_Read + 8
        0x00000c64:    bd10        ..      POP      {r4,pc}
    UART_SetLine_Config
        0x00000c66:    e92d41ff    -..A    PUSH     {r0-r8,lr}
        0x00000c6a:    4605        .F      MOV      r5,r0
        0x00000c6c:    4837        7H      LDR      r0,[pc,#220] ; [0xd4c] = 0x9a9c
        0x00000c6e:    460c        .F      MOV      r4,r1
        0x00000c70:    4616        .F      MOV      r6,r2
        0x00000c72:    6901        .i      LDR      r1,[r0,#0x10]
        0x00000c74:    e9d02006    ...     LDRD     r2,r0,[r0,#0x18]
        0x00000c78:    e9cd2002    ...     STRD     r2,r0,[sp,#8]
        0x00000c7c:    f8dd8028    ..(.    LDR      r8,[sp,#0x28]
        0x00000c80:    461f        .F      MOV      r7,r3
        0x00000c82:    9100        ..      STR      r1,[sp,#0]
        0x00000c84:    f7fffd2b    ..+.    BL       CLK_GetPLLClockFreq ; 0x6de
        0x00000c88:    4a31        1J      LDR      r2,[pc,#196] ; [0xd50] = 0x40000214
        0x00000c8a:    9001        ..      STR      r0,[sp,#4]
        0x00000c8c:    6810        .h      LDR      r0,[r2,#0]
        0x00000c8e:    68d1        .h      LDR      r1,[r2,#0xc]
        0x00000c90:    f3c06001    ...`    UBFX     r0,r0,#24,#2
        0x00000c94:    f85d0020    ]. .    LDR      r0,[sp,r0,LSL #2]
        0x00000c98:    f3c12103    ...!    UBFX     r1,r1,#8,#4
        0x00000c9c:    f1010101    ....    ADD      r1,r1,#1
        0x00000ca0:    fbb0f1f1    ....    UDIV     r1,r0,r1
        0x00000ca4:    b19c        ..      CBZ      r4,0xcce ; UART_SetLine_Config + 104
        0x00000ca6:    eb010054    ..T.    ADD      r0,r1,r4,LSR #1
        0x00000caa:    fbb0f0f4    ....    UDIV     r0,r0,r4
        0x00000cae:    1e80        ..      SUBS     r0,r0,#2
        0x00000cb0:    f5b03f80    ...?    CMP      r0,#0x10000
        0x00000cb4:    d308        ..      BCC      0xcc8 ; UART_SetLine_Config + 98
        0x00000cb6:    eb0100c4    ....    ADD      r0,r1,r4,LSL #3
        0x00000cba:    fbb0f0f4    ....    UDIV     r0,r0,r4
        0x00000cbe:    f06f0101    o...    MVN      r1,#1
        0x00000cc2:    eb011010    ....    ADD      r0,r1,r0,LSR #4
        0x00000cc6:    e001        ..      B        0xccc ; UART_SetLine_Config + 102
        0x00000cc8:    f0405040    @.@P    ORR      r0,r0,#0x30000000
        0x00000ccc:    6268        hb      STR      r0,[r5,#0x24]
        0x00000cce:    433e        >C      ORRS     r6,r6,r7
        0x00000cd0:    ea460608    F...    ORR      r6,r6,r8
        0x00000cd4:    60ee        .`      STR      r6,[r5,#0xc]
        0x00000cd6:    e8bd81ff    ....    POP      {r0-r8,pc}
    UART_SetTimeoutCnt
        0x00000cda:    6a02        .j      LDR      r2,[r0,#0x20]
        0x00000cdc:    f02202ff    "...    BIC      r2,r2,#0xff
        0x00000ce0:    430a        .C      ORRS     r2,r2,r1
        0x00000ce2:    6202        .b      STR      r2,[r0,#0x20]
        0x00000ce4:    6841        Ah      LDR      r1,[r0,#4]
        0x00000ce6:    f4416100    A..a    ORR      r1,r1,#0x800
        0x00000cea:    6041        A`      STR      r1,[r0,#4]
        0x00000cec:    4770        pG      BX       lr
    UART_SelectIrDAMode
        0x00000cee:    210b        .!      MOVS     r1,#0xb
        0x00000cf0:    6241        Ab      STR      r1,[r0,#0x24]
        0x00000cf2:    6a81        .j      LDR      r1,[r0,#0x28]
        0x00000cf4:    f0210120    !. .    BIC      r1,r1,#0x20
        0x00000cf8:    6281        .b      STR      r1,[r0,#0x28]
        0x00000cfa:    6a81        .j      LDR      r1,[r0,#0x28]
        0x00000cfc:    f0410140    A.@.    ORR      r1,r1,#0x40
        0x00000d00:    6281        .b      STR      r1,[r0,#0x28]
        0x00000d02:    6a81        .j      LDR      r1,[r0,#0x28]
        0x00000d04:    b112        ..      CBZ      r2,0xd0c ; UART_SelectIrDAMode + 30
        0x00000d06:    f0410102    A...    ORR      r1,r1,#2
        0x00000d0a:    e001        ..      B        0xd10 ; UART_SelectIrDAMode + 34
        0x00000d0c:    f0210102    !...    BIC      r1,r1,#2
        0x00000d10:    6281        .b      STR      r1,[r0,#0x28]
        0x00000d12:    2102        .!      MOVS     r1,#2
        0x00000d14:    6301        .c      STR      r1,[r0,#0x30]
        0x00000d16:    4770        pG      BX       lr
    UART_SelectRS485Mode
        0x00000d18:    2303        .#      MOVS     r3,#3
        0x00000d1a:    6303        .c      STR      r3,[r0,#0x30]
        0x00000d1c:    2300        .#      MOVS     r3,#0
        0x00000d1e:    62c3        .b      STR      r3,[r0,#0x2c]
        0x00000d20:    6ac3        .j      LDR      r3,[r0,#0x2c]
        0x00000d22:    ea416102    A..a    ORR      r1,r1,r2,LSL #24
        0x00000d26:    430b        .C      ORRS     r3,r3,r1
        0x00000d28:    62c3        .b      STR      r3,[r0,#0x2c]
        0x00000d2a:    4770        pG      BX       lr
    UART_Write
        0x00000d2c:    b510        ..      PUSH     {r4,lr}
        0x00000d2e:    4603        .F      MOV      r3,r0
        0x00000d30:    2000        .       MOVS     r0,#0
        0x00000d32:    e005        ..      B        0xd40 ; UART_Write + 20
        0x00000d34:    699c        .i      LDR      r4,[r3,#0x18]
        0x00000d36:    0224        $.      LSLS     r4,r4,#8
        0x00000d38:    d404        ..      BMI      0xd44 ; UART_Write + 24
        0x00000d3a:    5c0c        .\      LDRB     r4,[r1,r0]
        0x00000d3c:    601c        .`      STR      r4,[r3,#0]
        0x00000d3e:    1c40        @.      ADDS     r0,r0,#1
        0x00000d40:    4290        .B      CMP      r0,r2
        0x00000d42:    d1f7        ..      BNE      0xd34 ; UART_Write + 8
        0x00000d44:    bd10        ..      POP      {r4,pc}
    $d
        0x00000d46:    0000        ..      DCW    0
        0x00000d48:    01000001    ....    DCD    16777217
        0x00000d4c:    00009a9c    ....    DCD    39580
        0x00000d50:    40000214    ...@    DCD    1073742356
    $t
    .text
    lwip_htons
        0x00000d54:    ba40        @.      REV16    r0,r0
        0x00000d56:    4770        pG      BX       lr
    lwip_ntohs
        0x00000d58:    ba40        @.      REV16    r0,r0
        0x00000d5a:    4770        pG      BX       lr
    lwip_htonl
        0x00000d5c:    ba00        ..      REV      r0,r0
        0x00000d5e:    4770        pG      BX       lr
    lwip_ntohl
        0x00000d60:    ba00        ..      REV      r0,r0
        0x00000d62:    4770        pG      BX       lr
    .text
    dhcp_delete_msg
        0x00000d64:    b510        ..      PUSH     {r4,lr}
        0x00000d66:    0004        ..      MOVS     r4,r0
        0x00000d68:    d002        ..      BEQ      0xd70 ; dhcp_delete_msg + 12
        0x00000d6a:    6920         i      LDR      r0,[r4,#0x10]
        0x00000d6c:    b148        H.      CBZ      r0,0xd82 ; dhcp_delete_msg + 30
        0x00000d6e:    e00f        ..      B        0xd90 ; dhcp_delete_msg + 44
        0x00000d70:    e8bd4010    ...@    POP      {r4,lr}
        0x00000d74:    a3d4        ..      ADR      r3,{pc}+0x354 ; 0x10c8
        0x00000d76:    f24062c9    @..b    MOV      r2,#0x6c9
        0x00000d7a:    a1df        ..      ADR      r1,{pc}+0x37e ; 0x10f8
        0x00000d7c:    a0e6        ..      ADR      r0,{pc}+0x39c ; 0x1118
        0x00000d7e:    f008bd0b    ....    B.W      __0printf$5 ; 0x9798
        0x00000d82:    a3d1        ..      ADR      r3,{pc}+0x346 ; 0x10c8
        0x00000d84:    f24062ca    @..b    MOV      r2,#0x6ca
        0x00000d88:    a1ed        ..      ADR      r1,{pc}+0x3b8 ; 0x1140
        0x00000d8a:    a0e3        ..      ADR      r0,{pc}+0x38e ; 0x1118
        0x00000d8c:    f008fd04    ....    BL       __0printf$5 ; 0x9798
        0x00000d90:    6960        `i      LDR      r0,[r4,#0x14]
        0x00000d92:    b930        0.      CBNZ     r0,0xda2 ; dhcp_delete_msg + 62
        0x00000d94:    a3cc        ..      ADR      r3,{pc}+0x334 ; 0x10c8
        0x00000d96:    f24062cb    @..b    MOV      r2,#0x6cb
        0x00000d9a:    a1f3        ..      ADR      r1,{pc}+0x3ce ; 0x1168
        0x00000d9c:    a0de        ..      ADR      r0,{pc}+0x37c ; 0x1118
        0x00000d9e:    f008fcfb    ....    BL       __0printf$5 ; 0x9798
        0x00000da2:    6920         i      LDR      r0,[r4,#0x10]
        0x00000da4:    b108        ..      CBZ      r0,0xdaa ; dhcp_delete_msg + 70
        0x00000da6:    f002f9f1    ....    BL       pbuf_free ; 0x318c
        0x00000daa:    2000        .       MOVS     r0,#0
        0x00000dac:    6120         a      STR      r0,[r4,#0x10]
        0x00000dae:    6160        `a      STR      r0,[r4,#0x14]
        0x00000db0:    bd10        ..      POP      {r4,pc}
    dhcp_option_trailer
        0x00000db2:    b510        ..      PUSH     {r4,lr}
        0x00000db4:    0004        ..      MOVS     r4,r0
        0x00000db6:    d002        ..      BEQ      0xdbe ; dhcp_option_trailer + 12
        0x00000db8:    6960        `i      LDR      r0,[r4,#0x14]
        0x00000dba:    b148        H.      CBZ      r0,0xdd0 ; dhcp_option_trailer + 30
        0x00000dbc:    e00f        ..      B        0xdde ; dhcp_option_trailer + 44
        0x00000dbe:    e8bd4010    ...@    POP      {r4,lr}
        0x00000dc2:    a3c1        ..      ADR      r3,{pc}+0x306 ; 0x10c8
        0x00000dc4:    f24062de    @..b    MOV      r2,#0x6de
        0x00000dc8:    a1f1        ..      ADR      r1,{pc}+0x3c8 ; 0x1190
        0x00000dca:    a0d3        ..      ADR      r0,{pc}+0x34e ; 0x1118
        0x00000dcc:    f008bce4    ....    B.W      __0printf$5 ; 0x9798
        0x00000dd0:    a3bd        ..      ADR      r3,{pc}+0x2f8 ; 0x10c8
        0x00000dd2:    f24062df    @..b    MOV      r2,#0x6df
        0x00000dd6:    a1f7        ..      ADR      r1,{pc}+0x3de ; 0x11b4
        0x00000dd8:    a0cf        ..      ADR      r0,{pc}+0x340 ; 0x1118
        0x00000dda:    f008fcdd    ....    BL       __0printf$5 ; 0x9798
        0x00000dde:    8b20         .      LDRH     r0,[r4,#0x18]
        0x00000de0:    2844        D(      CMP      r0,#0x44
        0x00000de2:    d306        ..      BCC      0xdf2 ; dhcp_option_trailer + 64
        0x00000de4:    a3b8        ..      ADR      r3,{pc}+0x2e4 ; 0x10c8
        0x00000de6:    f44f62dc    O..b    MOV      r2,#0x6e0
        0x00000dea:    a1fd        ..      ADR      r1,{pc}+0x3f6 ; 0x11e0
        0x00000dec:    a0ca        ..      ADR      r0,{pc}+0x32c ; 0x1118
        0x00000dee:    f008fcd3    ....    BL       __0printf$5 ; 0x9798
        0x00000df2:    8b20         .      LDRH     r0,[r4,#0x18]
        0x00000df4:    6962        bi      LDR      r2,[r4,#0x14]
        0x00000df6:    21ff        .!      MOVS     r1,#0xff
        0x00000df8:    4402        .D      ADD      r2,r2,r0
        0x00000dfa:    1c40        @.      ADDS     r0,r0,#1
        0x00000dfc:    8320         .      STRH     r0,[r4,#0x18]
        0x00000dfe:    f88210f0    ....    STRB     r1,[r2,#0xf0]
        0x00000e02:    2100        .!      MOVS     r1,#0
        0x00000e04:    e005        ..      B        0xe12 ; dhcp_option_trailer + 96
        0x00000e06:    6962        bi      LDR      r2,[r4,#0x14]
        0x00000e08:    4402        .D      ADD      r2,r2,r0
        0x00000e0a:    1c40        @.      ADDS     r0,r0,#1
        0x00000e0c:    8320         .      STRH     r0,[r4,#0x18]
        0x00000e0e:    f88210f0    ....    STRB     r1,[r2,#0xf0]
        0x00000e12:    8b20         .      LDRH     r0,[r4,#0x18]
        0x00000e14:    2844        D(      CMP      r0,#0x44
        0x00000e16:    d3f6        ..      BCC      0xe06 ; dhcp_option_trailer + 84
        0x00000e18:    bd10        ..      POP      {r4,pc}
    dhcp_option_byte
        0x00000e1a:    b570        p.      PUSH     {r4-r6,lr}
        0x00000e1c:    4604        .F      MOV      r4,r0
        0x00000e1e:    8b00        ..      LDRH     r0,[r0,#0x18]
        0x00000e20:    460d        .F      MOV      r5,r1
        0x00000e22:    2844        D(      CMP      r0,#0x44
        0x00000e24:    d306        ..      BCC      0xe34 ; dhcp_option_byte + 26
        0x00000e26:    a3a8        ..      ADR      r3,{pc}+0x2a2 ; 0x10c8
        0x00000e28:    f2405201    @..R    MOV      r2,#0x501
        0x00000e2c:    a1fc        ..      ADR      r1,{pc}+0x3f4 ; 0x1220
        0x00000e2e:    a0ba        ..      ADR      r0,{pc}+0x2ea ; 0x1118
        0x00000e30:    f008fcb2    ....    BL       __0printf$5 ; 0x9798
        0x00000e34:    8b20         .      LDRH     r0,[r4,#0x18]
        0x00000e36:    6961        ai      LDR      r1,[r4,#0x14]
        0x00000e38:    4401        .D      ADD      r1,r1,r0
        0x00000e3a:    1c40        @.      ADDS     r0,r0,#1
        0x00000e3c:    8320         .      STRH     r0,[r4,#0x18]
        0x00000e3e:    f88150f0    ...P    STRB     r5,[r1,#0xf0]
        0x00000e42:    bd70        p.      POP      {r4-r6,pc}
    dhcp_option
        0x00000e44:    b570        p.      PUSH     {r4-r6,lr}
        0x00000e46:    460e        .F      MOV      r6,r1
        0x00000e48:    4604        .F      MOV      r4,r0
        0x00000e4a:    8b01        ..      LDRH     r1,[r0,#0x18]
        0x00000e4c:    1c90        ..      ADDS     r0,r2,#2
        0x00000e4e:    4408        .D      ADD      r0,r0,r1
        0x00000e50:    4615        .F      MOV      r5,r2
        0x00000e52:    2844        D(      CMP      r0,#0x44
        0x00000e54:    d906        ..      BLS      0xe64 ; dhcp_option + 32
        0x00000e56:    a39c        ..      ADR      r3,{pc}+0x272 ; 0x10c8
        0x00000e58:    f24042f6    @..B    MOV      r2,#0x4f6
        0x00000e5c:    49ff        .I      LDR      r1,[pc,#1020] ; [0x125c] = 0x9abc
        0x00000e5e:    a0ae        ..      ADR      r0,{pc}+0x2ba ; 0x1118
        0x00000e60:    f008fc9a    ....    BL       __0printf$5 ; 0x9798
        0x00000e64:    8b20         .      LDRH     r0,[r4,#0x18]
        0x00000e66:    6961        ai      LDR      r1,[r4,#0x14]
        0x00000e68:    4401        .D      ADD      r1,r1,r0
        0x00000e6a:    1c40        @.      ADDS     r0,r0,#1
        0x00000e6c:    8320         .      STRH     r0,[r4,#0x18]
        0x00000e6e:    f88160f0    ...`    STRB     r6,[r1,#0xf0]
        0x00000e72:    8b20         .      LDRH     r0,[r4,#0x18]
        0x00000e74:    6961        ai      LDR      r1,[r4,#0x14]
        0x00000e76:    4401        .D      ADD      r1,r1,r0
        0x00000e78:    1c40        @.      ADDS     r0,r0,#1
        0x00000e7a:    8320         .      STRH     r0,[r4,#0x18]
        0x00000e7c:    f88150f0    ...P    STRB     r5,[r1,#0xf0]
        0x00000e80:    bd70        p.      POP      {r4-r6,pc}
    dhcp_option_short
        0x00000e82:    b570        p.      PUSH     {r4-r6,lr}
        0x00000e84:    4604        .F      MOV      r4,r0
        0x00000e86:    8b00        ..      LDRH     r0,[r0,#0x18]
        0x00000e88:    460d        .F      MOV      r5,r1
        0x00000e8a:    1c80        ..      ADDS     r0,r0,#2
        0x00000e8c:    2844        D(      CMP      r0,#0x44
        0x00000e8e:    d907        ..      BLS      0xea0 ; dhcp_option_short + 30
        0x00000e90:    49f2        .I      LDR      r1,[pc,#968] ; [0x125c] = 0x9abc
        0x00000e92:    a38d        ..      ADR      r3,{pc}+0x236 ; 0x10c8
        0x00000e94:    f44f62a1    O..b    MOV      r2,#0x508
        0x00000e98:    3148        H1      ADDS     r1,r1,#0x48
        0x00000e9a:    a09f        ..      ADR      r0,{pc}+0x27e ; 0x1118
        0x00000e9c:    f008fc7c    ..|.    BL       __0printf$5 ; 0x9798
        0x00000ea0:    8b20         .      LDRH     r0,[r4,#0x18]
        0x00000ea2:    6962        bi      LDR      r2,[r4,#0x14]
        0x00000ea4:    0a29        ).      LSRS     r1,r5,#8
        0x00000ea6:    4402        .D      ADD      r2,r2,r0
        0x00000ea8:    1c40        @.      ADDS     r0,r0,#1
        0x00000eaa:    8320         .      STRH     r0,[r4,#0x18]
        0x00000eac:    f88210f0    ....    STRB     r1,[r2,#0xf0]
        0x00000eb0:    8b20         .      LDRH     r0,[r4,#0x18]
        0x00000eb2:    6961        ai      LDR      r1,[r4,#0x14]
        0x00000eb4:    4401        .D      ADD      r1,r1,r0
        0x00000eb6:    1c40        @.      ADDS     r0,r0,#1
        0x00000eb8:    8320         .      STRH     r0,[r4,#0x18]
        0x00000eba:    f88150f0    ...P    STRB     r5,[r1,#0xf0]
        0x00000ebe:    bd70        p.      POP      {r4-r6,pc}
    dhcp_create_msg
        0x00000ec0:    e92d41f0    -..A    PUSH     {r4-r8,lr}
        0x00000ec4:    0005        ..      MOVS     r5,r0
        0x00000ec6:    460c        .F      MOV      r4,r1
        0x00000ec8:    4616        .F      MOV      r6,r2
        0x00000eca:    d029        ).      BEQ      0xf20 ; dhcp_create_msg + 96
        0x00000ecc:    b39c        ..      CBZ      r4,0xf36 ; dhcp_create_msg + 118
        0x00000ece:    6920         i      LDR      r0,[r4,#0x10]
        0x00000ed0:    b130        0.      CBZ      r0,0xee0 ; dhcp_create_msg + 32
        0x00000ed2:    a37d        }.      ADR      r3,{pc}+0x1f6 ; 0x10c8
        0x00000ed4:    f240627e    @.~b    MOV      r2,#0x67e
        0x00000ed8:    a1e1        ..      ADR      r1,{pc}+0x388 ; 0x1260
        0x00000eda:    a08f        ..      ADR      r0,{pc}+0x23e ; 0x1118
        0x00000edc:    f008fc5c    ..\.    BL       __0printf$5 ; 0x9798
        0x00000ee0:    6960        `i      LDR      r0,[r4,#0x14]
        0x00000ee2:    b130        0.      CBZ      r0,0xef2 ; dhcp_create_msg + 50
        0x00000ee4:    a378        x.      ADR      r3,{pc}+0x1e4 ; 0x10c8
        0x00000ee6:    f240627f    @..b    MOV      r2,#0x67f
        0x00000eea:    a1e7        ..      ADR      r1,{pc}+0x39e ; 0x1288
        0x00000eec:    a08a        ..      ADR      r0,{pc}+0x22c ; 0x1118
        0x00000eee:    f008fc53    ..S.    BL       __0printf$5 ; 0x9798
        0x00000ef2:    2200        ."      MOVS     r2,#0
        0x00000ef4:    f44f779a    O..w    MOV      r7,#0x134
        0x00000ef8:    4639        9F      MOV      r1,r7
        0x00000efa:    4610        .F      MOV      r0,r2
        0x00000efc:    f002f98e    ....    BL       pbuf_alloc ; 0x321c
        0x00000f00:    6120         a      STR      r0,[r4,#0x10]
        0x00000f02:    b318        ..      CBZ      r0,0xf4c ; dhcp_create_msg + 140
        0x00000f04:    8940        @.      LDRH     r0,[r0,#0xa]
        0x00000f06:    42b8        .B      CMP      r0,r7
        0x00000f08:    d206        ..      BCS      0xf18 ; dhcp_create_msg + 88
        0x00000f0a:    a36f        o.      ADR      r3,{pc}+0x1be ; 0x10c8
        0x00000f0c:    f2406286    @..b    MOV      r2,#0x686
        0x00000f10:    a1e7        ..      ADR      r1,{pc}+0x3a0 ; 0x12b0
        0x00000f12:    a081        ..      ADR      r0,{pc}+0x206 ; 0x1118
        0x00000f14:    f008fc40    ..@.    BL       __0printf$5 ; 0x9798
        0x00000f18:    7b61        a{      LDRB     r1,[r4,#0xd]
        0x00000f1a:    48f5        .H      LDR      r0,[pc,#980] ; [0x12f0] = 0x20000050
        0x00000f1c:    b1c9        ..      CBZ      r1,0xf52 ; dhcp_create_msg + 146
        0x00000f1e:    e01b        ..      B        0xf58 ; dhcp_create_msg + 152
        0x00000f20:    a369        i.      ADR      r3,{pc}+0x1a8 ; 0x10c8
        0x00000f22:    f240627c    @.|b    MOV      r2,#0x67c
        0x00000f26:    a1f3        ..      ADR      r1,{pc}+0x3ce ; 0x12f4
        0x00000f28:    a07b        {.      ADR      r0,{pc}+0x1f0 ; 0x1118
        0x00000f2a:    f008fc35    ..5.    BL       __0printf$5 ; 0x9798
        0x00000f2e:    f06f000d    o...    MVN      r0,#0xd
        0x00000f32:    e8bd81f0    ....    POP      {r4-r8,pc}
        0x00000f36:    e7ff        ..      B        0xf38 ; dhcp_create_msg + 120
        0x00000f38:    a363        c.      ADR      r3,{pc}+0x190 ; 0x10c8
        0x00000f3a:    f240627d    @.}b    MOV      r2,#0x67d
        0x00000f3e:    a1f5        ..      ADR      r1,{pc}+0x3d6 ; 0x1314
        0x00000f40:    a075        u.      ADR      r0,{pc}+0x1d8 ; 0x1118
        0x00000f42:    f008fc29    ..).    BL       __0printf$5 ; 0x9798
        0x00000f46:    f06f0005    o...    MVN      r0,#5
        0x00000f4a:    e7f2        ..      B        0xf32 ; dhcp_create_msg + 114
        0x00000f4c:    f04f30ff    O..0    MOV      r0,#0xffffffff
        0x00000f50:    e7ef        ..      B        0xf32 ; dhcp_create_msg + 114
        0x00000f52:    6801        .h      LDR      r1,[r0,#0]
        0x00000f54:    1c49        I.      ADDS     r1,r1,#1
        0x00000f56:    6001        .`      STR      r1,[r0,#0]
        0x00000f58:    6800        .h      LDR      r0,[r0,#0]
        0x00000f5a:    6020         `      STR      r0,[r4,#0]
        0x00000f5c:    6920         i      LDR      r0,[r4,#0x10]
        0x00000f5e:    2101        .!      MOVS     r1,#1
        0x00000f60:    2700        .'      MOVS     r7,#0
        0x00000f62:    6840        @h      LDR      r0,[r0,#4]
        0x00000f64:    6160        `a      STR      r0,[r4,#0x14]
        0x00000f66:    7001        .p      STRB     r1,[r0,#0]
        0x00000f68:    6960        `i      LDR      r0,[r4,#0x14]
        0x00000f6a:    7041        Ap      STRB     r1,[r0,#1]
        0x00000f6c:    6961        ai      LDR      r1,[r4,#0x14]
        0x00000f6e:    f8950026    ..&.    LDRB     r0,[r5,#0x26]
        0x00000f72:    7088        .p      STRB     r0,[r1,#2]
        0x00000f74:    6960        `i      LDR      r0,[r4,#0x14]
        0x00000f76:    70c7        .p      STRB     r7,[r0,#3]
        0x00000f78:    6820         h      LDR      r0,[r4,#0]
        0x00000f7a:    f7fffeef    ....    BL       lwip_htonl ; 0xd5c
        0x00000f7e:    6961        ai      LDR      r1,[r4,#0x14]
        0x00000f80:    2e08        ..      CMP      r6,#8
        0x00000f82:    6048        H`      STR      r0,[r1,#4]
        0x00000f84:    6960        `i      LDR      r0,[r4,#0x14]
        0x00000f86:    8107        ..      STRH     r7,[r0,#8]
        0x00000f88:    6960        `i      LDR      r0,[r4,#0x14]
        0x00000f8a:    8147        G.      STRH     r7,[r0,#0xa]
        0x00000f8c:    6960        `i      LDR      r0,[r4,#0x14]
        0x00000f8e:    60c7        .`      STR      r7,[r0,#0xc]
        0x00000f90:    d008        ..      BEQ      0xfa4 ; dhcp_create_msg + 228
        0x00000f92:    2e04        ..      CMP      r6,#4
        0x00000f94:    d006        ..      BEQ      0xfa4 ; dhcp_create_msg + 228
        0x00000f96:    2e03        ..      CMP      r6,#3
        0x00000f98:    d107        ..      BNE      0xfaa ; dhcp_create_msg + 234
        0x00000f9a:    7b20         {      LDRB     r0,[r4,#0xc]
        0x00000f9c:    2805        .(      CMP      r0,#5
        0x00000f9e:    d001        ..      BEQ      0xfa4 ; dhcp_create_msg + 228
        0x00000fa0:    2804        .(      CMP      r0,#4
        0x00000fa2:    d102        ..      BNE      0xfaa ; dhcp_create_msg + 234
        0x00000fa4:    6961        ai      LDR      r1,[r4,#0x14]
        0x00000fa6:    6868        hh      LDR      r0,[r5,#4]
        0x00000fa8:    60c8        .`      STR      r0,[r1,#0xc]
        0x00000faa:    6960        `i      LDR      r0,[r4,#0x14]
        0x00000fac:    6107        .a      STR      r7,[r0,#0x10]
        0x00000fae:    6960        `i      LDR      r0,[r4,#0x14]
        0x00000fb0:    6147        Ga      STR      r7,[r0,#0x14]
        0x00000fb2:    6960        `i      LDR      r0,[r4,#0x14]
        0x00000fb4:    6187        .a      STR      r7,[r0,#0x18]
        0x00000fb6:    2000        .       MOVS     r0,#0
        0x00000fb8:    f8952026    ..&     LDRB     r2,[r5,#0x26]
        0x00000fbc:    4639        9F      MOV      r1,r7
        0x00000fbe:    4282        .B      CMP      r2,r0
        0x00000fc0:    d902        ..      BLS      0xfc8 ; dhcp_create_msg + 264
        0x00000fc2:    1829        ).      ADDS     r1,r5,r0
        0x00000fc4:    f8911027    ..'.    LDRB     r1,[r1,#0x27]
        0x00000fc8:    f100021c    ....    ADD      r2,r0,#0x1c
        0x00000fcc:    6963        ci      LDR      r3,[r4,#0x14]
        0x00000fce:    1c40        @.      ADDS     r0,r0,#1
        0x00000fd0:    b280        ..      UXTH     r0,r0
        0x00000fd2:    5499        .T      STRB     r1,[r3,r2]
        0x00000fd4:    2810        .(      CMP      r0,#0x10
        0x00000fd6:    d3ef        ..      BCC      0xfb8 ; dhcp_create_msg + 248
        0x00000fd8:    2000        .       MOVS     r0,#0
        0x00000fda:    f100022c    ..,.    ADD      r2,r0,#0x2c
        0x00000fde:    6961        ai      LDR      r1,[r4,#0x14]
        0x00000fe0:    1c40        @.      ADDS     r0,r0,#1
        0x00000fe2:    b280        ..      UXTH     r0,r0
        0x00000fe4:    548f        .T      STRB     r7,[r1,r2]
        0x00000fe6:    2840        @(      CMP      r0,#0x40
        0x00000fe8:    d3f7        ..      BCC      0xfda ; dhcp_create_msg + 282
        0x00000fea:    2000        .       MOVS     r0,#0
        0x00000fec:    f100016c    ..l.    ADD      r1,r0,#0x6c
        0x00000ff0:    6962        bi      LDR      r2,[r4,#0x14]
        0x00000ff2:    1c40        @.      ADDS     r0,r0,#1
        0x00000ff4:    b280        ..      UXTH     r0,r0
        0x00000ff6:    5457        WT      STRB     r7,[r2,r1]
        0x00000ff8:    2880        .(      CMP      r0,#0x80
        0x00000ffa:    d3f7        ..      BCC      0xfec ; dhcp_create_msg + 300
        0x00000ffc:    6961        ai      LDR      r1,[r4,#0x14]
        0x00000ffe:    48cd        .H      LDR      r0,[pc,#820] ; [0x1334] = 0x63538263
        0x00001000:    f8c100ec    ....    STR      r0,[r1,#0xec]
        0x00001004:    8327        '.      STRH     r7,[r4,#0x18]
        0x00001006:    2000        .       MOVS     r0,#0
        0x00001008:    6962        bi      LDR      r2,[r4,#0x14]
        0x0000100a:    f10001f0    ....    ADD      r1,r0,#0xf0
        0x0000100e:    5450        PT      STRB     r0,[r2,r1]
        0x00001010:    1c40        @.      ADDS     r0,r0,#1
        0x00001012:    b280        ..      UXTH     r0,r0
        0x00001014:    2844        D(      CMP      r0,#0x44
        0x00001016:    d3f7        ..      BCC      0x1008 ; dhcp_create_msg + 328
        0x00001018:    2201        ."      MOVS     r2,#1
        0x0000101a:    2135        5!      MOVS     r1,#0x35
        0x0000101c:    4620         F      MOV      r0,r4
        0x0000101e:    f7ffff11    ....    BL       dhcp_option ; 0xe44
        0x00001022:    4631        1F      MOV      r1,r6
        0x00001024:    4620         F      MOV      r0,r4
        0x00001026:    f7fffef8    ....    BL       dhcp_option_byte ; 0xe1a
        0x0000102a:    2000        .       MOVS     r0,#0
        0x0000102c:    e781        ..      B        0xf32 ; dhcp_create_msg + 114
    dhcp_discover
        0x0000102e:    b5f8        ..      PUSH     {r3-r7,lr}
        0x00001030:    6a04        .j      LDR      r4,[r0,#0x20]
        0x00001032:    4605        .F      MOV      r5,r0
        0x00001034:    2000        .       MOVS     r0,#0
        0x00001036:    6260        `b      STR      r0,[r4,#0x24]
        0x00001038:    2106        .!      MOVS     r1,#6
        0x0000103a:    4620         F      MOV      r0,r4
        0x0000103c:    f001f879    ..y.    BL       dhcp_set_state ; 0x2132
        0x00001040:    2201        ."      MOVS     r2,#1
        0x00001042:    4621        !F      MOV      r1,r4
        0x00001044:    4628        (F      MOV      r0,r5
        0x00001046:    f7ffff3b    ..;.    BL       dhcp_create_msg ; 0xec0
        0x0000104a:    0006        ..      MOVS     r6,r0
        0x0000104c:    d130        0.      BNE      0x10b0 ; dhcp_discover + 130
        0x0000104e:    2202        ."      MOVS     r2,#2
        0x00001050:    2139        9!      MOVS     r1,#0x39
        0x00001052:    4620         F      MOV      r0,r4
        0x00001054:    f7fffef6    ....    BL       dhcp_option ; 0xe44
        0x00001058:    8ca9        ..      LDRH     r1,[r5,#0x24]
        0x0000105a:    4620         F      MOV      r0,r4
        0x0000105c:    f7ffff11    ....    BL       dhcp_option_short ; 0xe82
        0x00001060:    2204        ."      MOVS     r2,#4
        0x00001062:    2137        7!      MOVS     r1,#0x37
        0x00001064:    4620         F      MOV      r0,r4
        0x00001066:    f7fffeed    ....    BL       dhcp_option ; 0xe44
        0x0000106a:    2101        .!      MOVS     r1,#1
        0x0000106c:    4620         F      MOV      r0,r4
        0x0000106e:    f7fffed4    ....    BL       dhcp_option_byte ; 0xe1a
        0x00001072:    2103        .!      MOVS     r1,#3
        0x00001074:    4620         F      MOV      r0,r4
        0x00001076:    f7fffed0    ....    BL       dhcp_option_byte ; 0xe1a
        0x0000107a:    211c        .!      MOVS     r1,#0x1c
        0x0000107c:    4620         F      MOV      r0,r4
        0x0000107e:    f7fffecc    ....    BL       dhcp_option_byte ; 0xe1a
        0x00001082:    2106        .!      MOVS     r1,#6
        0x00001084:    4620         F      MOV      r0,r4
        0x00001086:    f7fffec8    ....    BL       dhcp_option_byte ; 0xe1a
        0x0000108a:    4620         F      MOV      r0,r4
        0x0000108c:    f7fffe91    ....    BL       dhcp_option_trailer ; 0xdb2
        0x00001090:    8b20         .      LDRH     r0,[r4,#0x18]
        0x00001092:    30f0        .0      ADDS     r0,r0,#0xf0
        0x00001094:    b281        ..      UXTH     r1,r0
        0x00001096:    6920         i      LDR      r0,[r4,#0x10]
        0x00001098:    f002f9aa    ....    BL       pbuf_realloc ; 0x33f0
        0x0000109c:    9500        ..      STR      r5,[sp,#0]
        0x0000109e:    2343        C#      MOVS     r3,#0x43
        0x000010a0:    4aa5        .J      LDR      r2,[pc,#660] ; [0x1338] = 0x9c14
        0x000010a2:    6921        !i      LDR      r1,[r4,#0x10]
        0x000010a4:    6860        `h      LDR      r0,[r4,#4]
        0x000010a6:    f006f890    ....    BL       udp_sendto_if ; 0x71ca
        0x000010aa:    4620         F      MOV      r0,r4
        0x000010ac:    f7fffe5a    ..Z.    BL       dhcp_delete_msg ; 0xd64
        0x000010b0:    7b60        `{      LDRB     r0,[r4,#0xd]
        0x000010b2:    213c        <!      MOVS     r1,#0x3c
        0x000010b4:    1c40        @.      ADDS     r0,r0,#1
        0x000010b6:    b2c0        ..      UXTB     r0,r0
        0x000010b8:    7360        `s      STRB     r0,[r4,#0xd]
        0x000010ba:    2806        .(      CMP      r0,#6
        0x000010bc:    d201        ..      BCS      0x10c2 ; dhcp_discover + 148
        0x000010be:    2101        .!      MOVS     r1,#1
        0x000010c0:    4081        .@      LSLS     r1,r1,r0
        0x000010c2:    f44f707a    O.zp    MOV      r0,#0x3e8
        0x000010c6:    e139        9.      B        0x133c ; dhcp_discover + 782
    $d
        0x000010c8:    2e5c2e2e    ..\.    DCD    777793070
        0x000010cc:    2e2e5c2e    .\..    DCD    774790190
        0x000010d0:    6968545c    \Thi    DCD    1768445020
        0x000010d4:    61506472    rdPa    DCD    1632658546
        0x000010d8:    5c797472    rty\    DCD    1551463538
        0x000010dc:    7069776c    lwip    DCD    1885960044
        0x000010e0:    342e312d    -1.4    DCD    875442477
        0x000010e4:    735c312e    .1\s    DCD    1935421742
        0x000010e8:    635c6372    rc\c    DCD    1666999154
        0x000010ec:    5c65726f    ore\    DCD    1550152303
        0x000010f0:    70636864    dhcp    DCD    1885562980
        0x000010f4:    0000632e    .c..    DCD    25390
        0x000010f8:    70636864    dhcp    DCD    1885562980
        0x000010fc:    6c65645f    _del    DCD    1818584159
        0x00001100:    5f657465    ete_    DCD    1600484453
        0x00001104:    3a67736d    msg:    DCD    979858285
        0x00001108:    63686420     dhc    DCD    1667785760
        0x0000110c:    3d212070    p !=    DCD    1025581168
        0x00001110:    4c554e20     NUL    DCD    1280658976
        0x00001114:    0000004c    L...    DCD    76
        0x00001118:    65737341    Asse    DCD    1702064961
        0x0000111c:    6f697472    rtio    DCD    1869182066
        0x00001120:    2522206e    n "%    DCD    622993518
        0x00001124:    66202273    s" f    DCD    1713382003
        0x00001128:    656c6961    aile    DCD    1701603681
        0x0000112c:    74612064    d at    DCD    1952522340
        0x00001130:    6e696c20     lin    DCD    1852402720
        0x00001134:    64252065    e %d    DCD    1680154725
        0x00001138:    206e6920     in     DCD    544106784
        0x0000113c:    000a7325    %s..    DCD    684837
        0x00001140:    70636864    dhcp    DCD    1885562980
        0x00001144:    6c65645f    _del    DCD    1818584159
        0x00001148:    5f657465    ete_    DCD    1600484453
        0x0000114c:    3a67736d    msg:    DCD    979858285
        0x00001150:    63686420     dhc    DCD    1667785760
        0x00001154:    703e2d70    p->p    DCD    1883123056
        0x00001158:    74756f5f    _out    DCD    1953853279
        0x0000115c:    203d2120     !=     DCD    540877088
        0x00001160:    4c4c554e    NULL    DCD    1280070990
        0x00001164:    00000000    ....    DCD    0
        0x00001168:    70636864    dhcp    DCD    1885562980
        0x0000116c:    6c65645f    _del    DCD    1818584159
        0x00001170:    5f657465    ete_    DCD    1600484453
        0x00001174:    3a67736d    msg:    DCD    979858285
        0x00001178:    63686420     dhc    DCD    1667785760
        0x0000117c:    6d3e2d70    p->m    DCD    1832791408
        0x00001180:    6f5f6773    sg_o    DCD    1868523379
        0x00001184:    21207475    ut !    DCD    555775093
        0x00001188:    554e203d    = NU    DCD    1431183421
        0x0000118c:    00004c4c    LL..    DCD    19532
        0x00001190:    70636864    dhcp    DCD    1885562980
        0x00001194:    74706f5f    _opt    DCD    1953525599
        0x00001198:    5f6e6f69    ion_    DCD    1601073001
        0x0000119c:    69617274    trai    DCD    1767993972
        0x000011a0:    3a72656c    ler:    DCD    980575596
        0x000011a4:    63686420     dhc    DCD    1667785760
        0x000011a8:    3d212070    p !=    DCD    1025581168
        0x000011ac:    4c554e20     NUL    DCD    1280658976
        0x000011b0:    0000004c    L...    DCD    76
        0x000011b4:    70636864    dhcp    DCD    1885562980
        0x000011b8:    74706f5f    _opt    DCD    1953525599
        0x000011bc:    5f6e6f69    ion_    DCD    1601073001
        0x000011c0:    69617274    trai    DCD    1767993972
        0x000011c4:    3a72656c    ler:    DCD    980575596
        0x000011c8:    63686420     dhc    DCD    1667785760
        0x000011cc:    6d3e2d70    p->m    DCD    1832791408
        0x000011d0:    6f5f6773    sg_o    DCD    1868523379
        0x000011d4:    21207475    ut !    DCD    555775093
        0x000011d8:    554e203d    = NU    DCD    1431183421
        0x000011dc:    000a4c4c    LL..    DCD    674892
        0x000011e0:    70636864    dhcp    DCD    1885562980
        0x000011e4:    74706f5f    _opt    DCD    1953525599
        0x000011e8:    5f6e6f69    ion_    DCD    1601073001
        0x000011ec:    69617274    trai    DCD    1767993972
        0x000011f0:    3a72656c    ler:    DCD    980575596
        0x000011f4:    63686420     dhc    DCD    1667785760
        0x000011f8:    6f3e2d70    p->o    DCD    1866345840
        0x000011fc:    6f697470    ptio    DCD    1869182064
        0x00001200:    6f5f736e    ns_o    DCD    1868526446
        0x00001204:    6c5f7475    ut_l    DCD    1818195061
        0x00001208:    3c206e65    en <    DCD    1008758373
        0x0000120c:    43484420     DHC    DCD    1128809504
        0x00001210:    504f5f50    P_OP    DCD    1347379024
        0x00001214:    4e4f4954    TION    DCD    1313818964
        0x00001218:    454c5f53    S_LE    DCD    1162633043
        0x0000121c:    00000a4e    N...    DCD    2638
        0x00001220:    70636864    dhcp    DCD    1885562980
        0x00001224:    74706f5f    _opt    DCD    1953525599
        0x00001228:    5f6e6f69    ion_    DCD    1601073001
        0x0000122c:    65747962    byte    DCD    1702132066
        0x00001230:    6864203a    : dh    DCD    1751392314
        0x00001234:    3e2d7063    cp->    DCD    1043165283
        0x00001238:    6974706f    opti    DCD    1769238639
        0x0000123c:    5f736e6f    ons_    DCD    1601400431
        0x00001240:    5f74756f    out_    DCD    1601467759
        0x00001244:    206e656c    len     DCD    544105836
        0x00001248:    4844203c    < DH    DCD    1212424252
        0x0000124c:    4f5f5043    CP_O    DCD    1331646531
        0x00001250:    4f495450    PTIO    DCD    1330205776
        0x00001254:    4c5f534e    NS_L    DCD    1281315662
        0x00001258:    00004e45    EN..    DCD    20037
        0x0000125c:    00009abc    ....    DCD    39612
        0x00001260:    70636864    dhcp    DCD    1885562980
        0x00001264:    6572635f    _cre    DCD    1701995359
        0x00001268:    5f657461    ate_    DCD    1600484449
        0x0000126c:    3a67736d    msg:    DCD    979858285
        0x00001270:    63686420     dhc    DCD    1667785760
        0x00001274:    703e2d70    p->p    DCD    1883123056
        0x00001278:    74756f5f    _out    DCD    1953853279
        0x0000127c:    203d3d20     ==     DCD    540884256
        0x00001280:    4c4c554e    NULL    DCD    1280070990
        0x00001284:    00000000    ....    DCD    0
        0x00001288:    70636864    dhcp    DCD    1885562980
        0x0000128c:    6572635f    _cre    DCD    1701995359
        0x00001290:    5f657461    ate_    DCD    1600484449
        0x00001294:    3a67736d    msg:    DCD    979858285
        0x00001298:    63686420     dhc    DCD    1667785760
        0x0000129c:    6d3e2d70    p->m    DCD    1832791408
        0x000012a0:    6f5f6773    sg_o    DCD    1868523379
        0x000012a4:    3d207475    ut =    DCD    1025537141
        0x000012a8:    554e203d    = NU    DCD    1431183421
        0x000012ac:    00004c4c    LL..    DCD    19532
        0x000012b0:    70636864    dhcp    DCD    1885562980
        0x000012b4:    6572635f    _cre    DCD    1701995359
        0x000012b8:    5f657461    ate_    DCD    1600484449
        0x000012bc:    3a67736d    msg:    DCD    979858285
        0x000012c0:    65686320     che    DCD    1701339936
        0x000012c4:    74206b63    ck t    DCD    1948281699
        0x000012c8:    20746168    hat     DCD    544498024
        0x000012cc:    73726966    firs    DCD    1936877926
        0x000012d0:    62702074    t pb    DCD    1651515508
        0x000012d4:    63206675    uf c    DCD    1663067765
        0x000012d8:    68206e61    an h    DCD    1746955873
        0x000012dc:    20646c6f    old     DCD    543452271
        0x000012e0:    75727473    stru    DCD    1970435187
        0x000012e4:    64207463    ct d    DCD    1679848547
        0x000012e8:    5f706368    hcp_    DCD    1601201000
        0x000012ec:    0067736d    msg.    DCD    6779757
        0x000012f0:    20000050    P..     DCD    536870992
        0x000012f4:    70636864    dhcp    DCD    1885562980
        0x000012f8:    6572635f    _cre    DCD    1701995359
        0x000012fc:    5f657461    ate_    DCD    1600484449
        0x00001300:    3a67736d    msg:    DCD    979858285
        0x00001304:    74656e20     net    DCD    1952804384
        0x00001308:    21206669    if !    DCD    555771497
        0x0000130c:    554e203d    = NU    DCD    1431183421
        0x00001310:    00004c4c    LL..    DCD    19532
        0x00001314:    70636864    dhcp    DCD    1885562980
        0x00001318:    6572635f    _cre    DCD    1701995359
        0x0000131c:    5f657461    ate_    DCD    1600484449
        0x00001320:    3a67736d    msg:    DCD    979858285
        0x00001324:    63686420     dhc    DCD    1667785760
        0x00001328:    3d212070    p !=    DCD    1025581168
        0x0000132c:    4c554e20     NUL    DCD    1280658976
        0x00001330:    0000004c    L...    DCD    76
        0x00001334:    63538263    c.Sc    DCD    1666417251
        0x00001338:    00009c14    ....    DCD    39956
    $t
        0x0000133c:    4341        AC      MULS     r1,r0,r1
        0x0000133e:    b288        ..      UXTH     r0,r1
        0x00001340:    f20010f3    ....    ADD      r0,r0,#0x1f3
        0x00001344:    f44f71fa    O..q    MOV      r1,#0x1f4
        0x00001348:    fbb0f0f1    ....    UDIV     r0,r0,r1
        0x0000134c:    8360        `.      STRH     r0,[r4,#0x1a]
        0x0000134e:    4630        0F      MOV      r0,r6
        0x00001350:    bdf8        ..      POP      {r3-r7,pc}
    dhcp_check
        0x00001352:    b570        p.      PUSH     {r4-r6,lr}
        0x00001354:    6a04        .j      LDR      r4,[r0,#0x20]
        0x00001356:    4605        .F      MOV      r5,r0
        0x00001358:    2108        .!      MOVS     r1,#8
        0x0000135a:    4620         F      MOV      r0,r4
        0x0000135c:    f000fee9    ....    BL       dhcp_set_state ; 0x2132
        0x00001360:    2200        ."      MOVS     r2,#0
        0x00001362:    f1040124    ..$.    ADD      r1,r4,#0x24
        0x00001366:    4628        (F      MOV      r0,r5
        0x00001368:    f007fcb6    ....    BL       etharp_query ; 0x8cd8
        0x0000136c:    7b60        `{      LDRB     r0,[r4,#0xd]
        0x0000136e:    1c40        @.      ADDS     r0,r0,#1
        0x00001370:    7360        `s      STRB     r0,[r4,#0xd]
        0x00001372:    2001        .       MOVS     r0,#1
        0x00001374:    8360        `.      STRH     r0,[r4,#0x1a]
        0x00001376:    bd70        p.      POP      {r4-r6,pc}
    dhcp_option_long
        0x00001378:    b570        p.      PUSH     {r4-r6,lr}
        0x0000137a:    4604        .F      MOV      r4,r0
        0x0000137c:    8b00        ..      LDRH     r0,[r0,#0x18]
        0x0000137e:    460d        .F      MOV      r5,r1
        0x00001380:    1d00        ..      ADDS     r0,r0,#4
        0x00001382:    2844        D(      CMP      r0,#0x44
        0x00001384:    d908        ..      BLS      0x1398 ; dhcp_option_long + 32
        0x00001386:    f2af23c0    ...#    ADR      r3,{pc}-0x2be ; 0x10c8
        0x0000138a:    f44f62a2    O..b    MOV      r2,#0x510
        0x0000138e:    a1fa        ..      ADR      r1,{pc}+0x3ea ; 0x1778
        0x00001390:    f2af207c    ..|     ADR      r0,{pc}-0x278 ; 0x1118
        0x00001394:    f008fa00    ....    BL       __0printf$5 ; 0x9798
        0x00001398:    8b20         .      LDRH     r0,[r4,#0x18]
        0x0000139a:    6962        bi      LDR      r2,[r4,#0x14]
        0x0000139c:    0e29        ).      LSRS     r1,r5,#24
        0x0000139e:    4402        .D      ADD      r2,r2,r0
        0x000013a0:    1c40        @.      ADDS     r0,r0,#1
        0x000013a2:    8320         .      STRH     r0,[r4,#0x18]
        0x000013a4:    f88210f0    ....    STRB     r1,[r2,#0xf0]
        0x000013a8:    8b20         .      LDRH     r0,[r4,#0x18]
        0x000013aa:    6962        bi      LDR      r2,[r4,#0x14]
        0x000013ac:    0c29        ).      LSRS     r1,r5,#16
        0x000013ae:    4402        .D      ADD      r2,r2,r0
        0x000013b0:    1c40        @.      ADDS     r0,r0,#1
        0x000013b2:    8320         .      STRH     r0,[r4,#0x18]
        0x000013b4:    f88210f0    ....    STRB     r1,[r2,#0xf0]
        0x000013b8:    8b20         .      LDRH     r0,[r4,#0x18]
        0x000013ba:    6962        bi      LDR      r2,[r4,#0x14]
        0x000013bc:    0a29        ).      LSRS     r1,r5,#8
        0x000013be:    4402        .D      ADD      r2,r2,r0
        0x000013c0:    1c40        @.      ADDS     r0,r0,#1
        0x000013c2:    8320         .      STRH     r0,[r4,#0x18]
        0x000013c4:    f88210f0    ....    STRB     r1,[r2,#0xf0]
        0x000013c8:    8b20         .      LDRH     r0,[r4,#0x18]
        0x000013ca:    6961        ai      LDR      r1,[r4,#0x14]
        0x000013cc:    4401        .D      ADD      r1,r1,r0
        0x000013ce:    1c40        @.      ADDS     r0,r0,#1
        0x000013d0:    8320         .      STRH     r0,[r4,#0x18]
        0x000013d2:    f88150f0    ...P    STRB     r5,[r1,#0xf0]
        0x000013d6:    bd70        p.      POP      {r4-r6,pc}
    dhcp_select
        0x000013d8:    b5f8        ..      PUSH     {r3-r7,lr}
        0x000013da:    6a04        .j      LDR      r4,[r0,#0x20]
        0x000013dc:    4605        .F      MOV      r5,r0
        0x000013de:    2101        .!      MOVS     r1,#1
        0x000013e0:    4620         F      MOV      r0,r4
        0x000013e2:    f000fea6    ....    BL       dhcp_set_state ; 0x2132
        0x000013e6:    2203        ."      MOVS     r2,#3
        0x000013e8:    4621        !F      MOV      r1,r4
        0x000013ea:    4628        (F      MOV      r0,r5
        0x000013ec:    f7fffd68    ..h.    BL       dhcp_create_msg ; 0xec0
        0x000013f0:    0006        ..      MOVS     r6,r0
        0x000013f2:    d148        H.      BNE      0x1486 ; dhcp_select + 174
        0x000013f4:    2202        ."      MOVS     r2,#2
        0x000013f6:    2139        9!      MOVS     r1,#0x39
        0x000013f8:    4620         F      MOV      r0,r4
        0x000013fa:    f7fffd23    ..#.    BL       dhcp_option ; 0xe44
        0x000013fe:    8ca9        ..      LDRH     r1,[r5,#0x24]
        0x00001400:    4620         F      MOV      r0,r4
        0x00001402:    f7fffd3e    ..>.    BL       dhcp_option_short ; 0xe82
        0x00001406:    2204        ."      MOVS     r2,#4
        0x00001408:    2132        2!      MOVS     r1,#0x32
        0x0000140a:    4620         F      MOV      r0,r4
        0x0000140c:    f7fffd1a    ....    BL       dhcp_option ; 0xe44
        0x00001410:    6a60        `j      LDR      r0,[r4,#0x24]
        0x00001412:    f7fffca5    ....    BL       lwip_ntohl ; 0xd60
        0x00001416:    4601        .F      MOV      r1,r0
        0x00001418:    4620         F      MOV      r0,r4
        0x0000141a:    f7ffffad    ....    BL       dhcp_option_long ; 0x1378
        0x0000141e:    2204        ."      MOVS     r2,#4
        0x00001420:    2136        6!      MOVS     r1,#0x36
        0x00001422:    4620         F      MOV      r0,r4
        0x00001424:    f7fffd0e    ....    BL       dhcp_option ; 0xe44
        0x00001428:    6a20         j      LDR      r0,[r4,#0x20]
        0x0000142a:    f7fffc99    ....    BL       lwip_ntohl ; 0xd60
        0x0000142e:    4601        .F      MOV      r1,r0
        0x00001430:    4620         F      MOV      r0,r4
        0x00001432:    f7ffffa1    ....    BL       dhcp_option_long ; 0x1378
        0x00001436:    2204        ."      MOVS     r2,#4
        0x00001438:    2137        7!      MOVS     r1,#0x37
        0x0000143a:    4620         F      MOV      r0,r4
        0x0000143c:    f7fffd02    ....    BL       dhcp_option ; 0xe44
        0x00001440:    2101        .!      MOVS     r1,#1
        0x00001442:    4620         F      MOV      r0,r4
        0x00001444:    f7fffce9    ....    BL       dhcp_option_byte ; 0xe1a
        0x00001448:    2103        .!      MOVS     r1,#3
        0x0000144a:    4620         F      MOV      r0,r4
        0x0000144c:    f7fffce5    ....    BL       dhcp_option_byte ; 0xe1a
        0x00001450:    211c        .!      MOVS     r1,#0x1c
        0x00001452:    4620         F      MOV      r0,r4
        0x00001454:    f7fffce1    ....    BL       dhcp_option_byte ; 0xe1a
        0x00001458:    2106        .!      MOVS     r1,#6
        0x0000145a:    4620         F      MOV      r0,r4
        0x0000145c:    f7fffcdd    ....    BL       dhcp_option_byte ; 0xe1a
        0x00001460:    4620         F      MOV      r0,r4
        0x00001462:    f7fffca6    ....    BL       dhcp_option_trailer ; 0xdb2
        0x00001466:    8b20         .      LDRH     r0,[r4,#0x18]
        0x00001468:    30f0        .0      ADDS     r0,r0,#0xf0
        0x0000146a:    b281        ..      UXTH     r1,r0
        0x0000146c:    6920         i      LDR      r0,[r4,#0x10]
        0x0000146e:    f001ffbf    ....    BL       pbuf_realloc ; 0x33f0
        0x00001472:    9500        ..      STR      r5,[sp,#0]
        0x00001474:    2343        C#      MOVS     r3,#0x43
        0x00001476:    4ad0        .J      LDR      r2,[pc,#832] ; [0x17b8] = 0x9c14
        0x00001478:    6921        !i      LDR      r1,[r4,#0x10]
        0x0000147a:    6860        `h      LDR      r0,[r4,#4]
        0x0000147c:    f005fea5    ....    BL       udp_sendto_if ; 0x71ca
        0x00001480:    4620         F      MOV      r0,r4
        0x00001482:    f7fffc6f    ..o.    BL       dhcp_delete_msg ; 0xd64
        0x00001486:    7b60        `{      LDRB     r0,[r4,#0xd]
        0x00001488:    213c        <!      MOVS     r1,#0x3c
        0x0000148a:    1c40        @.      ADDS     r0,r0,#1
        0x0000148c:    b2c0        ..      UXTB     r0,r0
        0x0000148e:    7360        `s      STRB     r0,[r4,#0xd]
        0x00001490:    2806        .(      CMP      r0,#6
        0x00001492:    d201        ..      BCS      0x1498 ; dhcp_select + 192
        0x00001494:    2101        .!      MOVS     r1,#1
        0x00001496:    4081        .@      LSLS     r1,r1,r0
        0x00001498:    f44f707a    O.zp    MOV      r0,#0x3e8
        0x0000149c:    4341        AC      MULS     r1,r0,r1
        0x0000149e:    b288        ..      UXTH     r0,r1
        0x000014a0:    f20010f3    ....    ADD      r0,r0,#0x1f3
        0x000014a4:    f44f71fa    O..q    MOV      r1,#0x1f4
        0x000014a8:    fbb0f0f1    ....    UDIV     r0,r0,r1
        0x000014ac:    8360        `.      STRH     r0,[r4,#0x1a]
        0x000014ae:    4630        0F      MOV      r0,r6
        0x000014b0:    bdf8        ..      POP      {r3-r7,pc}
    dhcp_renew
        0x000014b2:    b5f8        ..      PUSH     {r3-r7,lr}
        0x000014b4:    6a04        .j      LDR      r4,[r0,#0x20]
        0x000014b6:    4605        .F      MOV      r5,r0
        0x000014b8:    2105        .!      MOVS     r1,#5
        0x000014ba:    4620         F      MOV      r0,r4
        0x000014bc:    f000fe39    ..9.    BL       dhcp_set_state ; 0x2132
        0x000014c0:    2203        ."      MOVS     r2,#3
        0x000014c2:    4621        !F      MOV      r1,r4
        0x000014c4:    4628        (F      MOV      r0,r5
        0x000014c6:    f7fffcfb    ....    BL       dhcp_create_msg ; 0xec0
        0x000014ca:    0006        ..      MOVS     r6,r0
        0x000014cc:    d11c        ..      BNE      0x1508 ; dhcp_renew + 86
        0x000014ce:    2202        ."      MOVS     r2,#2
        0x000014d0:    2139        9!      MOVS     r1,#0x39
        0x000014d2:    4620         F      MOV      r0,r4
        0x000014d4:    f7fffcb6    ....    BL       dhcp_option ; 0xe44
        0x000014d8:    8ca9        ..      LDRH     r1,[r5,#0x24]
        0x000014da:    4620         F      MOV      r0,r4
        0x000014dc:    f7fffcd1    ....    BL       dhcp_option_short ; 0xe82
        0x000014e0:    4620         F      MOV      r0,r4
        0x000014e2:    f7fffc66    ..f.    BL       dhcp_option_trailer ; 0xdb2
        0x000014e6:    8b20         .      LDRH     r0,[r4,#0x18]
        0x000014e8:    30f0        .0      ADDS     r0,r0,#0xf0
        0x000014ea:    b281        ..      UXTH     r1,r0
        0x000014ec:    6920         i      LDR      r0,[r4,#0x10]
        0x000014ee:    f001ff7f    ....    BL       pbuf_realloc ; 0x33f0
        0x000014f2:    9500        ..      STR      r5,[sp,#0]
        0x000014f4:    2343        C#      MOVS     r3,#0x43
        0x000014f6:    f1040220    .. .    ADD      r2,r4,#0x20
        0x000014fa:    6921        !i      LDR      r1,[r4,#0x10]
        0x000014fc:    6860        `h      LDR      r0,[r4,#4]
        0x000014fe:    f005fe64    ..d.    BL       udp_sendto_if ; 0x71ca
        0x00001502:    4620         F      MOV      r0,r4
        0x00001504:    f7fffc2e    ....    BL       dhcp_delete_msg ; 0xd64
        0x00001508:    7b60        `{      LDRB     r0,[r4,#0xd]
        0x0000150a:    f6446120    D. a    MOV      r1,#0x4e20
        0x0000150e:    1c40        @.      ADDS     r0,r0,#1
        0x00001510:    b2c0        ..      UXTB     r0,r0
        0x00001512:    7360        `s      STRB     r0,[r4,#0xd]
        0x00001514:    280a        .(      CMP      r0,#0xa
        0x00001516:    d202        ..      BCS      0x151e ; dhcp_renew + 108
        0x00001518:    f44f61fa    O..a    MOV      r1,#0x7d0
        0x0000151c:    4341        AC      MULS     r1,r0,r1
        0x0000151e:    b288        ..      UXTH     r0,r1
        0x00001520:    f20010f3    ....    ADD      r0,r0,#0x1f3
        0x00001524:    f44f71fa    O..q    MOV      r1,#0x1f4
        0x00001528:    fbb0f0f1    ....    UDIV     r0,r0,r1
        0x0000152c:    8360        `.      STRH     r0,[r4,#0x1a]
        0x0000152e:    4630        0F      MOV      r0,r6
        0x00001530:    bdf8        ..      POP      {r3-r7,pc}
    dhcp_rebind
        0x00001532:    b5f8        ..      PUSH     {r3-r7,lr}
        0x00001534:    6a04        .j      LDR      r4,[r0,#0x20]
        0x00001536:    4605        .F      MOV      r5,r0
        0x00001538:    2104        .!      MOVS     r1,#4
        0x0000153a:    4620         F      MOV      r0,r4
        0x0000153c:    f000fdf9    ....    BL       dhcp_set_state ; 0x2132
        0x00001540:    2203        ."      MOVS     r2,#3
        0x00001542:    4621        !F      MOV      r1,r4
        0x00001544:    4628        (F      MOV      r0,r5
        0x00001546:    f7fffcbb    ....    BL       dhcp_create_msg ; 0xec0
        0x0000154a:    0006        ..      MOVS     r6,r0
        0x0000154c:    d11b        ..      BNE      0x1586 ; dhcp_rebind + 84
        0x0000154e:    2202        ."      MOVS     r2,#2
        0x00001550:    2139        9!      MOVS     r1,#0x39
        0x00001552:    4620         F      MOV      r0,r4
        0x00001554:    f7fffc76    ..v.    BL       dhcp_option ; 0xe44
        0x00001558:    8ca9        ..      LDRH     r1,[r5,#0x24]
        0x0000155a:    4620         F      MOV      r0,r4
        0x0000155c:    f7fffc91    ....    BL       dhcp_option_short ; 0xe82
        0x00001560:    4620         F      MOV      r0,r4
        0x00001562:    f7fffc26    ..&.    BL       dhcp_option_trailer ; 0xdb2
        0x00001566:    8b20         .      LDRH     r0,[r4,#0x18]
        0x00001568:    30f0        .0      ADDS     r0,r0,#0xf0
        0x0000156a:    b281        ..      UXTH     r1,r0
        0x0000156c:    6920         i      LDR      r0,[r4,#0x10]
        0x0000156e:    f001ff3f    ..?.    BL       pbuf_realloc ; 0x33f0
        0x00001572:    9500        ..      STR      r5,[sp,#0]
        0x00001574:    2343        C#      MOVS     r3,#0x43
        0x00001576:    4a90        .J      LDR      r2,[pc,#576] ; [0x17b8] = 0x9c14
        0x00001578:    6921        !i      LDR      r1,[r4,#0x10]
        0x0000157a:    6860        `h      LDR      r0,[r4,#4]
        0x0000157c:    f005fe25    ..%.    BL       udp_sendto_if ; 0x71ca
        0x00001580:    4620         F      MOV      r0,r4
        0x00001582:    f7fffbef    ....    BL       dhcp_delete_msg ; 0xd64
        0x00001586:    7b60        `{      LDRB     r0,[r4,#0xd]
        0x00001588:    f2427110    B..q    MOV      r1,#0x2710
        0x0000158c:    1c40        @.      ADDS     r0,r0,#1
        0x0000158e:    b2c0        ..      UXTB     r0,r0
        0x00001590:    7360        `s      STRB     r0,[r4,#0xd]
        0x00001592:    280a        .(      CMP      r0,#0xa
        0x00001594:    d202        ..      BCS      0x159c ; dhcp_rebind + 106
        0x00001596:    f44f717a    O.zq    MOV      r1,#0x3e8
        0x0000159a:    4341        AC      MULS     r1,r0,r1
        0x0000159c:    b288        ..      UXTH     r0,r1
        0x0000159e:    f20010f3    ....    ADD      r0,r0,#0x1f3
        0x000015a2:    f44f71fa    O..q    MOV      r1,#0x1f4
        0x000015a6:    fbb0f0f1    ....    UDIV     r0,r0,r1
        0x000015aa:    8360        `.      STRH     r0,[r4,#0x1a]
        0x000015ac:    4630        0F      MOV      r0,r6
        0x000015ae:    bdf8        ..      POP      {r3-r7,pc}
    dhcp_coarse_tmr
        0x000015b0:    4882        .H      LDR      r0,[pc,#520] ; [0x17bc] = 0x20000078
        0x000015b2:    b510        ..      PUSH     {r4,lr}
        0x000015b4:    6804        .h      LDR      r4,[r0,#0]
        0x000015b6:    e025        %.      B        0x1604 ; dhcp_coarse_tmr + 84
        0x000015b8:    6a20         j      LDR      r0,[r4,#0x20]
        0x000015ba:    b310        ..      CBZ      r0,0x1602 ; dhcp_coarse_tmr + 82
        0x000015bc:    8bc1        ..      LDRH     r1,[r0,#0x1e]
        0x000015be:    1e4a        J.      SUBS     r2,r1,#1
        0x000015c0:    83c2        ..      STRH     r2,[r0,#0x1e]
        0x000015c2:    2901        .)      CMP      r1,#1
        0x000015c4:    d006        ..      BEQ      0x15d4 ; dhcp_coarse_tmr + 36
        0x000015c6:    6a21        !j      LDR      r1,[r4,#0x20]
        0x000015c8:    8b88        ..      LDRH     r0,[r1,#0x1c]
        0x000015ca:    1e42        B.      SUBS     r2,r0,#1
        0x000015cc:    838a        ..      STRH     r2,[r1,#0x1c]
        0x000015ce:    2801        .(      CMP      r0,#1
        0x000015d0:    d00c        ..      BEQ      0x15ec ; dhcp_coarse_tmr + 60
        0x000015d2:    e016        ..      B        0x1602 ; dhcp_coarse_tmr + 82
        0x000015d4:    6a20         j      LDR      r0,[r4,#0x20]
        0x000015d6:    7b00        .{      LDRB     r0,[r0,#0xc]
        0x000015d8:    2801        .(      CMP      r0,#1
        0x000015da:    d003        ..      BEQ      0x15e4 ; dhcp_coarse_tmr + 52
        0x000015dc:    280a        .(      CMP      r0,#0xa
        0x000015de:    d001        ..      BEQ      0x15e4 ; dhcp_coarse_tmr + 52
        0x000015e0:    2805        .(      CMP      r0,#5
        0x000015e2:    d10e        ..      BNE      0x1602 ; dhcp_coarse_tmr + 82
        0x000015e4:    4620         F      MOV      r0,r4
        0x000015e6:    f7ffffa4    ....    BL       dhcp_rebind ; 0x1532
        0x000015ea:    e00a        ..      B        0x1602 ; dhcp_coarse_tmr + 82
        0x000015ec:    6a20         j      LDR      r0,[r4,#0x20]
        0x000015ee:    7b00        .{      LDRB     r0,[r0,#0xc]
        0x000015f0:    2801        .(      CMP      r0,#1
        0x000015f2:    d003        ..      BEQ      0x15fc ; dhcp_coarse_tmr + 76
        0x000015f4:    280a        .(      CMP      r0,#0xa
        0x000015f6:    d001        ..      BEQ      0x15fc ; dhcp_coarse_tmr + 76
        0x000015f8:    2805        .(      CMP      r0,#5
        0x000015fa:    d102        ..      BNE      0x1602 ; dhcp_coarse_tmr + 82
        0x000015fc:    4620         F      MOV      r0,r4
        0x000015fe:    f7ffff58    ..X.    BL       dhcp_renew ; 0x14b2
        0x00001602:    6824        $h      LDR      r4,[r4,#0]
        0x00001604:    2c00        .,      CMP      r4,#0
        0x00001606:    d1d7        ..      BNE      0x15b8 ; dhcp_coarse_tmr + 8
        0x00001608:    bd10        ..      POP      {r4,pc}
    dhcp_reboot
        0x0000160a:    b5f8        ..      PUSH     {r3-r7,lr}
        0x0000160c:    6a04        .j      LDR      r4,[r0,#0x20]
        0x0000160e:    4606        .F      MOV      r6,r0
        0x00001610:    2103        .!      MOVS     r1,#3
        0x00001612:    4620         F      MOV      r0,r4
        0x00001614:    f000fd8d    ....    BL       dhcp_set_state ; 0x2132
        0x00001618:    2203        ."      MOVS     r2,#3
        0x0000161a:    4621        !F      MOV      r1,r4
        0x0000161c:    4630        0F      MOV      r0,r6
        0x0000161e:    f7fffc4f    ..O.    BL       dhcp_create_msg ; 0xec0
        0x00001622:    0005        ..      MOVS     r5,r0
        0x00001624:    d128        (.      BNE      0x1678 ; dhcp_reboot + 110
        0x00001626:    2202        ."      MOVS     r2,#2
        0x00001628:    2139        9!      MOVS     r1,#0x39
        0x0000162a:    4620         F      MOV      r0,r4
        0x0000162c:    f7fffc0a    ....    BL       dhcp_option ; 0xe44
        0x00001630:    f44f7110    O..q    MOV      r1,#0x240
        0x00001634:    4620         F      MOV      r0,r4
        0x00001636:    f7fffc24    ..$.    BL       dhcp_option_short ; 0xe82
        0x0000163a:    2204        ."      MOVS     r2,#4
        0x0000163c:    2132        2!      MOVS     r1,#0x32
        0x0000163e:    4620         F      MOV      r0,r4
        0x00001640:    f7fffc00    ....    BL       dhcp_option ; 0xe44
        0x00001644:    6a60        `j      LDR      r0,[r4,#0x24]
        0x00001646:    f7fffb8b    ....    BL       lwip_ntohl ; 0xd60
        0x0000164a:    4601        .F      MOV      r1,r0
        0x0000164c:    4620         F      MOV      r0,r4
        0x0000164e:    f7fffe93    ....    BL       dhcp_option_long ; 0x1378
        0x00001652:    4620         F      MOV      r0,r4
        0x00001654:    f7fffbad    ....    BL       dhcp_option_trailer ; 0xdb2
        0x00001658:    8b20         .      LDRH     r0,[r4,#0x18]
        0x0000165a:    30f0        .0      ADDS     r0,r0,#0xf0
        0x0000165c:    b281        ..      UXTH     r1,r0
        0x0000165e:    6920         i      LDR      r0,[r4,#0x10]
        0x00001660:    f001fec6    ....    BL       pbuf_realloc ; 0x33f0
        0x00001664:    9600        ..      STR      r6,[sp,#0]
        0x00001666:    2343        C#      MOVS     r3,#0x43
        0x00001668:    4a53        SJ      LDR      r2,[pc,#332] ; [0x17b8] = 0x9c14
        0x0000166a:    6921        !i      LDR      r1,[r4,#0x10]
        0x0000166c:    6860        `h      LDR      r0,[r4,#4]
        0x0000166e:    f005fdac    ....    BL       udp_sendto_if ; 0x71ca
        0x00001672:    4620         F      MOV      r0,r4
        0x00001674:    f7fffb76    ..v.    BL       dhcp_delete_msg ; 0xd64
        0x00001678:    7b60        `{      LDRB     r0,[r4,#0xd]
        0x0000167a:    f2427110    B..q    MOV      r1,#0x2710
        0x0000167e:    1c40        @.      ADDS     r0,r0,#1
        0x00001680:    b2c0        ..      UXTB     r0,r0
        0x00001682:    7360        `s      STRB     r0,[r4,#0xd]
        0x00001684:    280a        .(      CMP      r0,#0xa
        0x00001686:    d202        ..      BCS      0x168e ; dhcp_reboot + 132
        0x00001688:    f44f717a    O.zq    MOV      r1,#0x3e8
        0x0000168c:    4341        AC      MULS     r1,r0,r1
        0x0000168e:    b288        ..      UXTH     r0,r1
        0x00001690:    f20010f3    ....    ADD      r0,r0,#0x1f3
        0x00001694:    f44f71fa    O..q    MOV      r1,#0x1f4
        0x00001698:    fbb0f0f1    ....    UDIV     r0,r0,r1
        0x0000169c:    8360        `.      STRH     r0,[r4,#0x1a]
        0x0000169e:    4628        (F      MOV      r0,r5
        0x000016a0:    bdf8        ..      POP      {r3-r7,pc}
    dhcp_release
        0x000016a2:    b5f8        ..      PUSH     {r3-r7,lr}
        0x000016a4:    6a04        .j      LDR      r4,[r0,#0x20]
        0x000016a6:    4606        .F      MOV      r6,r0
        0x000016a8:    2100        .!      MOVS     r1,#0
        0x000016aa:    4620         F      MOV      r0,r4
        0x000016ac:    f000fd41    ..A.    BL       dhcp_set_state ; 0x2132
        0x000016b0:    2000        .       MOVS     r0,#0
        0x000016b2:    6220         b      STR      r0,[r4,#0x20]
        0x000016b4:    6260        `b      STR      r0,[r4,#0x24]
        0x000016b6:    62a0        .b      STR      r0,[r4,#0x28]
        0x000016b8:    62e0        .b      STR      r0,[r4,#0x2c]
        0x000016ba:    63a0        .c      STR      r0,[r4,#0x38]
        0x000016bc:    6360        `c      STR      r0,[r4,#0x34]
        0x000016be:    6320         c      STR      r0,[r4,#0x30]
        0x000016c0:    2207        ."      MOVS     r2,#7
        0x000016c2:    4621        !F      MOV      r1,r4
        0x000016c4:    4630        0F      MOV      r0,r6
        0x000016c6:    f7fffbfb    ....    BL       dhcp_create_msg ; 0xec0
        0x000016ca:    0005        ..      MOVS     r5,r0
        0x000016cc:    d113        ..      BNE      0x16f6 ; dhcp_release + 84
        0x000016ce:    4620         F      MOV      r0,r4
        0x000016d0:    f7fffb6f    ..o.    BL       dhcp_option_trailer ; 0xdb2
        0x000016d4:    8b20         .      LDRH     r0,[r4,#0x18]
        0x000016d6:    30f0        .0      ADDS     r0,r0,#0xf0
        0x000016d8:    b281        ..      UXTH     r1,r0
        0x000016da:    6920         i      LDR      r0,[r4,#0x10]
        0x000016dc:    f001fe88    ....    BL       pbuf_realloc ; 0x33f0
        0x000016e0:    9600        ..      STR      r6,[sp,#0]
        0x000016e2:    2343        C#      MOVS     r3,#0x43
        0x000016e4:    f1040220    .. .    ADD      r2,r4,#0x20
        0x000016e8:    6921        !i      LDR      r1,[r4,#0x10]
        0x000016ea:    6860        `h      LDR      r0,[r4,#4]
        0x000016ec:    f005fd6d    ..m.    BL       udp_sendto_if ; 0x71ca
        0x000016f0:    4620         F      MOV      r0,r4
        0x000016f2:    f7fffb37    ..7.    BL       dhcp_delete_msg ; 0xd64
        0x000016f6:    7b60        `{      LDRB     r0,[r4,#0xd]
        0x000016f8:    f2427110    B..q    MOV      r1,#0x2710
        0x000016fc:    1c40        @.      ADDS     r0,r0,#1
        0x000016fe:    b2c0        ..      UXTB     r0,r0
        0x00001700:    7360        `s      STRB     r0,[r4,#0xd]
        0x00001702:    280a        .(      CMP      r0,#0xa
        0x00001704:    d202        ..      BCS      0x170c ; dhcp_release + 106
        0x00001706:    f44f717a    O.zq    MOV      r1,#0x3e8
        0x0000170a:    4341        AC      MULS     r1,r0,r1
        0x0000170c:    b288        ..      UXTH     r0,r1
        0x0000170e:    f20010f3    ....    ADD      r0,r0,#0x1f3
        0x00001712:    f44f71fa    O..q    MOV      r1,#0x1f4
        0x00001716:    fbb0f0f1    ....    UDIV     r0,r0,r1
        0x0000171a:    8360        `.      STRH     r0,[r4,#0x1a]
        0x0000171c:    4630        0F      MOV      r0,r6
        0x0000171e:    f001fc76    ..v.    BL       netif_set_down ; 0x300e
        0x00001722:    4927        'I      LDR      r1,[pc,#156] ; [0x17c0] = 0x9c10
        0x00001724:    4630        0F      MOV      r0,r6
        0x00001726:    f001fbfc    ....    BL       netif_set_ipaddr ; 0x2f22
        0x0000172a:    4925        %I      LDR      r1,[pc,#148] ; [0x17c0] = 0x9c10
        0x0000172c:    4630        0F      MOV      r0,r6
        0x0000172e:    f001fbf0    ....    BL       netif_set_gw ; 0x2f12
        0x00001732:    4923        #I      LDR      r1,[pc,#140] ; [0x17c0] = 0x9c10
        0x00001734:    4630        0F      MOV      r0,r6
        0x00001736:    f001fbf0    ....    BL       netif_set_netmask ; 0x2f1a
        0x0000173a:    4628        (F      MOV      r0,r5
        0x0000173c:    bdf8        ..      POP      {r3-r7,pc}
    dhcp_bind
        0x0000173e:    e92d41fc    -..A    PUSH     {r2-r8,lr}
        0x00001742:    0005        ..      MOVS     r5,r0
        0x00001744:    d03e        >.      BEQ      0x17c4 ; dhcp_bind + 134
        0x00001746:    6a2c        ,j      LDR      r4,[r5,#0x20]
        0x00001748:    b1ac        ..      CBZ      r4,0x1776 ; dhcp_bind + 56
        0x0000174a:    6b60        `k      LDR      r0,[r4,#0x34]
        0x0000174c:    f04f013c    O.<.    MOV      r1,#0x3c
        0x00001750:    1c42        B.      ADDS     r2,r0,#1
        0x00001752:    f44f3780    O..7    MOV      r7,#0x10000
        0x00001756:    f04f0601    O...    MOV      r6,#1
        0x0000175a:    f64f73ff    O..s    MOV      r3,#0xffff
        0x0000175e:    d043        C.      BEQ      0x17e8 ; dhcp_bind + 170
        0x00001760:    301e        .0      ADDS     r0,r0,#0x1e
        0x00001762:    fbb0f0f1    ....    UDIV     r0,r0,r1
        0x00001766:    42b8        .B      CMP      r0,r7
        0x00001768:    d300        ..      BCC      0x176c ; dhcp_bind + 46
        0x0000176a:    4618        .F      MOV      r0,r3
        0x0000176c:    0400        ..      LSLS     r0,r0,#16
        0x0000176e:    0c00        ..      LSRS     r0,r0,#16
        0x00001770:    83a0        ..      STRH     r0,[r4,#0x1c]
        0x00001772:    d038        8.      BEQ      0x17e6 ; dhcp_bind + 168
        0x00001774:    e038        8.      B        0x17e8 ; dhcp_bind + 170
        0x00001776:    e02b        +.      B        0x17d0 ; dhcp_bind + 146
    $d
        0x00001778:    70636864    dhcp    DCD    1885562980
        0x0000177c:    74706f5f    _opt    DCD    1953525599
        0x00001780:    5f6e6f69    ion_    DCD    1601073001
        0x00001784:    676e6f6c    long    DCD    1735290732
        0x00001788:    6864203a    : dh    DCD    1751392314
        0x0000178c:    3e2d7063    cp->    DCD    1043165283
        0x00001790:    6974706f    opti    DCD    1769238639
        0x00001794:    5f736e6f    ons_    DCD    1601400431
        0x00001798:    5f74756f    out_    DCD    1601467759
        0x0000179c:    206e656c    len     DCD    544105836
        0x000017a0:    2034202b    + 4     DCD    540287019
        0x000017a4:    44203d3c    <= D    DCD    1142963516
        0x000017a8:    5f504348    HCP_    DCD    1599095624
        0x000017ac:    4954504f    OPTI    DCD    1230262351
        0x000017b0:    5f534e4f    ONS_    DCD    1599295055
        0x000017b4:    004e454c    LEN.    DCD    5129548
        0x000017b8:    00009c14    ....    DCD    39956
        0x000017bc:    20000078    x..     DCD    536871032
        0x000017c0:    00009c10    ....    DCD    39952
    $t
        0x000017c4:    f2af7300    ...s    ADR      r3,{pc}-0x6fc ; 0x10c8
        0x000017c8:    f44f7269    O.ir    MOV      r2,#0x3a4
        0x000017cc:    a1fb        ..      ADR      r1,{pc}+0x3f0 ; 0x1bbc
        0x000017ce:    e004        ..      B        0x17da ; dhcp_bind + 156
        0x000017d0:    f2af730c    ...s    ADR      r3,{pc}-0x708 ; 0x10c8
        0x000017d4:    f24032a6    @..2    MOV      r2,#0x3a6
        0x000017d8:    a1ff        ..      ADR      r1,{pc}+0x400 ; 0x1bd8
        0x000017da:    f2af60c4    ...`    ADR      r0,{pc}-0x6c2 ; 0x1118
        0x000017de:    f007ffdb    ....    BL       __0printf$5 ; 0x9798
        0x000017e2:    e8bd81fc    ....    POP      {r2-r8,pc}
        0x000017e6:    83a6        ..      STRH     r6,[r4,#0x1c]
        0x000017e8:    6ba2        .k      LDR      r2,[r4,#0x38]
        0x000017ea:    1c50        P.      ADDS     r0,r2,#1
        0x000017ec:    d00a        ..      BEQ      0x1804 ; dhcp_bind + 198
        0x000017ee:    321e        .2      ADDS     r2,r2,#0x1e
        0x000017f0:    fbb2f1f1    ....    UDIV     r1,r2,r1
        0x000017f4:    42b9        .B      CMP      r1,r7
        0x000017f6:    d300        ..      BCC      0x17fa ; dhcp_bind + 188
        0x000017f8:    4619        .F      MOV      r1,r3
        0x000017fa:    0408        ..      LSLS     r0,r1,#16
        0x000017fc:    0c00        ..      LSRS     r0,r0,#16
        0x000017fe:    83e0        ..      STRH     r0,[r4,#0x1e]
        0x00001800:    d100        ..      BNE      0x1804 ; dhcp_bind + 198
        0x00001802:    83e6        ..      STRH     r6,[r4,#0x1e]
        0x00001804:    8ba1        ..      LDRH     r1,[r4,#0x1c]
        0x00001806:    8be0        ..      LDRH     r0,[r4,#0x1e]
        0x00001808:    4281        .B      CMP      r1,r0
        0x0000180a:    d302        ..      BCC      0x1812 ; dhcp_bind + 212
        0x0000180c:    b108        ..      CBZ      r0,0x1812 ; dhcp_bind + 212
        0x0000180e:    2000        .       MOVS     r0,#0
        0x00001810:    83a0        ..      STRH     r0,[r4,#0x1c]
        0x00001812:    7ba0        .{      LDRB     r0,[r4,#0xe]
        0x00001814:    b108        ..      CBZ      r0,0x181a ; dhcp_bind + 220
        0x00001816:    6aa0        .j      LDR      r0,[r4,#0x28]
        0x00001818:    e009        ..      B        0x182e ; dhcp_bind + 240
        0x0000181a:    f8942024    ..$     LDRB     r2,[r4,#0x24]
        0x0000181e:    2a7f        .*      CMP      r2,#0x7f
        0x00001820:    d801        ..      BHI      0x1826 ; dhcp_bind + 232
        0x00001822:    20ff        .       MOVS     r0,#0xff
        0x00001824:    e003        ..      B        0x182e ; dhcp_bind + 240
        0x00001826:    2ac0        .*      CMP      r2,#0xc0
        0x00001828:    d303        ..      BCC      0x1832 ; dhcp_bind + 244
        0x0000182a:    f06f407f    o..@    MVN      r0,#0xff000000
        0x0000182e:    9000        ..      STR      r0,[sp,#0]
        0x00001830:    e000        ..      B        0x1834 ; dhcp_bind + 246
        0x00001832:    9300        ..      STR      r3,[sp,#0]
        0x00001834:    6ae0        .j      LDR      r0,[r4,#0x2c]
        0x00001836:    9001        ..      STR      r0,[sp,#4]
        0x00001838:    b928        (.      CBNZ     r0,0x1846 ; dhcp_bind + 264
        0x0000183a:    6a60        `j      LDR      r0,[r4,#0x24]
        0x0000183c:    9900        ..      LDR      r1,[sp,#0]
        0x0000183e:    4008        .@      ANDS     r0,r0,r1
        0x00001840:    f0407080    @..p    ORR      r0,r0,#0x1000000
        0x00001844:    9001        ..      STR      r0,[sp,#4]
        0x00001846:    f1040124    ..$.    ADD      r1,r4,#0x24
        0x0000184a:    4628        (F      MOV      r0,r5
        0x0000184c:    f001fb69    ..i.    BL       netif_set_ipaddr ; 0x2f22
        0x00001850:    4669        iF      MOV      r1,sp
        0x00001852:    4628        (F      MOV      r0,r5
        0x00001854:    f001fb61    ..a.    BL       netif_set_netmask ; 0x2f1a
        0x00001858:    a901        ..      ADD      r1,sp,#4
        0x0000185a:    4628        (F      MOV      r0,r5
        0x0000185c:    f001fb59    ..Y.    BL       netif_set_gw ; 0x2f12
        0x00001860:    4628        (F      MOV      r0,r5
        0x00001862:    f001fc20    .. .    BL       netif_set_up ; 0x30a6
        0x00001866:    210a        .!      MOVS     r1,#0xa
        0x00001868:    4620         F      MOV      r0,r4
        0x0000186a:    f000fc62    ..b.    BL       dhcp_set_state ; 0x2132
        0x0000186e:    e7b8        ..      B        0x17e2 ; dhcp_bind + 164
    dhcp_fine_tmr
        0x00001870:    b570        p.      PUSH     {r4-r6,lr}
        0x00001872:    48df        .H      LDR      r0,[pc,#892] ; [0x1bf0] = 0x20000078
        0x00001874:    2500        .%      MOVS     r5,#0
        0x00001876:    6804        .h      LDR      r4,[r0,#0]
        0x00001878:    e00e        ..      B        0x1898 ; dhcp_fine_tmr + 40
        0x0000187a:    6a20         j      LDR      r0,[r4,#0x20]
        0x0000187c:    b158        X.      CBZ      r0,0x1896 ; dhcp_fine_tmr + 38
        0x0000187e:    8b41        A.      LDRH     r1,[r0,#0x1a]
        0x00001880:    2901        .)      CMP      r1,#1
        0x00001882:    d903        ..      BLS      0x188c ; dhcp_fine_tmr + 28
        0x00001884:    f1a10101    ....    SUB      r1,r1,#1
        0x00001888:    8341        A.      STRH     r1,[r0,#0x1a]
        0x0000188a:    e004        ..      B        0x1896 ; dhcp_fine_tmr + 38
        0x0000188c:    d103        ..      BNE      0x1896 ; dhcp_fine_tmr + 38
        0x0000188e:    8345        E.      STRH     r5,[r0,#0x1a]
        0x00001890:    4620         F      MOV      r0,r4
        0x00001892:    f000fc56    ..V.    BL       dhcp_timeout ; 0x2142
        0x00001896:    6824        $h      LDR      r4,[r4,#0]
        0x00001898:    2c00        .,      CMP      r4,#0
        0x0000189a:    d1ee        ..      BNE      0x187a ; dhcp_fine_tmr + 10
        0x0000189c:    bd70        p.      POP      {r4-r6,pc}
    dhcp_handle_ack
        0x0000189e:    b5f8        ..      PUSH     {r3-r7,lr}
        0x000018a0:    6a04        .j      LDR      r4,[r0,#0x20]
        0x000018a2:    2000        .       MOVS     r0,#0
        0x000018a4:    4dd3        .M      LDR      r5,[pc,#844] ; [0x1bf4] = 0x20000354
        0x000018a6:    62a0        .b      STR      r0,[r4,#0x28]
        0x000018a8:    62e0        .b      STR      r0,[r4,#0x2c]
        0x000018aa:    78e9        .x      LDRB     r1,[r5,#3]
        0x000018ac:    f1a50628    ..(.    SUB      r6,r5,#0x28
        0x000018b0:    b109        ..      CBZ      r1,0x18b6 ; dhcp_handle_ack + 24
        0x000018b2:    68f1        .h      LDR      r1,[r6,#0xc]
        0x000018b4:    6321        !c      STR      r1,[r4,#0x30]
        0x000018b6:    7929        )y      LDRB     r1,[r5,#4]
        0x000018b8:    b109        ..      CBZ      r1,0x18be ; dhcp_handle_ack + 32
        0x000018ba:    6931        1i      LDR      r1,[r6,#0x10]
        0x000018bc:    e001        ..      B        0x18c2 ; dhcp_handle_ack + 36
        0x000018be:    6b21        !k      LDR      r1,[r4,#0x30]
        0x000018c0:    0849        I.      LSRS     r1,r1,#1
        0x000018c2:    6361        ac      STR      r1,[r4,#0x34]
        0x000018c4:    7969        iy      LDRB     r1,[r5,#5]
        0x000018c6:    b109        ..      CBZ      r1,0x18cc ; dhcp_handle_ack + 46
        0x000018c8:    6971        qi      LDR      r1,[r6,#0x14]
        0x000018ca:    e000        ..      B        0x18ce ; dhcp_handle_ack + 48
        0x000018cc:    6b21        !k      LDR      r1,[r4,#0x30]
        0x000018ce:    63a1        .c      STR      r1,[r4,#0x38]
        0x000018d0:    68a1        .h      LDR      r1,[r4,#8]
        0x000018d2:    6909        .i      LDR      r1,[r1,#0x10]
        0x000018d4:    6261        ab      STR      r1,[r4,#0x24]
        0x000018d6:    79a9        .y      LDRB     r1,[r5,#6]
        0x000018d8:    b121        !.      CBZ      r1,0x18e4 ; dhcp_handle_ack + 70
        0x000018da:    69b0        .i      LDR      r0,[r6,#0x18]
        0x000018dc:    f7fffa3e    ..>.    BL       lwip_htonl ; 0xd5c
        0x000018e0:    62a0        .b      STR      r0,[r4,#0x28]
        0x000018e2:    2001        .       MOVS     r0,#1
        0x000018e4:    73a0        .s      STRB     r0,[r4,#0xe]
        0x000018e6:    79e8        .y      LDRB     r0,[r5,#7]
        0x000018e8:    b118        ..      CBZ      r0,0x18f2 ; dhcp_handle_ack + 84
        0x000018ea:    69f0        .i      LDR      r0,[r6,#0x1c]
        0x000018ec:    f7fffa36    ..6.    BL       lwip_htonl ; 0xd5c
        0x000018f0:    62e0        .b      STR      r0,[r4,#0x2c]
        0x000018f2:    2400        .$      MOVS     r4,#0
        0x000018f4:    e00b        ..      B        0x190e ; dhcp_handle_ack + 112
        0x000018f6:    eb060084    ....    ADD      r0,r6,r4,LSL #2
        0x000018fa:    6a00        .j      LDR      r0,[r0,#0x20]
        0x000018fc:    f7fffa2e    ....    BL       lwip_htonl ; 0xd5c
        0x00001900:    9000        ..      STR      r0,[sp,#0]
        0x00001902:    4669        iF      MOV      r1,sp
        0x00001904:    4620         F      MOV      r0,r4
        0x00001906:    f000fc99    ....    BL       dns_setserver ; 0x223c
        0x0000190a:    1c64        d.      ADDS     r4,r4,#1
        0x0000190c:    b2e4        ..      UXTB     r4,r4
        0x0000190e:    1928        (.      ADDS     r0,r5,r4
        0x00001910:    7a00        .z      LDRB     r0,[r0,#8]
        0x00001912:    2800        .(      CMP      r0,#0
        0x00001914:    d001        ..      BEQ      0x191a ; dhcp_handle_ack + 124
        0x00001916:    2c02        .,      CMP      r4,#2
        0x00001918:    d3ed        ..      BCC      0x18f6 ; dhcp_handle_ack + 88
        0x0000191a:    bdf8        ..      POP      {r3-r7,pc}
    dhcp_set_struct
        0x0000191c:    b570        p.      PUSH     {r4-r6,lr}
        0x0000191e:    0004        ..      MOVS     r4,r0
        0x00001920:    460d        .F      MOV      r5,r1
        0x00001922:    d108        ..      BNE      0x1936 ; dhcp_set_struct + 26
        0x00001924:    f6af0360    ..`.    ADR      r3,{pc}-0x85c ; 0x10c8
        0x00001928:    f240224d    @.M"    MOV      r2,#0x24d
        0x0000192c:    a1b2        ..      ADR      r1,{pc}+0x2cc ; 0x1bf8
        0x0000192e:    f6af0018    ....    ADR      r0,{pc}-0x816 ; 0x1118
        0x00001932:    f007ff31    ..1.    BL       __0printf$5 ; 0x9798
        0x00001936:    b945        E.      CBNZ     r5,0x194a ; dhcp_set_struct + 46
        0x00001938:    f6af0374    ..t.    ADR      r3,{pc}-0x870 ; 0x10c8
        0x0000193c:    f240224e    @.N"    MOV      r2,#0x24e
        0x00001940:    a1b1        ..      ADR      r1,{pc}+0x2c8 ; 0x1c08
        0x00001942:    f6af002c    ..,.    ADR      r0,{pc}-0x82a ; 0x1118
        0x00001946:    f007ff27    ..'.    BL       __0printf$5 ; 0x9798
        0x0000194a:    6a20         j      LDR      r0,[r4,#0x20]
        0x0000194c:    b140        @.      CBZ      r0,0x1960 ; dhcp_set_struct + 68
        0x0000194e:    f6af0388    ....    ADR      r3,{pc}-0x886 ; 0x10c8
        0x00001952:    f240224f    @.O"    MOV      r2,#0x24f
        0x00001956:    a1b0        ..      ADR      r1,{pc}+0x2c2 ; 0x1c18
        0x00001958:    f6af0044    ..D.    ADR      r0,{pc}-0x840 ; 0x1118
        0x0000195c:    f007ff1c    ....    BL       __0printf$5 ; 0x9798
        0x00001960:    213c        <!      MOVS     r1,#0x3c
        0x00001962:    4628        (F      MOV      r0,r5
        0x00001964:    f007feb8    ....    BL       __aeabi_memclr ; 0x96d8
        0x00001968:    6225        %b      STR      r5,[r4,#0x20]
        0x0000196a:    bd70        p.      POP      {r4-r6,pc}
    dhcp_cleanup
        0x0000196c:    b510        ..      PUSH     {r4,lr}
        0x0000196e:    0004        ..      MOVS     r4,r0
        0x00001970:    d108        ..      BNE      0x1984 ; dhcp_cleanup + 24
        0x00001972:    f6af03ac    ....    ADR      r3,{pc}-0x8aa ; 0x10c8
        0x00001976:    f44f7218    O..r    MOV      r2,#0x260
        0x0000197a:    a19f        ..      ADR      r1,{pc}+0x27e ; 0x1bf8
        0x0000197c:    f6af0068    ..h.    ADR      r0,{pc}-0x864 ; 0x1118
        0x00001980:    f007ff0a    ....    BL       __0printf$5 ; 0x9798
        0x00001984:    6a20         j      LDR      r0,[r4,#0x20]
        0x00001986:    2800        .(      CMP      r0,#0
        0x00001988:    d003        ..      BEQ      0x1992 ; dhcp_cleanup + 38
        0x0000198a:    f000ffcd    ....    BL       mem_free ; 0x2928
        0x0000198e:    2000        .       MOVS     r0,#0
        0x00001990:    6220         b      STR      r0,[r4,#0x20]
        0x00001992:    bd10        ..      POP      {r4,pc}
    dhcp_stop
        0x00001994:    b510        ..      PUSH     {r4,lr}
        0x00001996:    b1f0        ..      CBZ      r0,0x19d6 ; dhcp_stop + 66
        0x00001998:    f8504f20    P. O    LDR      r4,[r0,#0x20]!
        0x0000199c:    7b41        A{      LDRB     r1,[r0,#0xd]
        0x0000199e:    2c00        .,      CMP      r4,#0
        0x000019a0:    f0210108    !...    BIC      r1,r1,#8
        0x000019a4:    7341        As      STRB     r1,[r0,#0xd]
        0x000019a6:    d021        !.      BEQ      0x19ec ; dhcp_stop + 88
        0x000019a8:    6860        `h      LDR      r0,[r4,#4]
        0x000019aa:    b118        ..      CBZ      r0,0x19b4 ; dhcp_stop + 32
        0x000019ac:    f005fcc8    ....    BL       udp_remove ; 0x7340
        0x000019b0:    2000        .       MOVS     r0,#0
        0x000019b2:    6060        ``      STR      r0,[r4,#4]
        0x000019b4:    68a0        .h      LDR      r0,[r4,#8]
        0x000019b6:    b140        @.      CBZ      r0,0x19ca ; dhcp_stop + 54
        0x000019b8:    f6af03f4    ....    ADR      r3,{pc}-0x8f0 ; 0x10c8
        0x000019bc:    f24042da    @..B    MOV      r2,#0x4da
        0x000019c0:    a19e        ..      ADR      r1,{pc}+0x27c ; 0x1c3c
        0x000019c2:    f6af00ac    ....    ADR      r0,{pc}-0x8aa ; 0x1118
        0x000019c6:    f007fee7    ....    BL       __0printf$5 ; 0x9798
        0x000019ca:    4620         F      MOV      r0,r4
        0x000019cc:    e8bd4010    ...@    POP      {r4,lr}
        0x000019d0:    2100        .!      MOVS     r1,#0
        0x000019d2:    f000bbae    ....    B.W      dhcp_set_state ; 0x2132
        0x000019d6:    f6af1310    ....    ADR      r3,{pc}-0x90e ; 0x10c8
        0x000019da:    f24042c7    @..B    MOV      r2,#0x4c7
        0x000019de:    a19c        ..      ADR      r1,{pc}+0x272 ; 0x1c50
        0x000019e0:    f6af00cc    ....    ADR      r0,{pc}-0x8c8 ; 0x1118
        0x000019e4:    e8bd4010    ...@    POP      {r4,lr}
        0x000019e8:    f007bed6    ....    B.W      __0printf$5 ; 0x9798
        0x000019ec:    bd10        ..      POP      {r4,pc}
    dhcp_parse_reply
        0x000019ee:    e92d4ff3    -..O    PUSH     {r0,r1,r4-r11,lr}
        0x000019f2:    4604        .F      MOV      r4,r0
        0x000019f4:    b083        ..      SUB      sp,sp,#0xc
        0x000019f6:    2000        .       MOVS     r0,#0
        0x000019f8:    4683        .F      MOV      r11,r0
        0x000019fa:    9001        ..      STR      r0,[sp,#4]
        0x000019fc:    210a        .!      MOVS     r1,#0xa
        0x000019fe:    487d        }H      LDR      r0,[pc,#500] ; [0x1bf4] = 0x20000354
        0x00001a00:    f007fe6a    ..j.    BL       __aeabi_memclr ; 0x96d8
        0x00001a04:    9804        ..      LDR      r0,[sp,#0x10]
        0x00001a06:    8940        @.      LDRH     r0,[r0,#0xa]
        0x00001a08:    282c        ,(      CMP      r0,#0x2c
        0x00001a0a:    d316        ..      BCC      0x1a3a ; dhcp_parse_reply + 76
        0x00001a0c:    9804        ..      LDR      r0,[sp,#0x10]
        0x00001a0e:    26f0        .&      MOVS     r6,#0xf0
        0x00001a10:    6840        @h      LDR      r0,[r0,#4]
        0x00001a12:    60a0        .`      STR      r0,[r4,#8]
        0x00001a14:    9804        ..      LDR      r0,[sp,#0x10]
        0x00001a16:    f8b08008    ....    LDRH     r8,[r0,#8]
        0x00001a1a:    9f04        ..      LDR      r7,[sp,#0x10]
        0x00001a1c:    e006        ..      B        0x1a2c ; dhcp_parse_reply + 62
        0x00001a1e:    1a31        1.      SUBS     r1,r6,r0
        0x00001a20:    eba80000    ....    SUB      r0,r8,r0
        0x00001a24:    683f        ?h      LDR      r7,[r7,#0]
        0x00001a26:    b28e        ..      UXTH     r6,r1
        0x00001a28:    fa1ff880    ....    UXTH     r8,r0
        0x00001a2c:    b12f        /.      CBZ      r7,0x1a3a ; dhcp_parse_reply + 76
        0x00001a2e:    8978        x.      LDRH     r0,[r7,#0xa]
        0x00001a30:    42b0        .B      CMP      r0,r6
        0x00001a32:    d9f4        ..      BLS      0x1a1e ; dhcp_parse_reply + 48
        0x00001a34:    f8d7a004    ....    LDR      r10,[r7,#4]
        0x00001a38:    e18f        ..      B        0x1d5a ; dhcp_parse_reply + 876
        0x00001a3a:    f06f0001    o...    MVN      r0,#1
        0x00001a3e:    b005        ..      ADD      sp,sp,#0x14
        0x00001a40:    e8bd8ff0    ....    POP      {r4-r11,pc}
        0x00001a44:    1cb0        ..      ADDS     r0,r6,#2
        0x00001a46:    fa1ff980    ....    UXTH     r9,r0
        0x00001a4a:    897b        {.      LDRH     r3,[r7,#0xa]
        0x00001a4c:    1c70        p.      ADDS     r0,r6,#1
        0x00001a4e:    f04f34ff    O..4    MOV      r4,#0xffffffff
        0x00001a52:    4283        .B      CMP      r3,r0
        0x00001a54:    d903        ..      BLS      0x1a5e ; dhcp_parse_reply + 112
        0x00001a56:    eb0a0006    ....    ADD      r0,r10,r6
        0x00001a5a:    7840        @x      LDRB     r0,[r0,#1]
        0x00001a5c:    e003        ..      B        0x1a66 ; dhcp_parse_reply + 120
        0x00001a5e:    6838        8h      LDR      r0,[r7,#0]
        0x00001a60:    b108        ..      CBZ      r0,0x1a66 ; dhcp_parse_reply + 120
        0x00001a62:    6840        @h      LDR      r0,[r0,#4]
        0x00001a64:    7800        .x      LDRB     r0,[r0,#0]
        0x00001a66:    2a34        4*      CMP      r2,#0x34
        0x00001a68:    4605        .F      MOV      r5,r0
        0x00001a6a:    d064        d.      BEQ      0x1b36 ; dhcp_parse_reply + 328
        0x00001a6c:    dc0b        ..      BGT      0x1a86 ; dhcp_parse_reply + 152
        0x00001a6e:    2a03        .*      CMP      r2,#3
        0x00001a70:    d035        5.      BEQ      0x1ade ; dhcp_parse_reply + 240
        0x00001a72:    dc03        ..      BGT      0x1a7c ; dhcp_parse_reply + 142
        0x00001a74:    b32a        *.      CBZ      r2,0x1ac2 ; dhcp_parse_reply + 212
        0x00001a76:    2a01        .*      CMP      r2,#1
        0x00001a78:    d10d        ..      BNE      0x1a96 ; dhcp_parse_reply + 168
        0x00001a7a:    e027        '.      B        0x1acc ; dhcp_parse_reply + 222
        0x00001a7c:    2a06        .*      CMP      r2,#6
        0x00001a7e:    d038        8.      BEQ      0x1af2 ; dhcp_parse_reply + 260
        0x00001a80:    2a33        3*      CMP      r2,#0x33
        0x00001a82:    d108        ..      BNE      0x1a96 ; dhcp_parse_reply + 168
        0x00001a84:    e04d        M.      B        0x1b22 ; dhcp_parse_reply + 308
        0x00001a86:    2a35        5*      CMP      r2,#0x35
        0x00001a88:    d05e        ^.      BEQ      0x1b48 ; dhcp_parse_reply + 346
        0x00001a8a:    2a36        6*      CMP      r2,#0x36
        0x00001a8c:    d066        f.      BEQ      0x1b5c ; dhcp_parse_reply + 366
        0x00001a8e:    2a3a        :*      CMP      r2,#0x3a
        0x00001a90:    d06d        m.      BEQ      0x1b6e ; dhcp_parse_reply + 384
        0x00001a92:    2a3b        ;*      CMP      r2,#0x3b
        0x00001a94:    d075        u.      BEQ      0x1b82 ; dhcp_parse_reply + 404
        0x00001a96:    2500        .%      MOVS     r5,#0
        0x00001a98:    4430        0D      ADD      r0,r0,r6
        0x00001a9a:    1c80        ..      ADDS     r0,r0,#2
        0x00001a9c:    b286        ..      UXTH     r6,r0
        0x00001a9e:    b385        ..      CBZ      r5,0x1b02 ; dhcp_parse_reply + 276
        0x00001aa0:    2000        .       MOVS     r0,#0
        0x00001aa2:    9000        ..      STR      r0,[sp,#0]
        0x00001aa4:    2c0a        .,      CMP      r4,#0xa
        0x00001aa6:    d308        ..      BCC      0x1aba ; dhcp_parse_reply + 204
        0x00001aa8:    f6af13e4    ....    ADR      r3,{pc}-0x9e0 ; 0x10c8
        0x00001aac:    f24052ad    @..R    MOV      r2,#0x5ad
        0x00001ab0:    a16e        n.      ADR      r1,{pc}+0x1bc ; 0x1c6c
        0x00001ab2:    f6af109c    ....    ADR      r0,{pc}-0x99a ; 0x1118
        0x00001ab6:    f007fe6f    ..o.    BL       __0printf$5 ; 0x9798
        0x00001aba:    484e        NH      LDR      r0,[pc,#312] ; [0x1bf4] = 0x20000354
        0x00001abc:    5d00        .]      LDRB     r0,[r0,r4]
        0x00001abe:    b378        x.      CBZ      r0,0x1b20 ; dhcp_parse_reply + 306
        0x00001ac0:    e12f        /.      B        0x1d22 ; dhcp_parse_reply + 820
        0x00001ac2:    2000        .       MOVS     r0,#0
        0x00001ac4:    1e76        v.      SUBS     r6,r6,#1
        0x00001ac6:    4605        .F      MOV      r5,r0
        0x00001ac8:    b2b6        ..      UXTH     r6,r6
        0x00001aca:    e7e5        ..      B        0x1a98 ; dhcp_parse_reply + 170
        0x00001acc:    2804        .(      CMP      r0,#4
        0x00001ace:    d004        ..      BEQ      0x1ada ; dhcp_parse_reply + 236
        0x00001ad0:    f6af230c    ...#    ADR      r3,{pc}-0xa08 ; 0x10c8
        0x00001ad4:    f240527b    @.{R    MOV      r2,#0x57b
        0x00001ad8:    e029        ).      B        0x1b2e ; dhcp_parse_reply + 320
        0x00001ada:    2406        .$      MOVS     r4,#6
        0x00001adc:    e7dc        ..      B        0x1a98 ; dhcp_parse_reply + 170
        0x00001ade:    2504        .%      MOVS     r5,#4
        0x00001ae0:    2804        .(      CMP      r0,#4
        0x00001ae2:    d204        ..      BCS      0x1aee ; dhcp_parse_reply + 256
        0x00001ae4:    f6af2320    .. #    ADR      r3,{pc}-0xa1c ; 0x10c8
        0x00001ae8:    f44f62b0    O..b    MOV      r2,#0x580
        0x00001aec:    e014        ..      B        0x1b18 ; dhcp_parse_reply + 298
        0x00001aee:    2407        .$      MOVS     r4,#7
        0x00001af0:    e7d2        ..      B        0x1a98 ; dhcp_parse_reply + 170
        0x00001af2:    0782        ..      LSLS     r2,r0,#30
        0x00001af4:    d006        ..      BEQ      0x1b04 ; dhcp_parse_reply + 278
        0x00001af6:    f6af2330    ..0#    ADR      r3,{pc}-0xa2e ; 0x10c8
        0x00001afa:    f2405285    @..R    MOV      r2,#0x585
        0x00001afe:    a160        `.      ADR      r1,{pc}+0x182 ; 0x1c80
        0x00001b00:    e0f9        ..      B        0x1cf6 ; dhcp_parse_reply + 776
        0x00001b02:    e10e        ..      B        0x1d22 ; dhcp_parse_reply + 820
        0x00001b04:    2508        .%      MOVS     r5,#8
        0x00001b06:    2808        .(      CMP      r0,#8
        0x00001b08:    d200        ..      BCS      0x1b0c ; dhcp_parse_reply + 286
        0x00001b0a:    4605        .F      MOV      r5,r0
        0x00001b0c:    42a8        .B      CMP      r0,r5
        0x00001b0e:    d205        ..      BCS      0x1b1c ; dhcp_parse_reply + 302
        0x00001b10:    f6af234c    ..L#    ADR      r3,{pc}-0xa48 ; 0x10c8
        0x00001b14:    f44f62b1    O..b    MOV      r2,#0x588
        0x00001b18:    a15d        ].      ADR      r1,{pc}+0x178 ; 0x1c90
        0x00001b1a:    e0ec        ..      B        0x1cf6 ; dhcp_parse_reply + 776
        0x00001b1c:    2408        .$      MOVS     r4,#8
        0x00001b1e:    e7bb        ..      B        0x1a98 ; dhcp_parse_reply + 170
        0x00001b20:    e038        8.      B        0x1b94 ; dhcp_parse_reply + 422
        0x00001b22:    2804        .(      CMP      r0,#4
        0x00001b24:    d005        ..      BEQ      0x1b32 ; dhcp_parse_reply + 324
        0x00001b26:    f6af2360    ..`#    ADR      r3,{pc}-0xa5e ; 0x10c8
        0x00001b2a:    f240528c    @..R    MOV      r2,#0x58c
        0x00001b2e:    a15d        ].      ADR      r1,{pc}+0x176 ; 0x1ca4
        0x00001b30:    e0e1        ..      B        0x1cf6 ; dhcp_parse_reply + 776
        0x00001b32:    2403        .$      MOVS     r4,#3
        0x00001b34:    e7b0        ..      B        0x1a98 ; dhcp_parse_reply + 170
        0x00001b36:    2801        .(      CMP      r0,#1
        0x00001b38:    d004        ..      BEQ      0x1b44 ; dhcp_parse_reply + 342
        0x00001b3a:    f6af2374    ..t#    ADR      r3,{pc}-0xa72 ; 0x10c8
        0x00001b3e:    f44f62b2    O..b    MOV      r2,#0x590
        0x00001b42:    e007        ..      B        0x1b54 ; dhcp_parse_reply + 358
        0x00001b44:    2400        .$      MOVS     r4,#0
        0x00001b46:    e7a7        ..      B        0x1a98 ; dhcp_parse_reply + 170
        0x00001b48:    2801        .(      CMP      r0,#1
        0x00001b4a:    d005        ..      BEQ      0x1b58 ; dhcp_parse_reply + 362
        0x00001b4c:    f6af2388    ...#    ADR      r3,{pc}-0xa84 ; 0x10c8
        0x00001b50:    f2405294    @..R    MOV      r2,#0x594
        0x00001b54:    a156        V.      ADR      r1,{pc}+0x15c ; 0x1cb0
        0x00001b56:    e0ce        ..      B        0x1cf6 ; dhcp_parse_reply + 776
        0x00001b58:    2401        .$      MOVS     r4,#1
        0x00001b5a:    e79d        ..      B        0x1a98 ; dhcp_parse_reply + 170
        0x00001b5c:    2804        .(      CMP      r0,#4
        0x00001b5e:    d004        ..      BEQ      0x1b6a ; dhcp_parse_reply + 380
        0x00001b60:    f6af239c    ...#    ADR      r3,{pc}-0xa98 ; 0x10c8
        0x00001b64:    f44f62b3    O..b    MOV      r2,#0x598
        0x00001b68:    e7e1        ..      B        0x1b2e ; dhcp_parse_reply + 320
        0x00001b6a:    2402        .$      MOVS     r4,#2
        0x00001b6c:    e794        ..      B        0x1a98 ; dhcp_parse_reply + 170
        0x00001b6e:    2804        .(      CMP      r0,#4
        0x00001b70:    d005        ..      BEQ      0x1b7e ; dhcp_parse_reply + 400
        0x00001b72:    f6af23ac    ...#    ADR      r3,{pc}-0xaaa ; 0x10c8
        0x00001b76:    f240529c    @..R    MOV      r2,#0x59c
        0x00001b7a:    e7d8        ..      B        0x1b2e ; dhcp_parse_reply + 320
        0x00001b7c:    e001        ..      B        0x1b82 ; dhcp_parse_reply + 404
        0x00001b7e:    2404        .$      MOVS     r4,#4
        0x00001b80:    e78a        ..      B        0x1a98 ; dhcp_parse_reply + 170
        0x00001b82:    2804        .(      CMP      r0,#4
        0x00001b84:    d004        ..      BEQ      0x1b90 ; dhcp_parse_reply + 418
        0x00001b86:    f6af23c0    ...#    ADR      r3,{pc}-0xabe ; 0x10c8
        0x00001b8a:    f44f62b4    O..b    MOV      r2,#0x5a0
        0x00001b8e:    e7ce        ..      B        0x1b2e ; dhcp_parse_reply + 320
        0x00001b90:    2405        .$      MOVS     r4,#5
        0x00001b92:    e781        ..      B        0x1a98 ; dhcp_parse_reply + 170
        0x00001b94:    2204        ."      MOVS     r2,#4
        0x00001b96:    2d04        .-      CMP      r5,#4
        0x00001b98:    d200        ..      BCS      0x1b9c ; dhcp_parse_reply + 430
        0x00001b9a:    462a        *F      MOV      r2,r5
        0x00001b9c:    464b        KF      MOV      r3,r9
        0x00001b9e:    4669        iF      MOV      r1,sp
        0x00001ba0:    4638        8F      MOV      r0,r7
        0x00001ba2:    f001ff08    ....    BL       pbuf_copy_partial ; 0x39b6
        0x00001ba6:    2d04        .-      CMP      r5,#4
        0x00001ba8:    d906        ..      BLS      0x1bb8 ; dhcp_parse_reply + 458
        0x00001baa:    07a8        ..      LSLS     r0,r5,#30
        0x00001bac:    d005        ..      BEQ      0x1bba ; dhcp_parse_reply + 460
        0x00001bae:    f6af23e8    ...#    ADR      r3,{pc}-0xae6 ; 0x10c8
        0x00001bb2:    f24052b3    @..R    MOV      r2,#0x5b3
        0x00001bb6:    e081        ..      B        0x1cbc ; dhcp_parse_reply + 718
        0x00001bb8:    e094        ..      B        0x1ce4 ; dhcp_parse_reply + 758
        0x00001bba:    e081        ..      B        0x1cc0 ; dhcp_parse_reply + 722
    $d
        0x00001bbc:    70636864    dhcp    DCD    1885562980
        0x00001bc0:    6e69625f    _bin    DCD    1852400223
        0x00001bc4:    6e203a64    d: n    DCD    1847605860
        0x00001bc8:    66697465    etif    DCD    1718187109
        0x00001bcc:    203d2120     !=     DCD    540877088
        0x00001bd0:    4c4c554e    NULL    DCD    1280070990
        0x00001bd4:    00000000    ....    DCD    0
        0x00001bd8:    70636864    dhcp    DCD    1885562980
        0x00001bdc:    6e69625f    _bin    DCD    1852400223
        0x00001be0:    64203a64    d: d    DCD    1679833700
        0x00001be4:    20706368    hcp     DCD    544236392
        0x00001be8:    4e203d21    != N    DCD    1310735649
        0x00001bec:    004c4c55    ULL.    DCD    5000277
        0x00001bf0:    20000078    x..     DCD    536871032
        0x00001bf4:    20000354    T..     DCD    536871764
        0x00001bf8:    6974656e    neti    DCD    1769235822
        0x00001bfc:    3d212066    f !=    DCD    1025581158
        0x00001c00:    4c554e20     NUL    DCD    1280658976
        0x00001c04:    0000004c    L...    DCD    76
        0x00001c08:    70636864    dhcp    DCD    1885562980
        0x00001c0c:    203d2120     !=     DCD    540877088
        0x00001c10:    4c4c554e    NULL    DCD    1280070990
        0x00001c14:    00000000    ....    DCD    0
        0x00001c18:    6974656e    neti    DCD    1769235822
        0x00001c1c:    6c612066    f al    DCD    1818304614
        0x00001c20:    64616572    read    DCD    1684104562
        0x00001c24:    61682079    y ha    DCD    1634214009
        0x00001c28:    20612073    s a     DCD    543236211
        0x00001c2c:    75727473    stru    DCD    1970435187
        0x00001c30:    64207463    ct d    DCD    1679848547
        0x00001c34:    20706368    hcp     DCD    544236392
        0x00001c38:    00746573    set.    DCD    7628147
        0x00001c3c:    6c706572    repl    DCD    1819305330
        0x00001c40:    61772079    y wa    DCD    1635197049
        0x00001c44:    74276e73    sn't    DCD    1948741235
        0x00001c48:    65726620     fre    DCD    1701996064
        0x00001c4c:    00006465    ed..    DCD    25701
        0x00001c50:    70636864    dhcp    DCD    1885562980
        0x00001c54:    6f74735f    _sto    DCD    1869902687
        0x00001c58:    6e203a70    p: n    DCD    1847605872
        0x00001c5c:    66697465    etif    DCD    1718187109
        0x00001c60:    203d2120     !=     DCD    540877088
        0x00001c64:    4c4c554e    NULL    DCD    1280070990
        0x00001c68:    00000000    ....    DCD    0
        0x00001c6c:    63656863    chec    DCD    1667590243
        0x00001c70:    6564206b    k de    DCD    1701060715
        0x00001c74:    65646f63    code    DCD    1701080931
        0x00001c78:    7864695f    _idx    DCD    2019846495
        0x00001c7c:    00000000    ....    DCD    0
        0x00001c80:    206e656c    len     DCD    544105836
        0x00001c84:    20342025    % 4     DCD    540287013
        0x00001c88:    30203d3d    == 0    DCD    807419197
        0x00001c8c:    00000000    ....    DCD    0
        0x00001c90:    206e656c    len     DCD    544105836
        0x00001c94:    64203d3e    >= d    DCD    1679834430
        0x00001c98:    646f6365    ecod    DCD    1685021541
        0x00001c9c:    656c5f65    e_le    DCD    1701601125
        0x00001ca0:    0000006e    n...    DCD    110
        0x00001ca4:    206e656c    len     DCD    544105836
        0x00001ca8:    34203d3d    == 4    DCD    874528061
        0x00001cac:    00000000    ....    DCD    0
        0x00001cb0:    206e656c    len     DCD    544105836
        0x00001cb4:    31203d3d    == 1    DCD    824196413
        0x00001cb8:    00000000    ....    DCD    0
    $t
        0x00001cbc:    a1f8        ..      ADR      r1,{pc}+0x3e4 ; 0x20a0
        0x00001cbe:    e01a        ..      B        0x1cf6 ; dhcp_parse_reply + 776
        0x00001cc0:    4afc        .J      LDR      r2,[pc,#1008] ; [0x20b4] = 0x20000354
        0x00001cc2:    2001        .       MOVS     r0,#1
        0x00001cc4:    5510        .U      STRB     r0,[r2,r4]
        0x00001cc6:    9800        ..      LDR      r0,[sp,#0]
        0x00001cc8:    f7fff848    ..H.    BL       lwip_htonl ; 0xd5c
        0x00001ccc:    4af9        .J      LDR      r2,[pc,#996] ; [0x20b4] = 0x20000354
        0x00001cce:    1f2d        -.      SUBS     r5,r5,#4
        0x00001cd0:    3a28        (:      SUBS     r2,r2,#0x28
        0x00001cd2:    f1090904    ....    ADD      r9,r9,#4
        0x00001cd6:    f8420024    B.$.    STR      r0,[r2,r4,LSL #2]
        0x00001cda:    b2ed        ..      UXTB     r5,r5
        0x00001cdc:    fa1ff989    ....    UXTH     r9,r9
        0x00001ce0:    1c64        d.      ADDS     r4,r4,#1
        0x00001ce2:    e6df        ..      B        0x1aa4 ; dhcp_parse_reply + 182
        0x00001ce4:    2d04        .-      CMP      r5,#4
        0x00001ce6:    d00d        ..      BEQ      0x1d04 ; dhcp_parse_reply + 790
        0x00001ce8:    2d01        .-      CMP      r5,#1
        0x00001cea:    d00f        ..      BEQ      0x1d0c ; dhcp_parse_reply + 798
        0x00001cec:    f6af4328    ..(C    ADR      r3,{pc}-0xc24 ; 0x10c8
        0x00001cf0:    f24052bd    @..R    MOV      r2,#0x5bd
        0x00001cf4:    a1f0        ..      ADR      r1,{pc}+0x3c4 ; 0x20b8
        0x00001cf6:    f6af30e0    ...0    ADR      r0,{pc}-0xbde ; 0x1118
        0x00001cfa:    f007fd4d    ..M.    BL       __0printf$5 ; 0x9798
        0x00001cfe:    f06f0005    o...    MVN      r0,#5
        0x00001d02:    e69c        ..      B        0x1a3e ; dhcp_parse_reply + 80
        0x00001d04:    9800        ..      LDR      r0,[sp,#0]
        0x00001d06:    f7fff82b    ..+.    BL       lwip_ntohl ; 0xd60
        0x00001d0a:    e001        ..      B        0x1d10 ; dhcp_parse_reply + 802
        0x00001d0c:    f89d0000    ....    LDRB     r0,[sp,#0]
        0x00001d10:    4ae8        .J      LDR      r2,[pc,#928] ; [0x20b4] = 0x20000354
        0x00001d12:    9000        ..      STR      r0,[sp,#0]
        0x00001d14:    2001        .       MOVS     r0,#1
        0x00001d16:    5510        .U      STRB     r0,[r2,r4]
        0x00001d18:    48e6        .H      LDR      r0,[pc,#920] ; [0x20b4] = 0x20000354
        0x00001d1a:    9a00        ..      LDR      r2,[sp,#0]
        0x00001d1c:    3828        (8      SUBS     r0,r0,#0x28
        0x00001d1e:    f8402024    @.$     STR      r2,[r0,r4,LSL #2]
        0x00001d22:    8978        x.      LDRH     r0,[r7,#0xa]
        0x00001d24:    42b0        .B      CMP      r0,r6
        0x00001d26:    d817        ..      BHI      0x1d58 ; dhcp_parse_reply + 874
        0x00001d28:    1a31        1.      SUBS     r1,r6,r0
        0x00001d2a:    eba80000    ....    SUB      r0,r8,r0
        0x00001d2e:    b28e        ..      UXTH     r6,r1
        0x00001d30:    fa1ff880    ....    UXTH     r8,r0
        0x00001d34:    4546        FE      CMP      r6,r8
        0x00001d36:    d217        ..      BCS      0x1d68 ; dhcp_parse_reply + 890
        0x00001d38:    f1b80f00    ....    CMP      r8,#0
        0x00001d3c:    d014        ..      BEQ      0x1d68 ; dhcp_parse_reply + 890
        0x00001d3e:    683f        ?h      LDR      r7,[r7,#0]
        0x00001d40:    b947        G.      CBNZ     r7,0x1d54 ; dhcp_parse_reply + 870
        0x00001d42:    f6af437c    ..|C    ADR      r3,{pc}-0xc7a ; 0x10c8
        0x00001d46:    f24052c9    @..R    MOV      r2,#0x5c9
        0x00001d4a:    a1e0        ..      ADR      r1,{pc}+0x382 ; 0x20cc
        0x00001d4c:    f6af4038    ..8@    ADR      r0,{pc}-0xc34 ; 0x1118
        0x00001d50:    f007fd22    ..".    BL       __0printf$5 ; 0x9798
        0x00001d54:    f8d7a004    ....    LDR      r10,[r7,#4]
        0x00001d58:    b137        7.      CBZ      r7,0x1d68 ; dhcp_parse_reply + 890
        0x00001d5a:    f81a2006    ...     LDRB     r2,[r10,r6]
        0x00001d5e:    2aff        .*      CMP      r2,#0xff
        0x00001d60:    d002        ..      BEQ      0x1d68 ; dhcp_parse_reply + 890
        0x00001d62:    4546        FE      CMP      r6,r8
        0x00001d64:    f4ffae6e    ..n.    BCC      0x1a44 ; dhcp_parse_reply + 86
        0x00001d68:    49d2        .I      LDR      r1,[pc,#840] ; [0x20b4] = 0x20000354
        0x00001d6a:    7808        .x      LDRB     r0,[r1,#0]
        0x00001d6c:    b168        h.      CBZ      r0,0x1d8a ; dhcp_parse_reply + 924
        0x00001d6e:    f1a10028    ..(.    SUB      r0,r1,#0x28
        0x00001d72:    2200        ."      MOVS     r2,#0
        0x00001d74:    6800        .h      LDR      r0,[r0,#0]
        0x00001d76:    700a        .p      STRB     r2,[r1,#0]
        0x00001d78:    2801        .(      CMP      r0,#1
        0x00001d7a:    d008        ..      BEQ      0x1d8e ; dhcp_parse_reply + 928
        0x00001d7c:    2802        .(      CMP      r0,#2
        0x00001d7e:    d002        ..      BEQ      0x1d86 ; dhcp_parse_reply + 920
        0x00001d80:    2803        .(      CMP      r0,#3
        0x00001d82:    d00a        ..      BEQ      0x1d9a ; dhcp_parse_reply + 940
        0x00001d84:    e001        ..      B        0x1d8a ; dhcp_parse_reply + 924
        0x00001d86:    f04f0b01    O...    MOV      r11,#1
        0x00001d8a:    9801        ..      LDR      r0,[sp,#4]
        0x00001d8c:    b140        @.      CBZ      r0,0x1da0 ; dhcp_parse_reply + 946
        0x00001d8e:    2000        .       MOVS     r0,#0
        0x00001d90:    266c        l&      MOVS     r6,#0x6c
        0x00001d92:    f04f08ec    O...    MOV      r8,#0xec
        0x00001d96:    9001        ..      STR      r0,[sp,#4]
        0x00001d98:    e63f        ?.      B        0x1a1a ; dhcp_parse_reply + 44
        0x00001d9a:    f04f0b01    O...    MOV      r11,#1
        0x00001d9e:    e7f6        ..      B        0x1d8e ; dhcp_parse_reply + 928
        0x00001da0:    f1bb0f00    ....    CMP      r11,#0
        0x00001da4:    d005        ..      BEQ      0x1db2 ; dhcp_parse_reply + 964
        0x00001da6:    f04f0b00    O...    MOV      r11,#0
        0x00001daa:    262c        ,&      MOVS     r6,#0x2c
        0x00001dac:    f04f086c    O.l.    MOV      r8,#0x6c
        0x00001db0:    e633        3.      B        0x1a1a ; dhcp_parse_reply + 44
        0x00001db2:    2000        .       MOVS     r0,#0
        0x00001db4:    e643        C.      B        0x1a3e ; dhcp_parse_reply + 80
    dhcp_recv
        0x00001db6:    e92d41f0    -..A    PUSH     {r4-r8,lr}
        0x00001dba:    6a04        .j      LDR      r4,[r0,#0x20]
        0x00001dbc:    4605        .F      MOV      r5,r0
        0x00001dbe:    6856        Vh      LDR      r6,[r2,#4]
        0x00001dc0:    68a0        .h      LDR      r0,[r4,#8]
        0x00001dc2:    4617        .F      MOV      r7,r2
        0x00001dc4:    b148        H.      CBZ      r0,0x1dda ; dhcp_recv + 36
        0x00001dc6:    f6af5300    ...S    ADR      r3,{pc}-0xcfe ; 0x10c8
        0x00001dca:    f2406211    @..b    MOV      r2,#0x611
        0x00001dce:    f2af1194    ....    ADR      r1,{pc}-0x192 ; 0x1c3c
        0x00001dd2:    f6af40bc    ...@    ADR      r0,{pc}-0xcba ; 0x1118
        0x00001dd6:    f007fcdf    ....    BL       __0printf$5 ; 0x9798
        0x00001dda:    8978        x.      LDRH     r0,[r7,#0xa]
        0x00001ddc:    f04f0800    O...    MOV      r8,#0
        0x00001de0:    282c        ,(      CMP      r0,#0x2c
        0x00001de2:    d372        r.      BCC      0x1eca ; dhcp_recv + 276
        0x00001de4:    7830        0x      LDRB     r0,[r6,#0]
        0x00001de6:    2802        .(      CMP      r0,#2
        0x00001de8:    d16f        o.      BNE      0x1eca ; dhcp_recv + 276
        0x00001dea:    2000        .       MOVS     r0,#0
        0x00001dec:    f8951026    ..&.    LDRB     r1,[r5,#0x26]
        0x00001df0:    e008        ..      B        0x1e04 ; dhcp_recv + 78
        0x00001df2:    182a        *.      ADDS     r2,r5,r0
        0x00001df4:    1833        3.      ADDS     r3,r6,r0
        0x00001df6:    f8922027    ..'     LDRB     r2,[r2,#0x27]
        0x00001dfa:    7f1b        ..      LDRB     r3,[r3,#0x1c]
        0x00001dfc:    429a        .B      CMP      r2,r3
        0x00001dfe:    d164        d.      BNE      0x1eca ; dhcp_recv + 276
        0x00001e00:    1c40        @.      ADDS     r0,r0,#1
        0x00001e02:    b2c0        ..      UXTB     r0,r0
        0x00001e04:    4281        .B      CMP      r1,r0
        0x00001e06:    d8f4        ..      BHI      0x1df2 ; dhcp_recv + 60
        0x00001e08:    6870        ph      LDR      r0,[r6,#4]
        0x00001e0a:    f7feffa9    ....    BL       lwip_ntohl ; 0xd60
        0x00001e0e:    6821        !h      LDR      r1,[r4,#0]
        0x00001e10:    4288        .B      CMP      r0,r1
        0x00001e12:    d15a        Z.      BNE      0x1eca ; dhcp_recv + 276
        0x00001e14:    4639        9F      MOV      r1,r7
        0x00001e16:    4620         F      MOV      r0,r4
        0x00001e18:    f7fffde9    ....    BL       dhcp_parse_reply ; 0x19ee
        0x00001e1c:    bb08        ..      CBNZ     r0,0x1e62 ; dhcp_recv + 172
        0x00001e1e:    49a5        .I      LDR      r1,[pc,#660] ; [0x20b4] = 0x20000354
        0x00001e20:    7848        Hx      LDRB     r0,[r1,#1]
        0x00001e22:    b1f0        ..      CBZ      r0,0x1e62 ; dhcp_recv + 172
        0x00001e24:    f1a10228    ..(.    SUB      r2,r1,#0x28
        0x00001e28:    6850        Ph      LDR      r0,[r2,#4]
        0x00001e2a:    b2c0        ..      UXTB     r0,r0
        0x00001e2c:    2805        .(      CMP      r0,#5
        0x00001e2e:    d004        ..      BEQ      0x1e3a ; dhcp_recv + 132
        0x00001e30:    2806        .(      CMP      r0,#6
        0x00001e32:    d017        ..      BEQ      0x1e64 ; dhcp_recv + 174
        0x00001e34:    2802        .(      CMP      r0,#2
        0x00001e36:    d036        6.      BEQ      0x1ea6 ; dhcp_recv + 240
        0x00001e38:    e047        G.      B        0x1eca ; dhcp_recv + 276
        0x00001e3a:    7b20         {      LDRB     r0,[r4,#0xc]
        0x00001e3c:    2801        .(      CMP      r0,#1
        0x00001e3e:    d006        ..      BEQ      0x1e4e ; dhcp_recv + 152
        0x00001e40:    2803        .(      CMP      r0,#3
        0x00001e42:    d00b        ..      BEQ      0x1e5c ; dhcp_recv + 166
        0x00001e44:    2804        .(      CMP      r0,#4
        0x00001e46:    d009        ..      BEQ      0x1e5c ; dhcp_recv + 166
        0x00001e48:    2805        .(      CMP      r0,#5
        0x00001e4a:    d007        ..      BEQ      0x1e5c ; dhcp_recv + 166
        0x00001e4c:    e03d        =.      B        0x1eca ; dhcp_recv + 276
        0x00001e4e:    4628        (F      MOV      r0,r5
        0x00001e50:    f7fffd25    ..%.    BL       dhcp_handle_ack ; 0x189e
        0x00001e54:    4628        (F      MOV      r0,r5
        0x00001e56:    f7fffa7c    ..|.    BL       dhcp_check ; 0x1352
        0x00001e5a:    e036        6.      B        0x1eca ; dhcp_recv + 276
        0x00001e5c:    4628        (F      MOV      r0,r5
        0x00001e5e:    f7fffc6e    ..n.    BL       dhcp_bind ; 0x173e
        0x00001e62:    e032        2.      B        0x1eca ; dhcp_recv + 276
        0x00001e64:    7b20         {      LDRB     r0,[r4,#0xc]
        0x00001e66:    2803        .(      CMP      r0,#3
        0x00001e68:    d005        ..      BEQ      0x1e76 ; dhcp_recv + 192
        0x00001e6a:    2801        .(      CMP      r0,#1
        0x00001e6c:    d003        ..      BEQ      0x1e76 ; dhcp_recv + 192
        0x00001e6e:    2804        .(      CMP      r0,#4
        0x00001e70:    d001        ..      BEQ      0x1e76 ; dhcp_recv + 192
        0x00001e72:    2805        .(      CMP      r0,#5
        0x00001e74:    d129        ).      BNE      0x1eca ; dhcp_recv + 276
        0x00001e76:    4628        (F      MOV      r0,r5
        0x00001e78:    6a2e        .j      LDR      r6,[r5,#0x20]
        0x00001e7a:    f001f8c8    ....    BL       netif_set_down ; 0x300e
        0x00001e7e:    4998        .I      LDR      r1,[pc,#608] ; [0x20e0] = 0x9c10
        0x00001e80:    4628        (F      MOV      r0,r5
        0x00001e82:    f001f84e    ..N.    BL       netif_set_ipaddr ; 0x2f22
        0x00001e86:    4996        .I      LDR      r1,[pc,#600] ; [0x20e0] = 0x9c10
        0x00001e88:    4628        (F      MOV      r0,r5
        0x00001e8a:    f001f842    ..B.    BL       netif_set_gw ; 0x2f12
        0x00001e8e:    4994        .I      LDR      r1,[pc,#592] ; [0x20e0] = 0x9c10
        0x00001e90:    4628        (F      MOV      r0,r5
        0x00001e92:    f001f842    ..B.    BL       netif_set_netmask ; 0x2f1a
        0x00001e96:    210c        .!      MOVS     r1,#0xc
        0x00001e98:    4630        0F      MOV      r0,r6
        0x00001e9a:    f000f94a    ..J.    BL       dhcp_set_state ; 0x2132
        0x00001e9e:    4628        (F      MOV      r0,r5
        0x00001ea0:    f7fff8c5    ....    BL       dhcp_discover ; 0x102e
        0x00001ea4:    e011        ..      B        0x1eca ; dhcp_recv + 276
        0x00001ea6:    7b20         {      LDRB     r0,[r4,#0xc]
        0x00001ea8:    2806        .(      CMP      r0,#6
        0x00001eaa:    d10e        ..      BNE      0x1eca ; dhcp_recv + 276
        0x00001eac:    f8a4801a    ....    STRH     r8,[r4,#0x1a]
        0x00001eb0:    7888        .x      LDRB     r0,[r1,#2]
        0x00001eb2:    6a2e        .j      LDR      r6,[r5,#0x20]
        0x00001eb4:    b148        H.      CBZ      r0,0x1eca ; dhcp_recv + 276
        0x00001eb6:    6890        .h      LDR      r0,[r2,#8]
        0x00001eb8:    f7feff50    ..P.    BL       lwip_htonl ; 0xd5c
        0x00001ebc:    6230        0b      STR      r0,[r6,#0x20]
        0x00001ebe:    68b0        .h      LDR      r0,[r6,#8]
        0x00001ec0:    6900        .i      LDR      r0,[r0,#0x10]
        0x00001ec2:    6270        pb      STR      r0,[r6,#0x24]
        0x00001ec4:    4628        (F      MOV      r0,r5
        0x00001ec6:    f7fffa87    ....    BL       dhcp_select ; 0x13d8
        0x00001eca:    4638        8F      MOV      r0,r7
        0x00001ecc:    f8c48008    ....    STR      r8,[r4,#8]
        0x00001ed0:    e8bd41f0    ...A    POP      {r4-r8,lr}
        0x00001ed4:    f001b95a    ..Z.    B.W      pbuf_free ; 0x318c
    dhcp_start
        0x00001ed8:    b570        p.      PUSH     {r4-r6,lr}
        0x00001eda:    0005        ..      MOVS     r5,r0
        0x00001edc:    f06f060d    o...    MVN      r6,#0xd
        0x00001ee0:    d04d        M.      BEQ      0x1f7e ; dhcp_start + 166
        0x00001ee2:    f895002d    ..-.    LDRB     r0,[r5,#0x2d]
        0x00001ee6:    6a2c        ,j      LDR      r4,[r5,#0x20]
        0x00001ee8:    f0200008     ...    BIC      r0,r0,#8
        0x00001eec:    f885002d    ..-.    STRB     r0,[r5,#0x2d]
        0x00001ef0:    0680        ..      LSLS     r0,r0,#26
        0x00001ef2:    d556        V.      BPL      0x1fa2 ; dhcp_start + 202
        0x00001ef4:    8ca8        ..      LDRH     r0,[r5,#0x24]
        0x00001ef6:    1136        6.      ASRS     r6,r6,#4
        0x00001ef8:    f5b07f10    ....    CMP      r0,#0x240
        0x00001efc:    d351        Q.      BCC      0x1fa2 ; dhcp_start + 202
        0x00001efe:    b3ec        ..      CBZ      r4,0x1f7c ; dhcp_start + 164
        0x00001f00:    6860        `h      LDR      r0,[r4,#4]
        0x00001f02:    b108        ..      CBZ      r0,0x1f08 ; dhcp_start + 48
        0x00001f04:    f005fa1c    ....    BL       udp_remove ; 0x7340
        0x00001f08:    6920         i      LDR      r0,[r4,#0x10]
        0x00001f0a:    b140        @.      CBZ      r0,0x1f1e ; dhcp_start + 70
        0x00001f0c:    f6af6348    ..Hc    ADR      r3,{pc}-0xe44 ; 0x10c8
        0x00001f10:    f240229e    @.."    MOV      r2,#0x29e
        0x00001f14:    a173        s.      ADR      r1,{pc}+0x1d0 ; 0x20e4
        0x00001f16:    f6af6000    ...`    ADR      r0,{pc}-0xdfe ; 0x1118
        0x00001f1a:    f007fc3d    ..=.    BL       __0printf$5 ; 0x9798
        0x00001f1e:    68a0        .h      LDR      r0,[r4,#8]
        0x00001f20:    b148        H.      CBZ      r0,0x1f36 ; dhcp_start + 94
        0x00001f22:    f6af635c    ..\c    ADR      r3,{pc}-0xe5a ; 0x10c8
        0x00001f26:    f240229f    @.."    MOV      r2,#0x29f
        0x00001f2a:    f2af21f0    ...!    ADR      r1,{pc}-0x2ee ; 0x1c3c
        0x00001f2e:    f6af6018    ...`    ADR      r0,{pc}-0xe16 ; 0x1118
        0x00001f32:    f007fc31    ..1.    BL       __0printf$5 ; 0x9798
        0x00001f36:    213c        <!      MOVS     r1,#0x3c
        0x00001f38:    4620         F      MOV      r0,r4
        0x00001f3a:    f007fbcd    ....    BL       __aeabi_memclr ; 0x96d8
        0x00001f3e:    f005fa13    ....    BL       udp_new ; 0x7368
        0x00001f42:    6060        ``      STR      r0,[r4,#4]
        0x00001f44:    b328        (.      CBZ      r0,0x1f92 ; dhcp_start + 186
        0x00001f46:    7a01        .z      LDRB     r1,[r0,#8]
        0x00001f48:    2244        D"      MOVS     r2,#0x44
        0x00001f4a:    f0410120    A. .    ORR      r1,r1,#0x20
        0x00001f4e:    7201        .r      STRB     r1,[r0,#8]
        0x00001f50:    4963        cI      LDR      r1,[pc,#396] ; [0x20e0] = 0x9c10
        0x00001f52:    6860        `h      LDR      r0,[r4,#4]
        0x00001f54:    f005f8da    ....    BL       udp_bind ; 0x710c
        0x00001f58:    2243        C"      MOVS     r2,#0x43
        0x00001f5a:    4961        aI      LDR      r1,[pc,#388] ; [0x20e0] = 0x9c10
        0x00001f5c:    6860        `h      LDR      r0,[r4,#4]
        0x00001f5e:    f005f9c0    ....    BL       udp_connect ; 0x72e2
        0x00001f62:    462a        *F      MOV      r2,r5
        0x00001f64:    4965        eI      LDR      r1,[pc,#404] ; [0x20fc] = 0x1db7
        0x00001f66:    6860        `h      LDR      r0,[r4,#4]
        0x00001f68:    f005f9e7    ....    BL       udp_recv ; 0x733a
        0x00001f6c:    4628        (F      MOV      r0,r5
        0x00001f6e:    f7fff85e    ..^.    BL       dhcp_discover ; 0x102e
        0x00001f72:    b1c0        ..      CBZ      r0,0x1fa6 ; dhcp_start + 206
        0x00001f74:    4628        (F      MOV      r0,r5
        0x00001f76:    f7fffd0d    ....    BL       dhcp_stop ; 0x1994
        0x00001f7a:    e012        ..      B        0x1fa2 ; dhcp_start + 202
        0x00001f7c:    e00a        ..      B        0x1f94 ; dhcp_start + 188
        0x00001f7e:    f6af63b8    ...c    ADR      r3,{pc}-0xeb6 ; 0x10c8
        0x00001f82:    f240227a    @.z"    MOV      r2,#0x27a
        0x00001f86:    f2af3190    ...1    ADR      r1,{pc}-0x38e ; 0x1bf8
        0x00001f8a:    f6af6074    ..t`    ADR      r0,{pc}-0xe72 ; 0x1118
        0x00001f8e:    f007fc03    ....    BL       __0printf$5 ; 0x9798
        0x00001f92:    e006        ..      B        0x1fa2 ; dhcp_start + 202
        0x00001f94:    203c        <       MOVS     r0,#0x3c
        0x00001f96:    f000fd70    ..p.    BL       mem_malloc ; 0x2a7a
        0x00001f9a:    0004        ..      MOVS     r4,r0
        0x00001f9c:    d001        ..      BEQ      0x1fa2 ; dhcp_start + 202
        0x00001f9e:    622c        ,b      STR      r4,[r5,#0x20]
        0x00001fa0:    e7c9        ..      B        0x1f36 ; dhcp_start + 94
        0x00001fa2:    4630        0F      MOV      r0,r6
        0x00001fa4:    bd70        p.      POP      {r4-r6,pc}
        0x00001fa6:    f8151f2d    ..-.    LDRB     r1,[r5,#0x2d]!
        0x00001faa:    f0410108    A...    ORR      r1,r1,#8
        0x00001fae:    7029        )p      STRB     r1,[r5,#0]
        0x00001fb0:    bd70        p.      POP      {r4-r6,pc}
    dhcp_inform
        0x00001fb2:    b530        0.      PUSH     {r4,r5,lr}
        0x00001fb4:    b091        ..      SUB      sp,sp,#0x44
        0x00001fb6:    0005        ..      MOVS     r5,r0
        0x00001fb8:    d00c        ..      BEQ      0x1fd4 ; dhcp_inform + 34
        0x00001fba:    213c        <!      MOVS     r1,#0x3c
        0x00001fbc:    a801        ..      ADD      r0,sp,#4
        0x00001fbe:    f007fb8b    ....    BL       __aeabi_memclr ; 0x96d8
        0x00001fc2:    2108        .!      MOVS     r1,#8
        0x00001fc4:    a801        ..      ADD      r0,sp,#4
        0x00001fc6:    f000f8b4    ....    BL       dhcp_set_state ; 0x2132
        0x00001fca:    6a28        (j      LDR      r0,[r5,#0x20]
        0x00001fcc:    b170        p.      CBZ      r0,0x1fec ; dhcp_inform + 58
        0x00001fce:    6844        Dh      LDR      r4,[r0,#4]
        0x00001fd0:    b9d4        ..      CBNZ     r4,0x2008 ; dhcp_inform + 86
        0x00001fd2:    e00b        ..      B        0x1fec ; dhcp_inform + 58
        0x00001fd4:    f6af7310    ...s    ADR      r3,{pc}-0xf0c ; 0x10c8
        0x00001fd8:    f24022ce    @.."    MOV      r2,#0x2ce
        0x00001fdc:    f2af31e8    ...1    ADR      r1,{pc}-0x3e4 ; 0x1bf8
        0x00001fe0:    f6af60cc    ...`    ADR      r0,{pc}-0xec8 ; 0x1118
        0x00001fe4:    f007fbd8    ....    BL       __0printf$5 ; 0x9798
        0x00001fe8:    b011        ..      ADD      sp,sp,#0x44
        0x00001fea:    bd30        0.      POP      {r4,r5,pc}
        0x00001fec:    f005f9bc    ....    BL       udp_new ; 0x7368
        0x00001ff0:    0004        ..      MOVS     r4,r0
        0x00001ff2:    d0f9        ..      BEQ      0x1fe8 ; dhcp_inform + 54
        0x00001ff4:    9402        ..      STR      r4,[sp,#8]
        0x00001ff6:    7a20         z      LDRB     r0,[r4,#8]
        0x00001ff8:    2244        D"      MOVS     r2,#0x44
        0x00001ffa:    f0400020    @. .    ORR      r0,r0,#0x20
        0x00001ffe:    7220         r      STRB     r0,[r4,#8]
        0x00002000:    4937        7I      LDR      r1,[pc,#220] ; [0x20e0] = 0x9c10
        0x00002002:    9802        ..      LDR      r0,[sp,#8]
        0x00002004:    f005f882    ....    BL       udp_bind ; 0x710c
        0x00002008:    2208        ."      MOVS     r2,#8
        0x0000200a:    a901        ..      ADD      r1,sp,#4
        0x0000200c:    4628        (F      MOV      r0,r5
        0x0000200e:    f7feff57    ..W.    BL       dhcp_create_msg ; 0xec0
        0x00002012:    b9e0        ..      CBNZ     r0,0x204e ; dhcp_inform + 156
        0x00002014:    2202        ."      MOVS     r2,#2
        0x00002016:    2139        9!      MOVS     r1,#0x39
        0x00002018:    a801        ..      ADD      r0,sp,#4
        0x0000201a:    f7feff13    ....    BL       dhcp_option ; 0xe44
        0x0000201e:    8ca9        ..      LDRH     r1,[r5,#0x24]
        0x00002020:    a801        ..      ADD      r0,sp,#4
        0x00002022:    f7feff2e    ....    BL       dhcp_option_short ; 0xe82
        0x00002026:    a801        ..      ADD      r0,sp,#4
        0x00002028:    f7fefec3    ....    BL       dhcp_option_trailer ; 0xdb2
        0x0000202c:    f8bd001c    ....    LDRH     r0,[sp,#0x1c]
        0x00002030:    30f0        .0      ADDS     r0,r0,#0xf0
        0x00002032:    b281        ..      UXTH     r1,r0
        0x00002034:    9805        ..      LDR      r0,[sp,#0x14]
        0x00002036:    f001f9db    ....    BL       pbuf_realloc ; 0x33f0
        0x0000203a:    9500        ..      STR      r5,[sp,#0]
        0x0000203c:    2343        C#      MOVS     r3,#0x43
        0x0000203e:    4a30        0J      LDR      r2,[pc,#192] ; [0x2100] = 0x9c14
        0x00002040:    4620         F      MOV      r0,r4
        0x00002042:    9905        ..      LDR      r1,[sp,#0x14]
        0x00002044:    f005f8c1    ....    BL       udp_sendto_if ; 0x71ca
        0x00002048:    a801        ..      ADD      r0,sp,#4
        0x0000204a:    f7fefe8b    ....    BL       dhcp_delete_msg ; 0xd64
        0x0000204e:    9802        ..      LDR      r0,[sp,#8]
        0x00002050:    2800        .(      CMP      r0,#0
        0x00002052:    d0c9        ..      BEQ      0x1fe8 ; dhcp_inform + 54
        0x00002054:    f005f974    ..t.    BL       udp_remove ; 0x7340
        0x00002058:    e7c6        ..      B        0x1fe8 ; dhcp_inform + 54
    dhcp_network_changed
        0x0000205a:    b570        p.      PUSH     {r4-r6,lr}
        0x0000205c:    6a04        .j      LDR      r4,[r0,#0x20]
        0x0000205e:    4605        .F      MOV      r5,r0
        0x00002060:    2c00        .,      CMP      r4,#0
        0x00002062:    d01c        ..      BEQ      0x209e ; dhcp_network_changed + 68
        0x00002064:    7b20         {      LDRB     r0,[r4,#0xc]
        0x00002066:    2600        .&      MOVS     r6,#0
        0x00002068:    2804        .(      CMP      r0,#4
        0x0000206a:    d00f        ..      BEQ      0x208c ; dhcp_network_changed + 50
        0x0000206c:    dc04        ..      BGT      0x2078 ; dhcp_network_changed + 30
        0x0000206e:    2800        .(      CMP      r0,#0
        0x00002070:    d015        ..      BEQ      0x209e ; dhcp_network_changed + 68
        0x00002072:    2803        .(      CMP      r0,#3
        0x00002074:    d104        ..      BNE      0x2080 ; dhcp_network_changed + 38
        0x00002076:    e009        ..      B        0x208c ; dhcp_network_changed + 50
        0x00002078:    2805        .(      CMP      r0,#5
        0x0000207a:    d007        ..      BEQ      0x208c ; dhcp_network_changed + 50
        0x0000207c:    280a        .(      CMP      r0,#0xa
        0x0000207e:    d005        ..      BEQ      0x208c ; dhcp_network_changed + 50
        0x00002080:    7366        fs      STRB     r6,[r4,#0xd]
        0x00002082:    4628        (F      MOV      r0,r5
        0x00002084:    e8bd4070    ..p@    POP      {r4-r6,lr}
        0x00002088:    f7febfd1    ....    B        dhcp_discover ; 0x102e
        0x0000208c:    4628        (F      MOV      r0,r5
        0x0000208e:    f000ffbe    ....    BL       netif_set_down ; 0x300e
        0x00002092:    7366        fs      STRB     r6,[r4,#0xd]
        0x00002094:    4628        (F      MOV      r0,r5
        0x00002096:    e8bd4070    ..p@    POP      {r4-r6,lr}
        0x0000209a:    f7ffbab6    ....    B        dhcp_reboot ; 0x160a
        0x0000209e:    bd70        p.      POP      {r4-r6,pc}
    $d
        0x000020a0:    6f636564    deco    DCD    1868784996
        0x000020a4:    6c5f6564    de_l    DCD    1818191204
        0x000020a8:    25206e65    en %    DCD    622882405
        0x000020ac:    3d203420     4 =    DCD    1025520672
        0x000020b0:    0030203d    = 0.    DCD    3153981
        0x000020b4:    20000354    T..     DCD    536871764
        0x000020b8:    61766e69    inva    DCD    1635151465
        0x000020bc:    2064696c    lid     DCD    543451500
        0x000020c0:    6f636564    deco    DCD    1868784996
        0x000020c4:    6c5f6564    de_l    DCD    1818191204
        0x000020c8:    00006e65    en..    DCD    28261
        0x000020cc:    7478656e    next    DCD    1954047342
        0x000020d0:    75627020     pbu    DCD    1969385504
        0x000020d4:    61772066    f wa    DCD    1635197030
        0x000020d8:    756e2073    s nu    DCD    1970151539
        0x000020dc:    00006c6c    ll..    DCD    27756
        0x000020e0:    00009c10    ....    DCD    39952
        0x000020e4:    66756270    pbuf    DCD    1718968944
        0x000020e8:    6f5f7020     p_o    DCD    1868525600
        0x000020ec:    77207475    ut w    DCD    1998615669
        0x000020f0:    276e7361    asn'    DCD    661549921
        0x000020f4:    72662074    t fr    DCD    1919295604
        0x000020f8:    00646565    eed.    DCD    6579557
        0x000020fc:    00001db7    ....    DCD    7607
        0x00002100:    00009c14    ....    DCD    39956
    $t
    dhcp_arp_reply
        0x00002104:    b158        X.      CBZ      r0,0x211e ; dhcp_arp_reply + 26
        0x00002106:    6a02        .j      LDR      r2,[r0,#0x20]
        0x00002108:    2a00        .*      CMP      r2,#0
        0x0000210a:    d011        ..      BEQ      0x2130 ; dhcp_arp_reply + 44
        0x0000210c:    7b13        .{      LDRB     r3,[r2,#0xc]
        0x0000210e:    2b08        .+      CMP      r3,#8
        0x00002110:    d10e        ..      BNE      0x2130 ; dhcp_arp_reply + 44
        0x00002112:    6809        .h      LDR      r1,[r1,#0]
        0x00002114:    6a52        Rj      LDR      r2,[r2,#0x24]
        0x00002116:    4291        .B      CMP      r1,r2
        0x00002118:    d10a        ..      BNE      0x2130 ; dhcp_arp_reply + 44
        0x0000211a:    f000b856    ..V.    B.W      dhcp_decline ; 0x21ca
        0x0000211e:    4b45        EK      LDR      r3,[pc,#276] ; [0x2234] = 0x10c8
        0x00002120:    f2403225    @.%2    MOV      r2,#0x325
        0x00002124:    f2af5130    ..0Q    ADR      r1,{pc}-0x52c ; 0x1bf8
        0x00002128:    f1030050    ..P.    ADD      r0,r3,#0x50
        0x0000212c:    f007bb34    ..4.    B.W      __0printf$5 ; 0x9798
        0x00002130:    4770        pG      BX       lr
    dhcp_set_state
        0x00002132:    7b02        .{      LDRB     r2,[r0,#0xc]
        0x00002134:    428a        .B      CMP      r2,r1
        0x00002136:    d003        ..      BEQ      0x2140 ; dhcp_set_state + 14
        0x00002138:    7301        .s      STRB     r1,[r0,#0xc]
        0x0000213a:    2100        .!      MOVS     r1,#0
        0x0000213c:    7341        As      STRB     r1,[r0,#0xd]
        0x0000213e:    8341        A.      STRH     r1,[r0,#0x1a]
        0x00002140:    4770        pG      BX       lr
    dhcp_timeout
        0x00002142:    b510        ..      PUSH     {r4,lr}
        0x00002144:    6a01        .j      LDR      r1,[r0,#0x20]
        0x00002146:    4604        .F      MOV      r4,r0
        0x00002148:    7b08        .{      LDRB     r0,[r1,#0xc]
        0x0000214a:    280c        .(      CMP      r0,#0xc
        0x0000214c:    d01e        ..      BEQ      0x218c ; dhcp_timeout + 74
        0x0000214e:    2806        .(      CMP      r0,#6
        0x00002150:    d01c        ..      BEQ      0x218c ; dhcp_timeout + 74
        0x00002152:    2801        .(      CMP      r0,#1
        0x00002154:    d00f        ..      BEQ      0x2176 ; dhcp_timeout + 52
        0x00002156:    2808        .(      CMP      r0,#8
        0x00002158:    d01d        ..      BEQ      0x2196 ; dhcp_timeout + 84
        0x0000215a:    2805        .(      CMP      r0,#5
        0x0000215c:    d027        '.      BEQ      0x21ae ; dhcp_timeout + 108
        0x0000215e:    2804        .(      CMP      r0,#4
        0x00002160:    d02a        *.      BEQ      0x21b8 ; dhcp_timeout + 118
        0x00002162:    2803        .(      CMP      r0,#3
        0x00002164:    d130        0.      BNE      0x21c8 ; dhcp_timeout + 134
        0x00002166:    7b48        H{      LDRB     r0,[r1,#0xd]
        0x00002168:    2802        .(      CMP      r0,#2
        0x0000216a:    d20f        ..      BCS      0x218c ; dhcp_timeout + 74
        0x0000216c:    4620         F      MOV      r0,r4
        0x0000216e:    e8bd4010    ...@    POP      {r4,lr}
        0x00002172:    f7ffba4a    ..J.    B        dhcp_reboot ; 0x160a
        0x00002176:    7b48        H{      LDRB     r0,[r1,#0xd]
        0x00002178:    2805        .(      CMP      r0,#5
        0x0000217a:    d804        ..      BHI      0x2186 ; dhcp_timeout + 68
        0x0000217c:    4620         F      MOV      r0,r4
        0x0000217e:    e8bd4010    ...@    POP      {r4,lr}
        0x00002182:    f7ffb929    ..).    B        dhcp_select ; 0x13d8
        0x00002186:    4620         F      MOV      r0,r4
        0x00002188:    f7fffa8b    ....    BL       dhcp_release ; 0x16a2
        0x0000218c:    4620         F      MOV      r0,r4
        0x0000218e:    e8bd4010    ...@    POP      {r4,lr}
        0x00002192:    f7febf4c    ..L.    B        dhcp_discover ; 0x102e
        0x00002196:    7b48        H{      LDRB     r0,[r1,#0xd]
        0x00002198:    2801        .(      CMP      r0,#1
        0x0000219a:    4620         F      MOV      r0,r4
        0x0000219c:    d803        ..      BHI      0x21a6 ; dhcp_timeout + 100
        0x0000219e:    e8bd4010    ...@    POP      {r4,lr}
        0x000021a2:    f7ffb8d6    ....    B        dhcp_check ; 0x1352
        0x000021a6:    e8bd4010    ...@    POP      {r4,lr}
        0x000021aa:    f7ffbac8    ....    B        dhcp_bind ; 0x173e
        0x000021ae:    4620         F      MOV      r0,r4
        0x000021b0:    e8bd4010    ...@    POP      {r4,lr}
        0x000021b4:    f7ffb97d    ..}.    B        dhcp_renew ; 0x14b2
        0x000021b8:    7b48        H{      LDRB     r0,[r1,#0xd]
        0x000021ba:    2808        .(      CMP      r0,#8
        0x000021bc:    d8e3        ..      BHI      0x2186 ; dhcp_timeout + 68
        0x000021be:    4620         F      MOV      r0,r4
        0x000021c0:    e8bd4010    ...@    POP      {r4,lr}
        0x000021c4:    f7ffb9b5    ....    B        dhcp_rebind ; 0x1532
        0x000021c8:    bd10        ..      POP      {r4,pc}
    dhcp_decline
        0x000021ca:    b5f8        ..      PUSH     {r3-r7,lr}
        0x000021cc:    6a04        .j      LDR      r4,[r0,#0x20]
        0x000021ce:    4606        .F      MOV      r6,r0
        0x000021d0:    210c        .!      MOVS     r1,#0xc
        0x000021d2:    4620         F      MOV      r0,r4
        0x000021d4:    f7ffffad    ....    BL       dhcp_set_state ; 0x2132
        0x000021d8:    2204        ."      MOVS     r2,#4
        0x000021da:    4621        !F      MOV      r1,r4
        0x000021dc:    4630        0F      MOV      r0,r6
        0x000021de:    f7fefe6f    ..o.    BL       dhcp_create_msg ; 0xec0
        0x000021e2:    0005        ..      MOVS     r5,r0
        0x000021e4:    d11e        ..      BNE      0x2224 ; dhcp_decline + 90
        0x000021e6:    2204        ."      MOVS     r2,#4
        0x000021e8:    2132        2!      MOVS     r1,#0x32
        0x000021ea:    4620         F      MOV      r0,r4
        0x000021ec:    f7fefe2a    ..*.    BL       dhcp_option ; 0xe44
        0x000021f0:    6a60        `j      LDR      r0,[r4,#0x24]
        0x000021f2:    f7fefdb5    ....    BL       lwip_ntohl ; 0xd60
        0x000021f6:    4601        .F      MOV      r1,r0
        0x000021f8:    4620         F      MOV      r0,r4
        0x000021fa:    f7fff8bd    ....    BL       dhcp_option_long ; 0x1378
        0x000021fe:    4620         F      MOV      r0,r4
        0x00002200:    f7fefdd7    ....    BL       dhcp_option_trailer ; 0xdb2
        0x00002204:    8b20         .      LDRH     r0,[r4,#0x18]
        0x00002206:    30f0        .0      ADDS     r0,r0,#0xf0
        0x00002208:    b281        ..      UXTH     r1,r0
        0x0000220a:    6920         i      LDR      r0,[r4,#0x10]
        0x0000220c:    f001f8f0    ....    BL       pbuf_realloc ; 0x33f0
        0x00002210:    9600        ..      STR      r6,[sp,#0]
        0x00002212:    2343        C#      MOVS     r3,#0x43
        0x00002214:    4a08        .J      LDR      r2,[pc,#32] ; [0x2238] = 0x9c14
        0x00002216:    6921        !i      LDR      r1,[r4,#0x10]
        0x00002218:    6860        `h      LDR      r0,[r4,#4]
        0x0000221a:    f004ffd6    ....    BL       udp_sendto_if ; 0x71ca
        0x0000221e:    4620         F      MOV      r0,r4
        0x00002220:    f7fefda0    ....    BL       dhcp_delete_msg ; 0xd64
        0x00002224:    7b60        `{      LDRB     r0,[r4,#0xd]
        0x00002226:    1c40        @.      ADDS     r0,r0,#1
        0x00002228:    7360        `s      STRB     r0,[r4,#0xd]
        0x0000222a:    2014        .       MOVS     r0,#0x14
        0x0000222c:    8360        `.      STRH     r0,[r4,#0x1a]
        0x0000222e:    4628        (F      MOV      r0,r5
        0x00002230:    bdf8        ..      POP      {r3-r7,pc}
    $d
        0x00002232:    0000        ..      DCW    0
        0x00002234:    000010c8    ....    DCD    4296
        0x00002238:    00009c14    ....    DCD    39956
    $t
    .text
    dns_setserver
        0x0000223c:    2802        .(      CMP      r0,#2
        0x0000223e:    d20c        ..      BCS      0x225a ; dns_setserver + 30
        0x00002240:    4aff        .J      LDR      r2,[pc,#1020] ; [0x2640] = 0x20000054
        0x00002242:    6852        Rh      LDR      r2,[r2,#4]
        0x00002244:    2a00        .*      CMP      r2,#0
        0x00002246:    d008        ..      BEQ      0x225a ; dns_setserver + 30
        0x00002248:    2900        .)      CMP      r1,#0
        0x0000224a:    d006        ..      BEQ      0x225a ; dns_setserver + 30
        0x0000224c:    6809        .h      LDR      r1,[r1,#0]
        0x0000224e:    2900        .)      CMP      r1,#0
        0x00002250:    d003        ..      BEQ      0x225a ; dns_setserver + 30
        0x00002252:    4afb        .J      LDR      r2,[pc,#1004] ; [0x2640] = 0x20000054
        0x00002254:    320c        .2      ADDS     r2,r2,#0xc
        0x00002256:    f8421020    B. .    STR      r1,[r2,r0,LSL #2]
        0x0000225a:    4770        pG      BX       lr
    dns_recv
        0x0000225c:    e92d4ffe    -..O    PUSH     {r1-r11,lr}
        0x00002260:    4690        .F      MOV      r8,r2
        0x00002262:    8912        ..      LDRH     r2,[r2,#8]
        0x00002264:    f5b27f00    ....    CMP      r2,#0x200
        0x00002268:    d872        r.      BHI      0x2350 ; dns_recv + 244
        0x0000226a:    2a1a        .*      CMP      r2,#0x1a
        0x0000226c:    d370        p.      BCC      0x2350 ; dns_recv + 244
        0x0000226e:    4ff4        .O      LDR      r7,[pc,#976] ; [0x2640] = 0x20000054
        0x00002270:    2300        .#      MOVS     r3,#0
        0x00002272:    4640        @F      MOV      r0,r8
        0x00002274:    68b9        .h      LDR      r1,[r7,#8]
        0x00002276:    f001fb9e    ....    BL       pbuf_copy_partial ; 0x39b6
        0x0000227a:    f8b81008    ....    LDRH     r1,[r8,#8]
        0x0000227e:    4288        .B      CMP      r0,r1
        0x00002280:    d166        f.      BNE      0x2350 ; dns_recv + 244
        0x00002282:    68be        .h      LDR      r6,[r7,#8]
        0x00002284:    8830        0.      LDRH     r0,[r6,#0]
        0x00002286:    f7fefd65    ..e.    BL       lwip_htons ; 0xd54
        0x0000228a:    2804        .(      CMP      r0,#4
        0x0000228c:    d260        `.      BCS      0x2350 ; dns_recv + 244
        0x0000228e:    ebc000c0    ....    RSB      r0,r0,r0,LSL #3
        0x00002292:    49ec        .I      LDR      r1,[pc,#944] ; [0x2644] = 0x20000360
        0x00002294:    eb000080    ....    ADD      r0,r0,r0,LSL #2
        0x00002298:    eb0104c0    ....    ADD      r4,r1,r0,LSL #3
        0x0000229c:    7820         x      LDRB     r0,[r4,#0]
        0x0000229e:    2802        .(      CMP      r0,#2
        0x000022a0:    d156        V.      BNE      0x2350 ; dns_recv + 244
        0x000022a2:    f04f0a03    O...    MOV      r10,#3
        0x000022a6:    f884a000    ....    STRB     r10,[r4,#0]
        0x000022aa:    78f0        .x      LDRB     r0,[r6,#3]
        0x000022ac:    f000000f    ....    AND      r0,r0,#0xf
        0x000022b0:    7160        `q      STRB     r0,[r4,#5]
        0x000022b2:    88b0        ..      LDRH     r0,[r6,#4]
        0x000022b4:    f7fefd4e    ..N.    BL       lwip_htons ; 0xd54
        0x000022b8:    4681        .F      MOV      r9,r0
        0x000022ba:    88f0        ..      LDRH     r0,[r6,#6]
        0x000022bc:    f7fefd4a    ..J.    BL       lwip_htons ; 0xd54
        0x000022c0:    4605        .F      MOV      r5,r0
        0x000022c2:    78b0        .x      LDRB     r0,[r6,#2]
        0x000022c4:    f04f0b00    O...    MOV      r11,#0
        0x000022c8:    0600        ..      LSLS     r0,r0,#24
        0x000022ca:    d561        a.      BPL      0x2390 ; dns_recv + 308
        0x000022cc:    7960        `y      LDRB     r0,[r4,#5]
        0x000022ce:    bbf0        ..      CBNZ     r0,0x234e ; dns_recv + 242
        0x000022d0:    f1b90f01    ....    CMP      r9,#1
        0x000022d4:    d15c        \.      BNE      0x2390 ; dns_recv + 308
        0x000022d6:    68b8        .h      LDR      r0,[r7,#8]
        0x000022d8:    f104010c    ....    ADD      r1,r4,#0xc
        0x000022dc:    300c        .0      ADDS     r0,r0,#0xc
        0x000022de:    4689        .F      MOV      r9,r1
        0x000022e0:    4684        .F      MOV      r12,r0
        0x000022e2:    4652        RF      MOV      r2,r10
        0x000022e4:    f8103b01    ...;    LDRB     r3,[r0],#1
        0x000022e8:    ebb21f93    ....    CMP      r2,r3,LSR #6
        0x000022ec:    d00e        ..      BEQ      0x230c ; dns_recv + 176
        0x000022ee:    e007        ..      B        0x2300 ; dns_recv + 164
        0x000022f0:    780e        .x      LDRB     r6,[r1,#0]
        0x000022f2:    7807        .x      LDRB     r7,[r0,#0]
        0x000022f4:    42be        .B      CMP      r6,r7
        0x000022f6:    d14b        K.      BNE      0x2390 ; dns_recv + 308
        0x000022f8:    1c40        @.      ADDS     r0,r0,#1
        0x000022fa:    1c49        I.      ADDS     r1,r1,#1
        0x000022fc:    1e5b        [.      SUBS     r3,r3,#1
        0x000022fe:    b2db        ..      UXTB     r3,r3
        0x00002300:    2b00        .+      CMP      r3,#0
        0x00002302:    d1f5        ..      BNE      0x22f0 ; dns_recv + 148
        0x00002304:    7803        .x      LDRB     r3,[r0,#0]
        0x00002306:    1c49        I.      ADDS     r1,r1,#1
        0x00002308:    2b00        .+      CMP      r3,#0
        0x0000230a:    d1eb        ..      BNE      0x22e4 ; dns_recv + 136
        0x0000230c:    4660        `F      MOV      r0,r12
        0x0000230e:    f000fa40    ..@.    BL       dns_parse_name ; 0x2792
        0x00002312:    1d00        ..      ADDS     r0,r0,#4
        0x00002314:    f44f7780    O..w    MOV      r7,#0x100
        0x00002318:    f44f6a80    O..j    MOV      r10,#0x400
        0x0000231c:    e036        6.      B        0x238c ; dns_recv + 304
        0x0000231e:    f000fa38    ..8.    BL       dns_parse_name ; 0x2792
        0x00002322:    4606        .F      MOV      r6,r0
        0x00002324:    6800        .h      LDR      r0,[r0,#0]
        0x00002326:    9000        ..      STR      r0,[sp,#0]
        0x00002328:    6870        ph      LDR      r0,[r6,#4]
        0x0000232a:    9001        ..      STR      r0,[sp,#4]
        0x0000232c:    8930        0.      LDRH     r0,[r6,#8]
        0x0000232e:    f8ad0008    ....    STRH     r0,[sp,#8]
        0x00002332:    f8bd0000    ....    LDRH     r0,[sp,#0]
        0x00002336:    42b8        .B      CMP      r0,r7
        0x00002338:    d120         .      BNE      0x237c ; dns_recv + 288
        0x0000233a:    f8bd0002    ....    LDRH     r0,[sp,#2]
        0x0000233e:    42b8        .B      CMP      r0,r7
        0x00002340:    d11c        ..      BNE      0x237c ; dns_recv + 288
        0x00002342:    f8bd0008    ....    LDRH     r0,[sp,#8]
        0x00002346:    4550        PE      CMP      r0,r10
        0x00002348:    d118        ..      BNE      0x237c ; dns_recv + 288
        0x0000234a:    9801        ..      LDR      r0,[sp,#4]
        0x0000234c:    e001        ..      B        0x2352 ; dns_recv + 246
        0x0000234e:    e01f        ..      B        0x2390 ; dns_recv + 308
        0x00002350:    e02b        +.      B        0x23aa ; dns_recv + 334
        0x00002352:    f7fefd05    ....    BL       lwip_ntohl ; 0xd60
        0x00002356:    49bc        .I      LDR      r1,[pc,#752] ; [0x2648] = 0x93a80
        0x00002358:    60a0        .`      STR      r0,[r4,#8]
        0x0000235a:    4288        .B      CMP      r0,r1
        0x0000235c:    d900        ..      BLS      0x2360 ; dns_recv + 260
        0x0000235e:    60a1        .`      STR      r1,[r4,#8]
        0x00002360:    f8d6000a    ....    LDR      r0,[r6,#0xa]
        0x00002364:    f8c4010c    ....    STR      r0,[r4,#0x10c]
        0x00002368:    f8d43110    ...1    LDR      r3,[r4,#0x110]
        0x0000236c:    b1eb        ..      CBZ      r3,0x23aa ; dns_recv + 334
        0x0000236e:    f5047186    ...q    ADD      r1,r4,#0x10c
        0x00002372:    4648        HF      MOV      r0,r9
        0x00002374:    f8d42114    ...!    LDR      r2,[r4,#0x114]
        0x00002378:    4798        .G      BLX      r3
        0x0000237a:    e016        ..      B        0x23aa ; dns_recv + 334
        0x0000237c:    f8bd0008    ....    LDRH     r0,[sp,#8]
        0x00002380:    f7fefce8    ....    BL       lwip_htons ; 0xd54
        0x00002384:    4430        0D      ADD      r0,r0,r6
        0x00002386:    300a        .0      ADDS     r0,r0,#0xa
        0x00002388:    1e6d        m.      SUBS     r5,r5,#1
        0x0000238a:    b2ad        ..      UXTH     r5,r5
        0x0000238c:    2d00        .-      CMP      r5,#0
        0x0000238e:    d1c6        ..      BNE      0x231e ; dns_recv + 194
        0x00002390:    f8d43110    ...1    LDR      r3,[r4,#0x110]
        0x00002394:    b12b        +.      CBZ      r3,0x23a2 ; dns_recv + 326
        0x00002396:    2100        .!      MOVS     r1,#0
        0x00002398:    f104000c    ....    ADD      r0,r4,#0xc
        0x0000239c:    f8d42114    ...!    LDR      r2,[r4,#0x114]
        0x000023a0:    4798        .G      BLX      r3
        0x000023a2:    f884b000    ....    STRB     r11,[r4,#0]
        0x000023a6:    f8c4b110    ....    STR      r11,[r4,#0x110]
        0x000023aa:    4640        @F      MOV      r0,r8
        0x000023ac:    e8bd4ffe    ...O    POP      {r1-r11,lr}
        0x000023b0:    f000beec    ....    B.W      pbuf_free ; 0x318c
    dns_init
        0x000023b4:    b538        8.      PUSH     {r3-r5,lr}
        0x000023b6:    48a5        .H      LDR      r0,[pc,#660] ; [0x264c] = 0x200007c3
        0x000023b8:    4ca1        .L      LDR      r4,[pc,#644] ; [0x2640] = 0x20000054
        0x000023ba:    f0200003     ...    BIC      r0,r0,#3
        0x000023be:    60a0        .`      STR      r0,[r4,#8]
        0x000023c0:    a0a3        ..      ADR      r0,{pc}+0x290 ; 0x2650
        0x000023c2:    f005fd86    ....    BL       ipaddr_addr ; 0x7ed2
        0x000023c6:    9000        ..      STR      r0,[sp,#0]
        0x000023c8:    6860        `h      LDR      r0,[r4,#4]
        0x000023ca:    2800        .(      CMP      r0,#0
        0x000023cc:    d111        ..      BNE      0x23f2 ; dns_init + 62
        0x000023ce:    f004ffcb    ....    BL       udp_new ; 0x7368
        0x000023d2:    6060        ``      STR      r0,[r4,#4]
        0x000023d4:    2800        .(      CMP      r0,#0
        0x000023d6:    d00c        ..      BEQ      0x23f2 ; dns_init + 62
        0x000023d8:    2200        ."      MOVS     r2,#0
        0x000023da:    49a1        .I      LDR      r1,[pc,#644] ; [0x2660] = 0x9c10
        0x000023dc:    f004fe96    ....    BL       udp_bind ; 0x710c
        0x000023e0:    2200        ."      MOVS     r2,#0
        0x000023e2:    49a0        .I      LDR      r1,[pc,#640] ; [0x2664] = 0x225d
        0x000023e4:    6860        `h      LDR      r0,[r4,#4]
        0x000023e6:    f004ffa8    ....    BL       udp_recv ; 0x733a
        0x000023ea:    4669        iF      MOV      r1,sp
        0x000023ec:    2000        .       MOVS     r0,#0
        0x000023ee:    f7ffff25    ..%.    BL       dns_setserver ; 0x223c
        0x000023f2:    bd38        8.      POP      {r3-r5,pc}
    dns_getserver
        0x000023f4:    2802        .(      CMP      r0,#2
        0x000023f6:    d204        ..      BCS      0x2402 ; dns_getserver + 14
        0x000023f8:    4991        .I      LDR      r1,[pc,#580] ; [0x2640] = 0x20000054
        0x000023fa:    310c        .1      ADDS     r1,r1,#0xc
        0x000023fc:    eb010080    ....    ADD      r0,r1,r0,LSL #2
        0x00002400:    e000        ..      B        0x2404 ; dns_getserver + 16
        0x00002402:    4897        .H      LDR      r0,[pc,#604] ; [0x2660] = 0x9c10
        0x00002404:    6800        .h      LDR      r0,[r0,#0]
        0x00002406:    4770        pG      BX       lr
    dns_send
        0x00002408:    e92d47f0    -..G    PUSH     {r4-r10,lr}
        0x0000240c:    4604        .F      MOV      r4,r0
        0x0000240e:    460f        .F      MOV      r7,r1
        0x00002410:    4616        .F      MOV      r6,r2
        0x00002412:    2802        .(      CMP      r0,#2
        0x00002414:    d306        ..      BCC      0x2424 ; dns_send + 28
        0x00002416:    a394        ..      ADR      r3,{pc}+0x252 ; 0x2668
        0x00002418:    f44f720f    O..r    MOV      r2,#0x23c
        0x0000241c:    a19e        ..      ADR      r1,{pc}+0x27c ; 0x2698
        0x0000241e:    a0a4        ..      ADR      r0,{pc}+0x292 ; 0x26b0
        0x00002420:    f007f9ba    ....    BL       __0printf$5 ; 0x9798
        0x00002424:    4886        .H      LDR      r0,[pc,#536] ; [0x2640] = 0x20000054
        0x00002426:    300c        .0      ADDS     r0,r0,#0xc
        0x00002428:    eb100884    ....    ADDS     r8,r0,r4,LSL #2
        0x0000242c:    d002        ..      BEQ      0x2434 ; dns_send + 44
        0x0000242e:    f8500024    P.$.    LDR      r0,[r0,r4,LSL #2]
        0x00002432:    b930        0.      CBNZ     r0,0x2442 ; dns_send + 58
        0x00002434:    a38c        ..      ADR      r3,{pc}+0x234 ; 0x2668
        0x00002436:    f240223d    @.="    MOV      r2,#0x23d
        0x0000243a:    a1a7        ..      ADR      r1,{pc}+0x29e ; 0x26d8
        0x0000243c:    a09c        ..      ADR      r0,{pc}+0x274 ; 0x26b0
        0x0000243e:    f007f9ab    ....    BL       __0printf$5 ; 0x9798
        0x00002442:    2200        ."      MOVS     r2,#0
        0x00002444:    f44f7188    O..q    MOV      r1,#0x110
        0x00002448:    4610        .F      MOV      r0,r2
        0x0000244a:    f000fee7    ....    BL       pbuf_alloc ; 0x321c
        0x0000244e:    0005        ..      MOVS     r5,r0
        0x00002450:    d04d        M.      BEQ      0x24ee ; dns_send + 230
        0x00002452:    6828        (h      LDR      r0,[r5,#0]
        0x00002454:    b130        0.      CBZ      r0,0x2464 ; dns_send + 92
        0x00002456:    a384        ..      ADR      r3,{pc}+0x212 ; 0x2668
        0x00002458:    f2402243    @.C"    MOV      r2,#0x243
        0x0000245c:    a1a7        ..      ADR      r1,{pc}+0x2a0 ; 0x26fc
        0x0000245e:    a094        ..      ADR      r0,{pc}+0x252 ; 0x26b0
        0x00002460:    f007f99a    ....    BL       __0printf$5 ; 0x9798
        0x00002464:    686c        lh      LDR      r4,[r5,#4]
        0x00002466:    f04f0900    O...    MOV      r9,#0
        0x0000246a:    4630        0F      MOV      r0,r6
        0x0000246c:    f8c49000    ....    STR      r9,[r4,#0]
        0x00002470:    f8c49004    ....    STR      r9,[r4,#4]
        0x00002474:    f8c49008    ....    STR      r9,[r4,#8]
        0x00002478:    f7fefc6c    ..l.    BL       lwip_htons ; 0xd54
        0x0000247c:    8020         .      STRH     r0,[r4,#0]
        0x0000247e:    2001        .       MOVS     r0,#1
        0x00002480:    70a0        .p      STRB     r0,[r4,#2]
        0x00002482:    0201        ..      LSLS     r1,r0,#8
        0x00002484:    80a1        ..      STRH     r1,[r4,#4]
        0x00002486:    340c        .4      ADDS     r4,r4,#0xc
        0x00002488:    1e7f        ..      SUBS     r7,r7,#1
        0x0000248a:    1c7f        ..      ADDS     r7,r7,#1
        0x0000248c:    4623        #F      MOV      r3,r4
        0x0000248e:    1c64        d.      ADDS     r4,r4,#1
        0x00002490:    2000        .       MOVS     r0,#0
        0x00002492:    e004        ..      B        0x249e ; dns_send + 150
        0x00002494:    1c40        @.      ADDS     r0,r0,#1
        0x00002496:    f8042b01    ...+    STRB     r2,[r4],#1
        0x0000249a:    b2c0        ..      UXTB     r0,r0
        0x0000249c:    1c7f        ..      ADDS     r7,r7,#1
        0x0000249e:    783a        :x      LDRB     r2,[r7,#0]
        0x000024a0:    2a2e        .*      CMP      r2,#0x2e
        0x000024a2:    d001        ..      BEQ      0x24a8 ; dns_send + 160
        0x000024a4:    2a00        .*      CMP      r2,#0
        0x000024a6:    d1f5        ..      BNE      0x2494 ; dns_send + 140
        0x000024a8:    7018        .p      STRB     r0,[r3,#0]
        0x000024aa:    7838        8x      LDRB     r0,[r7,#0]
        0x000024ac:    2800        .(      CMP      r0,#0
        0x000024ae:    d1ec        ..      BNE      0x248a ; dns_send + 130
        0x000024b0:    f8049b01    ....    STRB     r9,[r4],#1
        0x000024b4:    f361060f    a...    BFI      r6,r1,#0,#16
        0x000024b8:    f361461f    a..F    BFI      r6,r1,#16,#16
        0x000024bc:    6026        &`      STR      r6,[r4,#0]
        0x000024be:    6868        hh      LDR      r0,[r5,#4]
        0x000024c0:    1a20         .      SUBS     r0,r4,r0
        0x000024c2:    1d00        ..      ADDS     r0,r0,#4
        0x000024c4:    b281        ..      UXTH     r1,r0
        0x000024c6:    4628        (F      MOV      r0,r5
        0x000024c8:    f000ff92    ....    BL       pbuf_realloc ; 0x33f0
        0x000024cc:    4c5c        \L      LDR      r4,[pc,#368] ; [0x2640] = 0x20000054
        0x000024ce:    2235        5"      MOVS     r2,#0x35
        0x000024d0:    4641        AF      MOV      r1,r8
        0x000024d2:    6860        `h      LDR      r0,[r4,#4]
        0x000024d4:    f004ff05    ....    BL       udp_connect ; 0x72e2
        0x000024d8:    2335        5#      MOVS     r3,#0x35
        0x000024da:    4642        BF      MOV      r2,r8
        0x000024dc:    4629        )F      MOV      r1,r5
        0x000024de:    6860        `h      LDR      r0,[r4,#4]
        0x000024e0:    f004fee8    ....    BL       udp_sendto ; 0x72b4
        0x000024e4:    4604        .F      MOV      r4,r0
        0x000024e6:    4628        (F      MOV      r0,r5
        0x000024e8:    f000fe50    ..P.    BL       pbuf_free ; 0x318c
        0x000024ec:    e001        ..      B        0x24f2 ; dns_send + 234
        0x000024ee:    f04f34ff    O..4    MOV      r4,#0xffffffff
        0x000024f2:    4620         F      MOV      r0,r4
        0x000024f4:    e8bd87f0    ....    POP      {r4-r10,pc}
    dns_check_entry
        0x000024f8:    b570        p.      PUSH     {r4-r6,lr}
        0x000024fa:    4605        .F      MOV      r5,r0
        0x000024fc:    ebc000c0    ....    RSB      r0,r0,r0,LSL #3
        0x00002500:    4950        PI      LDR      r1,[pc,#320] ; [0x2644] = 0x20000360
        0x00002502:    eb000080    ....    ADD      r0,r0,r0,LSL #2
        0x00002506:    eb0104c0    ....    ADD      r4,r1,r0,LSL #3
        0x0000250a:    2d04        .-      CMP      r5,#4
        0x0000250c:    d306        ..      BCC      0x251c ; dns_check_entry + 36
        0x0000250e:    a356        V.      ADR      r3,{pc}+0x15a ; 0x2668
        0x00002510:    f2402281    @.."    MOV      r2,#0x281
        0x00002514:    a180        ..      ADR      r1,{pc}+0x204 ; 0x2718
        0x00002516:    a066        f.      ADR      r0,{pc}+0x19a ; 0x26b0
        0x00002518:    f007f93e    ..>.    BL       __0printf$5 ; 0x9798
        0x0000251c:    7820         x      LDRB     r0,[r4,#0]
        0x0000251e:    2800        .(      CMP      r0,#0
        0x00002520:    d042        B.      BEQ      0x25a8 ; dns_check_entry + 176
        0x00002522:    ebc502c5    ....    RSB      r2,r5,r5,LSL #3
        0x00002526:    4b47        GK      LDR      r3,[pc,#284] ; [0x2644] = 0x20000360
        0x00002528:    eb020282    ....    ADD      r2,r2,r2,LSL #2
        0x0000252c:    eb0303c2    ....    ADD      r3,r3,r2,LSL #3
        0x00002530:    2600        .&      MOVS     r6,#0
        0x00002532:    2101        .!      MOVS     r1,#1
        0x00002534:    330c        .3      ADDS     r3,r3,#0xc
        0x00002536:    2801        .(      CMP      r0,#1
        0x00002538:    d00c        ..      BEQ      0x2554 ; dns_check_entry + 92
        0x0000253a:    2802        .(      CMP      r0,#2
        0x0000253c:    d011        ..      BEQ      0x2562 ; dns_check_entry + 106
        0x0000253e:    2803        .(      CMP      r0,#3
        0x00002540:    d03f        ?.      BEQ      0x25c2 ; dns_check_entry + 202
        0x00002542:    e8bd4070    ..p@    POP      {r4-r6,lr}
        0x00002546:    a348        H.      ADR      r3,{pc}+0x122 ; 0x2668
        0x00002548:    f24022c5    @.."    MOV      r2,#0x2c5
        0x0000254c:    a179        y.      ADR      r1,{pc}+0x1e8 ; 0x2734
        0x0000254e:    a058        X.      ADR      r0,{pc}+0x162 ; 0x26b0
        0x00002550:    f007b922    ..".    B.W      __0printf$5 ; 0x9798
        0x00002554:    2002        .       MOVS     r0,#2
        0x00002556:    7020         p      STRB     r0,[r4,#0]
        0x00002558:    7066        fp      STRB     r6,[r4,#1]
        0x0000255a:    70a1        .p      STRB     r1,[r4,#2]
        0x0000255c:    4630        0F      MOV      r0,r6
        0x0000255e:    70e6        .p      STRB     r6,[r4,#3]
        0x00002560:    e00d        ..      B        0x257e ; dns_check_entry + 134
        0x00002562:    78a0        .x      LDRB     r0,[r4,#2]
        0x00002564:    1e40        @.      SUBS     r0,r0,#1
        0x00002566:    f01000ff    ....    ANDS     r0,r0,#0xff
        0x0000256a:    70a0        .p      STRB     r0,[r4,#2]
        0x0000256c:    d11c        ..      BNE      0x25a8 ; dns_check_entry + 176
        0x0000256e:    78e0        .x      LDRB     r0,[r4,#3]
        0x00002570:    1c40        @.      ADDS     r0,r0,#1
        0x00002572:    b2c0        ..      UXTB     r0,r0
        0x00002574:    70e0        .p      STRB     r0,[r4,#3]
        0x00002576:    2804        .(      CMP      r0,#4
        0x00002578:    d006        ..      BEQ      0x2588 ; dns_check_entry + 144
        0x0000257a:    70a0        .p      STRB     r0,[r4,#2]
        0x0000257c:    7860        `x      LDRB     r0,[r4,#1]
        0x0000257e:    462a        *F      MOV      r2,r5
        0x00002580:    e8bd4070    ..p@    POP      {r4-r6,lr}
        0x00002584:    4619        .F      MOV      r1,r3
        0x00002586:    e73f        ?.      B        dns_send ; 0x2408
        0x00002588:    7860        `x      LDRB     r0,[r4,#1]
        0x0000258a:    4602        .F      MOV      r2,r0
        0x0000258c:    1c40        @.      ADDS     r0,r0,#1
        0x0000258e:    2802        .(      CMP      r0,#2
        0x00002590:    d20b        ..      BCS      0x25aa ; dns_check_entry + 178
        0x00002592:    4d2b        +M      LDR      r5,[pc,#172] ; [0x2640] = 0x20000054
        0x00002594:    350c        .5      ADDS     r5,r5,#0xc
        0x00002596:    eb050282    ....    ADD      r2,r5,r2,LSL #2
        0x0000259a:    1d15        ..      ADDS     r5,r2,#4
        0x0000259c:    d005        ..      BEQ      0x25aa ; dns_check_entry + 178
        0x0000259e:    6852        Rh      LDR      r2,[r2,#4]
        0x000025a0:    b11a        ..      CBZ      r2,0x25aa ; dns_check_entry + 178
        0x000025a2:    7060        `p      STRB     r0,[r4,#1]
        0x000025a4:    70a1        .p      STRB     r1,[r4,#2]
        0x000025a6:    70e6        .p      STRB     r6,[r4,#3]
        0x000025a8:    bd70        p.      POP      {r4-r6,pc}
        0x000025aa:    f8d45110    ...Q    LDR      r5,[r4,#0x110]
        0x000025ae:    b125        %.      CBZ      r5,0x25ba ; dns_check_entry + 194
        0x000025b0:    2100        .!      MOVS     r1,#0
        0x000025b2:    4618        .F      MOV      r0,r3
        0x000025b4:    f8d42114    ...!    LDR      r2,[r4,#0x114]
        0x000025b8:    47a8        .G      BLX      r5
        0x000025ba:    7026        &p      STRB     r6,[r4,#0]
        0x000025bc:    f8c46110    ...a    STR      r6,[r4,#0x110]
        0x000025c0:    bd70        p.      POP      {r4-r6,pc}
        0x000025c2:    68a0        .h      LDR      r0,[r4,#8]
        0x000025c4:    1e40        @.      SUBS     r0,r0,#1
        0x000025c6:    60a0        .`      STR      r0,[r4,#8]
        0x000025c8:    d0f7        ..      BEQ      0x25ba ; dns_check_entry + 194
        0x000025ca:    bd70        p.      POP      {r4-r6,pc}
    dns_tmr
        0x000025cc:    481c        .H      LDR      r0,[pc,#112] ; [0x2640] = 0x20000054
        0x000025ce:    b510        ..      PUSH     {r4,lr}
        0x000025d0:    6840        @h      LDR      r0,[r0,#4]
        0x000025d2:    2800        .(      CMP      r0,#0
        0x000025d4:    d007        ..      BEQ      0x25e6 ; dns_tmr + 26
        0x000025d6:    2400        .$      MOVS     r4,#0
        0x000025d8:    4620         F      MOV      r0,r4
        0x000025da:    f7ffff8d    ....    BL       dns_check_entry ; 0x24f8
        0x000025de:    1c64        d.      ADDS     r4,r4,#1
        0x000025e0:    b2e4        ..      UXTB     r4,r4
        0x000025e2:    2c04        .,      CMP      r4,#4
        0x000025e4:    d3f8        ..      BCC      0x25d8 ; dns_tmr + 12
        0x000025e6:    bd10        ..      POP      {r4,pc}
    dns_gethostbyname
        0x000025e8:    e92d47f0    -..G    PUSH     {r4-r10,lr}
        0x000025ec:    4605        .F      MOV      r5,r0
        0x000025ee:    4814        .H      LDR      r0,[pc,#80] ; [0x2640] = 0x20000054
        0x000025f0:    460e        .F      MOV      r6,r1
        0x000025f2:    4690        .F      MOV      r8,r2
        0x000025f4:    6840        @h      LDR      r0,[r0,#4]
        0x000025f6:    4699        .F      MOV      r9,r3
        0x000025f8:    b140        @.      CBZ      r0,0x260c ; dns_gethostbyname + 36
        0x000025fa:    b13e        >.      CBZ      r6,0x260c ; dns_gethostbyname + 36
        0x000025fc:    b135        5.      CBZ      r5,0x260c ; dns_gethostbyname + 36
        0x000025fe:    7828        (x      LDRB     r0,[r5,#0]
        0x00002600:    b120         .      CBZ      r0,0x260c ; dns_gethostbyname + 36
        0x00002602:    4628        (F      MOV      r0,r5
        0x00002604:    f007f874    ..t.    BL       strlen ; 0x96f0
        0x00002608:    28ff        .(      CMP      r0,#0xff
        0x0000260a:    d902        ..      BLS      0x2612 ; dns_gethostbyname + 42
        0x0000260c:    f06f000d    o...    MVN      r0,#0xd
        0x00002610:    e770        p.      B        0x24f4 ; dns_send + 236
        0x00002612:    4628        (F      MOV      r0,r5
        0x00002614:    f005fc5d    ..].    BL       ipaddr_addr ; 0x7ed2
        0x00002618:    1c41        A.      ADDS     r1,r0,#1
        0x0000261a:    d10e        ..      BNE      0x263a ; dns_gethostbyname + 82
        0x0000261c:    4f09        .O      LDR      r7,[pc,#36] ; [0x2644] = 0x20000360
        0x0000261e:    2400        .$      MOVS     r4,#0
        0x00002620:    ebc400c4    ....    RSB      r0,r4,r4,LSL #3
        0x00002624:    eb000080    ....    ADD      r0,r0,r0,LSL #2
        0x00002628:    f8171030    ..0.    LDRB     r1,[r7,r0,LSL #3]
        0x0000262c:    2903        .)      CMP      r1,#3
        0x0000262e:    d105        ..      BNE      0x263c ; dns_gethostbyname + 84
        0x00002630:    eb0701c0    ....    ADD      r1,r7,r0,LSL #3
        0x00002634:    310c        .1      ADDS     r1,r1,#0xc
        0x00002636:    4628        (F      MOV      r0,r5
        0x00002638:    e08c        ..      B        0x2754 ; dns_gethostbyname + 364
        0x0000263a:    e097        ..      B        0x276c ; dns_gethostbyname + 388
        0x0000263c:    e08d        ..      B        0x275a ; dns_gethostbyname + 370
    $d
        0x0000263e:    0000        ..      DCW    0
        0x00002640:    20000054    T..     DCD    536870996
        0x00002644:    20000360    `..     DCD    536871776
        0x00002648:    00093a80    .:..    DCD    604800
        0x0000264c:    200007c3    ...     DCD    536872899
        0x00002650:    2e383032    208.    DCD    775434290
        0x00002654:    322e3736    67.2    DCD    841889590
        0x00002658:    322e3232    22.2    DCD    841888306
        0x0000265c:    00003232    22..    DCD    12850
        0x00002660:    00009c10    ....    DCD    39952
        0x00002664:    0000225d    ]"..    DCD    8797
        0x00002668:    2e5c2e2e    ..\.    DCD    777793070
        0x0000266c:    2e2e5c2e    .\..    DCD    774790190
        0x00002670:    6968545c    \Thi    DCD    1768445020
        0x00002674:    61506472    rdPa    DCD    1632658546
        0x00002678:    5c797472    rty\    DCD    1551463538
        0x0000267c:    7069776c    lwip    DCD    1885960044
        0x00002680:    342e312d    -1.4    DCD    875442477
        0x00002684:    735c312e    .1\s    DCD    1935421742
        0x00002688:    635c6372    rc\c    DCD    1666999154
        0x0000268c:    5c65726f    ore\    DCD    1550152303
        0x00002690:    2e736e64    dns.    DCD    779316836
        0x00002694:    00000063    c...    DCD    99
        0x00002698:    20736e64    dns     DCD    544435812
        0x0000269c:    76726573    serv    DCD    1987208563
        0x000026a0:    6f207265    er o    DCD    1864397413
        0x000026a4:    6f207475    ut o    DCD    1864397941
        0x000026a8:    72612066    f ar    DCD    1918967910
        0x000026ac:    00796172    ray.    DCD    7954802
        0x000026b0:    65737341    Asse    DCD    1702064961
        0x000026b4:    6f697472    rtio    DCD    1869182066
        0x000026b8:    2522206e    n "%    DCD    622993518
        0x000026bc:    66202273    s" f    DCD    1713382003
        0x000026c0:    656c6961    aile    DCD    1701603681
        0x000026c4:    74612064    d at    DCD    1952522340
        0x000026c8:    6e696c20     lin    DCD    1852402720
        0x000026cc:    64252065    e %d    DCD    1680154725
        0x000026d0:    206e6920     in     DCD    544106784
        0x000026d4:    000a7325    %s..    DCD    684837
        0x000026d8:    20736e64    dns     DCD    544435812
        0x000026dc:    76726573    serv    DCD    1987208563
        0x000026e0:    68207265    er h    DCD    1746956901
        0x000026e4:    6e207361    as n    DCD    1847620449
        0x000026e8:    5049206f    o IP    DCD    1346969711
        0x000026ec:    64646120     add    DCD    1684300064
        0x000026f0:    73736572    ress    DCD    1936942450
        0x000026f4:    74657320     set    DCD    1952805664
        0x000026f8:    00000000    ....    DCD    0
        0x000026fc:    66756270    pbuf    DCD    1718968944
        0x00002700:    73756d20     mus    DCD    1937075488
        0x00002704:    65622074    t be    DCD    1700929652
        0x00002708:    206e6920     in     DCD    544106784
        0x0000270c:    20656e6f    one     DCD    543518319
        0x00002710:    63656970    piec    DCD    1667590512
        0x00002714:    00000065    e...    DCD    101
        0x00002718:    61727261    arra    DCD    1634890337
        0x0000271c:    6e692079    y in    DCD    1852383353
        0x00002720:    20786564    dex     DCD    544761188
        0x00002724:    2074756f    out     DCD    544503151
        0x00002728:    6220666f    of b    DCD    1646290543
        0x0000272c:    646e756f    ound    DCD    1684960623
        0x00002730:    00000073    s...    DCD    115
        0x00002734:    6e6b6e75    unkn    DCD    1852534389
        0x00002738:    206e776f    own     DCD    544110447
        0x0000273c:    5f736e64    dns_    DCD    1601400420
        0x00002740:    6c626174    tabl    DCD    1818386804
        0x00002744:    6e652065    e en    DCD    1852121189
        0x00002748:    20797274    try     DCD    544830068
        0x0000274c:    74617473    stat    DCD    1952543859
        0x00002750:    00003a65    e:..    DCD    14949
    $t
        0x00002754:    f006ffd4    ....    BL       strcmp ; 0x9700
        0x00002758:    b158        X.      CBZ      r0,0x2772 ; dns_gethostbyname + 394
        0x0000275a:    1c64        d.      ADDS     r4,r4,#1
        0x0000275c:    b2e4        ..      UXTB     r4,r4
        0x0000275e:    2c04        .,      CMP      r4,#4
        0x00002760:    f4ffaf5e    ..^.    BCC      0x2620 ; dns_gethostbyname + 56
        0x00002764:    f04f30ff    O..0    MOV      r0,#0xffffffff
        0x00002768:    1c41        A.      ADDS     r1,r0,#1
        0x0000276a:    d00b        ..      BEQ      0x2784 ; dns_gethostbyname + 412
        0x0000276c:    6030        0`      STR      r0,[r6,#0]
        0x0000276e:    2000        .       MOVS     r0,#0
        0x00002770:    e6c0        ..      B        0x24f4 ; dns_send + 236
        0x00002772:    ebc400c4    ....    RSB      r0,r4,r4,LSL #3
        0x00002776:    eb000080    ....    ADD      r0,r0,r0,LSL #2
        0x0000277a:    eb0700c0    ....    ADD      r0,r7,r0,LSL #3
        0x0000277e:    f8d0010c    ....    LDR      r0,[r0,#0x10c]
        0x00002782:    e7f1        ..      B        0x2768 ; dns_gethostbyname + 384
        0x00002784:    464a        JF      MOV      r2,r9
        0x00002786:    4641        AF      MOV      r1,r8
        0x00002788:    4628        (F      MOV      r0,r5
        0x0000278a:    e8bd47f0    ...G    POP      {r4-r10,lr}
        0x0000278e:    f000b811    ....    B.W      dns_enqueue ; 0x27b4
    dns_parse_name
        0x00002792:    2203        ."      MOVS     r2,#3
        0x00002794:    f8101b01    ....    LDRB     r1,[r0],#1
        0x00002798:    ebb21f91    ....    CMP      r2,r1,LSR #6
        0x0000279c:    d008        ..      BEQ      0x27b0 ; dns_parse_name + 30
        0x0000279e:    e002        ..      B        0x27a6 ; dns_parse_name + 20
        0x000027a0:    1c40        @.      ADDS     r0,r0,#1
        0x000027a2:    1e49        I.      SUBS     r1,r1,#1
        0x000027a4:    b2c9        ..      UXTB     r1,r1
        0x000027a6:    2900        .)      CMP      r1,#0
        0x000027a8:    d1fa        ..      BNE      0x27a0 ; dns_parse_name + 14
        0x000027aa:    7801        .x      LDRB     r1,[r0,#0]
        0x000027ac:    2900        .)      CMP      r1,#0
        0x000027ae:    d1f1        ..      BNE      0x2794 ; dns_parse_name + 2
        0x000027b0:    1c40        @.      ADDS     r0,r0,#1
        0x000027b2:    4770        pG      BX       lr
    dns_enqueue
        0x000027b4:    e92d47f0    -..G    PUSH     {r4-r10,lr}
        0x000027b8:    f8df80a0    ....    LDR      r8,[pc,#160] ; [0x285c] = 0x20000054
        0x000027bc:    4681        .F      MOV      r9,r0
        0x000027be:    2000        .       MOVS     r0,#0
        0x000027c0:    f8dfc09c    ....    LDR      r12,[pc,#156] ; [0x2860] = 0x20000360
        0x000027c4:    f8986000    ...`    LDRB     r6,[r8,#0]
        0x000027c8:    4607        .F      MOV      r7,r0
        0x000027ca:    4604        .F      MOV      r4,r0
        0x000027cc:    ebc403c4    ....    RSB      r3,r4,r4,LSL #3
        0x000027d0:    eb030383    ....    ADD      r3,r3,r3,LSL #2
        0x000027d4:    eb0c05c3    ....    ADD      r5,r12,r3,LSL #3
        0x000027d8:    782b        +x      LDRB     r3,[r5,#0]
        0x000027da:    b15b        [.      CBZ      r3,0x27f4 ; dns_enqueue + 64
        0x000027dc:    2b03        .+      CMP      r3,#3
        0x000027de:    d105        ..      BNE      0x27ec ; dns_enqueue + 56
        0x000027e0:    792b        +y      LDRB     r3,[r5,#4]
        0x000027e2:    1af3        ..      SUBS     r3,r6,r3
        0x000027e4:    42bb        .B      CMP      r3,r7
        0x000027e6:    dd01        ..      BLE      0x27ec ; dns_enqueue + 56
        0x000027e8:    b2df        ..      UXTB     r7,r3
        0x000027ea:    4620         F      MOV      r0,r4
        0x000027ec:    1c64        d.      ADDS     r4,r4,#1
        0x000027ee:    b2e4        ..      UXTB     r4,r4
        0x000027f0:    2c04        .,      CMP      r4,#4
        0x000027f2:    d3eb        ..      BCC      0x27cc ; dns_enqueue + 24
        0x000027f4:    2c04        .,      CMP      r4,#4
        0x000027f6:    d10f        ..      BNE      0x2818 ; dns_enqueue + 100
        0x000027f8:    2804        .(      CMP      r0,#4
        0x000027fa:    d207        ..      BCS      0x280c ; dns_enqueue + 88
        0x000027fc:    ebc003c0    ....    RSB      r3,r0,r0,LSL #3
        0x00002800:    eb030383    ....    ADD      r3,r3,r3,LSL #2
        0x00002804:    f81c4033    ..3@    LDRB     r4,[r12,r3,LSL #3]
        0x00002808:    2c03        .,      CMP      r4,#3
        0x0000280a:    d002        ..      BEQ      0x2812 ; dns_enqueue + 94
        0x0000280c:    f04f30ff    O..0    MOV      r0,#0xffffffff
        0x00002810:    e670        p.      B        0x24f4 ; dns_send + 236
        0x00002812:    4604        .F      MOV      r4,r0
        0x00002814:    eb0c05c3    ....    ADD      r5,r12,r3,LSL #3
        0x00002818:    2001        .       MOVS     r0,#1
        0x0000281a:    7028        (p      STRB     r0,[r5,#0]
        0x0000281c:    712e        .q      STRB     r6,[r5,#4]
        0x0000281e:    1c76        v.      ADDS     r6,r6,#1
        0x00002820:    f8886000    ...`    STRB     r6,[r8,#0]
        0x00002824:    e9c51244    ..D.    STRD     r1,r2,[r5,#0x110]
        0x00002828:    4648        HF      MOV      r0,r9
        0x0000282a:    f006ff61    ..a.    BL       strlen ; 0x96f0
        0x0000282e:    28ff        .(      CMP      r0,#0xff
        0x00002830:    d204        ..      BCS      0x283c ; dns_enqueue + 136
        0x00002832:    4648        HF      MOV      r0,r9
        0x00002834:    f006ff5c    ..\.    BL       strlen ; 0x96f0
        0x00002838:    4606        .F      MOV      r6,r0
        0x0000283a:    e000        ..      B        0x283e ; dns_enqueue + 138
        0x0000283c:    26ff        .&      MOVS     r6,#0xff
        0x0000283e:    4632        2F      MOV      r2,r6
        0x00002840:    4649        IF      MOV      r1,r9
        0x00002842:    f105000c    ....    ADD      r0,r5,#0xc
        0x00002846:    f006ff2e    ....    BL       __aeabi_memcpy ; 0x96a6
        0x0000284a:    19a9        ..      ADDS     r1,r5,r6
        0x0000284c:    2000        .       MOVS     r0,#0
        0x0000284e:    7308        .s      STRB     r0,[r1,#0xc]
        0x00002850:    4620         F      MOV      r0,r4
        0x00002852:    f7fffe51    ..Q.    BL       dns_check_entry ; 0x24f8
        0x00002856:    f06f0004    o...    MVN      r0,#4
        0x0000285a:    e64b        K.      B        0x24f4 ; dns_send + 236
    $d
        0x0000285c:    20000054    T..     DCD    536870996
        0x00002860:    20000360    `..     DCD    536871776
    $t
    .text
    plug_holes
        0x00002864:    b570        p.      PUSH     {r4-r6,lr}
        0x00002866:    4dca        .M      LDR      r5,[pc,#808] ; [0x2b90] = 0x20000068
        0x00002868:    4604        .F      MOV      r4,r0
        0x0000286a:    6828        (h      LDR      r0,[r5,#0]
        0x0000286c:    4284        .B      CMP      r4,r0
        0x0000286e:    d205        ..      BCS      0x287c ; plug_holes + 24
        0x00002870:    a3c8        ..      ADR      r3,{pc}+0x324 ; 0x2b94
        0x00002872:    22f1        ."      MOVS     r2,#0xf1
        0x00002874:    a1d3        ..      ADR      r1,{pc}+0x350 ; 0x2bc4
        0x00002876:    a0d9        ..      ADR      r0,{pc}+0x366 ; 0x2bdc
        0x00002878:    f006ff8e    ....    BL       __0printf$5 ; 0x9798
        0x0000287c:    6868        hh      LDR      r0,[r5,#4]
        0x0000287e:    4284        .B      CMP      r4,r0
        0x00002880:    d305        ..      BCC      0x288e ; plug_holes + 42
        0x00002882:    a3c4        ..      ADR      r3,{pc}+0x312 ; 0x2b94
        0x00002884:    22f2        ."      MOVS     r2,#0xf2
        0x00002886:    a1df        ..      ADR      r1,{pc}+0x37e ; 0x2c04
        0x00002888:    a0d4        ..      ADR      r0,{pc}+0x354 ; 0x2bdc
        0x0000288a:    f006ff85    ....    BL       __0printf$5 ; 0x9798
        0x0000288e:    7920         y      LDRB     r0,[r4,#4]
        0x00002890:    b128        (.      CBZ      r0,0x289e ; plug_holes + 58
        0x00002892:    a3c0        ..      ADR      r3,{pc}+0x302 ; 0x2b94
        0x00002894:    22f3        ."      MOVS     r2,#0xf3
        0x00002896:    a1e2        ..      ADR      r1,{pc}+0x38a ; 0x2c20
        0x00002898:    a0d0        ..      ADR      r0,{pc}+0x344 ; 0x2bdc
        0x0000289a:    f006ff7d    ..}.    BL       __0printf$5 ; 0x9798
        0x0000289e:    8820         .      LDRH     r0,[r4,#0]
        0x000028a0:    f5b04f80    ...O    CMP      r0,#0x4000
        0x000028a4:    d905        ..      BLS      0x28b2 ; plug_holes + 78
        0x000028a6:    a3bb        ..      ADR      r3,{pc}+0x2ee ; 0x2b94
        0x000028a8:    22f6        ."      MOVS     r2,#0xf6
        0x000028aa:    a1e4        ..      ADR      r1,{pc}+0x392 ; 0x2c3c
        0x000028ac:    a0cb        ..      ADR      r0,{pc}+0x330 ; 0x2bdc
        0x000028ae:    f006ff73    ..s.    BL       __0printf$5 ; 0x9798
        0x000028b2:    8820         .      LDRH     r0,[r4,#0]
        0x000028b4:    6829        )h      LDR      r1,[r5,#0]
        0x000028b6:    4408        .D      ADD      r0,r0,r1
        0x000028b8:    4284        .B      CMP      r4,r0
        0x000028ba:    d00e        ..      BEQ      0x28da ; plug_holes + 118
        0x000028bc:    7902        .y      LDRB     r2,[r0,#4]
        0x000028be:    b962        b.      CBNZ     r2,0x28da ; plug_holes + 118
        0x000028c0:    686a        jh      LDR      r2,[r5,#4]
        0x000028c2:    4290        .B      CMP      r0,r2
        0x000028c4:    d009        ..      BEQ      0x28da ; plug_holes + 118
        0x000028c6:    68aa        .h      LDR      r2,[r5,#8]
        0x000028c8:    4282        .B      CMP      r2,r0
        0x000028ca:    d100        ..      BNE      0x28ce ; plug_holes + 106
        0x000028cc:    60ac        .`      STR      r4,[r5,#8]
        0x000028ce:    8802        ..      LDRH     r2,[r0,#0]
        0x000028d0:    8022        ".      STRH     r2,[r4,#0]
        0x000028d2:    8803        ..      LDRH     r3,[r0,#0]
        0x000028d4:    1a62        b.      SUBS     r2,r4,r1
        0x000028d6:    1c88        ..      ADDS     r0,r1,#2
        0x000028d8:    521a        .R      STRH     r2,[r3,r0]
        0x000028da:    8860        `.      LDRH     r0,[r4,#2]
        0x000028dc:    4408        .D      ADD      r0,r0,r1
        0x000028de:    42a0        .B      CMP      r0,r4
        0x000028e0:    d00c        ..      BEQ      0x28fc ; plug_holes + 152
        0x000028e2:    7902        .y      LDRB     r2,[r0,#4]
        0x000028e4:    2a00        .*      CMP      r2,#0
        0x000028e6:    d109        ..      BNE      0x28fc ; plug_holes + 152
        0x000028e8:    68aa        .h      LDR      r2,[r5,#8]
        0x000028ea:    42a2        .B      CMP      r2,r4
        0x000028ec:    d100        ..      BNE      0x28f0 ; plug_holes + 140
        0x000028ee:    60a8        .`      STR      r0,[r5,#8]
        0x000028f0:    8822        ".      LDRH     r2,[r4,#0]
        0x000028f2:    8002        ..      STRH     r2,[r0,#0]
        0x000028f4:    8822        ".      LDRH     r2,[r4,#0]
        0x000028f6:    1a40        @.      SUBS     r0,r0,r1
        0x000028f8:    1c89        ..      ADDS     r1,r1,#2
        0x000028fa:    5250        PR      STRH     r0,[r2,r1]
        0x000028fc:    bd70        p.      POP      {r4-r6,pc}
    mem_init
        0x000028fe:    b510        ..      PUSH     {r4,lr}
        0x00002900:    48d9        .H      LDR      r0,[pc,#868] ; [0x2c68] = 0x200009c6
        0x00002902:    4aa3        .J      LDR      r2,[pc,#652] ; [0x2b90] = 0x20000068
        0x00002904:    f0200003     ...    BIC      r0,r0,#3
        0x00002908:    f44f4380    O..C    MOV      r3,#0x4000
        0x0000290c:    6010        .`      STR      r0,[r2,#0]
        0x0000290e:    2100        .!      MOVS     r1,#0
        0x00002910:    8003        ..      STRH     r3,[r0,#0]
        0x00002912:    8041        A.      STRH     r1,[r0,#2]
        0x00002914:    7101        .q      STRB     r1,[r0,#4]
        0x00002916:    f5004180    ...A    ADD      r1,r0,#0x4000
        0x0000291a:    2401        .$      MOVS     r4,#1
        0x0000291c:    6051        Q`      STR      r1,[r2,#4]
        0x0000291e:    710c        .q      STRB     r4,[r1,#4]
        0x00002920:    800b        ..      STRH     r3,[r1,#0]
        0x00002922:    804b        K.      STRH     r3,[r1,#2]
        0x00002924:    6090        .`      STR      r0,[r2,#8]
        0x00002926:    bd10        ..      POP      {r4,pc}
    mem_free
        0x00002928:    b570        p.      PUSH     {r4-r6,lr}
        0x0000292a:    0004        ..      MOVS     r4,r0
        0x0000292c:    d030        0.      BEQ      0x2990 ; mem_free + 104
        0x0000292e:    07a0        ..      LSLS     r0,r4,#30
        0x00002930:    d006        ..      BEQ      0x2940 ; mem_free + 24
        0x00002932:    a398        ..      ADR      r3,{pc}+0x262 ; 0x2b94
        0x00002934:    f44f72a0    O..r    MOV      r2,#0x140
        0x00002938:    a1cc        ..      ADR      r1,{pc}+0x334 ; 0x2c6c
        0x0000293a:    a0a8        ..      ADR      r0,{pc}+0x2a2 ; 0x2bdc
        0x0000293c:    f006ff2c    ..,.    BL       __0printf$5 ; 0x9798
        0x00002940:    4d93        .M      LDR      r5,[pc,#588] ; [0x2b90] = 0x20000068
        0x00002942:    6828        (h      LDR      r0,[r5,#0]
        0x00002944:    4284        .B      CMP      r4,r0
        0x00002946:    d302        ..      BCC      0x294e ; mem_free + 38
        0x00002948:    6868        hh      LDR      r0,[r5,#4]
        0x0000294a:    4284        .B      CMP      r4,r0
        0x0000294c:    d306        ..      BCC      0x295c ; mem_free + 52
        0x0000294e:    a391        ..      ADR      r3,{pc}+0x246 ; 0x2b94
        0x00002950:    f44f72a1    O..r    MOV      r2,#0x142
        0x00002954:    a1ce        ..      ADR      r1,{pc}+0x33c ; 0x2c90
        0x00002956:    a0a1        ..      ADR      r0,{pc}+0x286 ; 0x2bdc
        0x00002958:    f006ff1e    ....    BL       __0printf$5 ; 0x9798
        0x0000295c:    6828        (h      LDR      r0,[r5,#0]
        0x0000295e:    4284        .B      CMP      r4,r0
        0x00002960:    d316        ..      BCC      0x2990 ; mem_free + 104
        0x00002962:    6868        hh      LDR      r0,[r5,#4]
        0x00002964:    4284        .B      CMP      r4,r0
        0x00002966:    d213        ..      BCS      0x2990 ; mem_free + 104
        0x00002968:    3c08        .<      SUBS     r4,r4,#8
        0x0000296a:    7920         y      LDRB     r0,[r4,#4]
        0x0000296c:    b930        0.      CBNZ     r0,0x297c ; mem_free + 84
        0x0000296e:    a389        ..      ADR      r3,{pc}+0x226 ; 0x2b94
        0x00002970:    f2401253    @.S.    MOV      r2,#0x153
        0x00002974:    a1cc        ..      ADR      r1,{pc}+0x334 ; 0x2ca8
        0x00002976:    a099        ..      ADR      r0,{pc}+0x266 ; 0x2bdc
        0x00002978:    f006ff0e    ....    BL       __0printf$5 ; 0x9798
        0x0000297c:    2000        .       MOVS     r0,#0
        0x0000297e:    7120         q      STRB     r0,[r4,#4]
        0x00002980:    68a8        .h      LDR      r0,[r5,#8]
        0x00002982:    4284        .B      CMP      r4,r0
        0x00002984:    d200        ..      BCS      0x2988 ; mem_free + 96
        0x00002986:    60ac        .`      STR      r4,[r5,#8]
        0x00002988:    4620         F      MOV      r0,r4
        0x0000298a:    e8bd4070    ..p@    POP      {r4-r6,lr}
        0x0000298e:    e769        i.      B        plug_holes ; 0x2864
        0x00002990:    bd70        p.      POP      {r4-r6,pc}
    mem_trim
        0x00002992:    e92d47f0    -..G    PUSH     {r4-r10,lr}
        0x00002996:    4607        .F      MOV      r7,r0
        0x00002998:    1cc9        ..      ADDS     r1,r1,#3
        0x0000299a:    f0210003    !...    BIC      r0,r1,#3
        0x0000299e:    b284        ..      UXTH     r4,r0
        0x000029a0:    f44f4a80    O..J    MOV      r10,#0x4000
        0x000029a4:    2c0c        .,      CMP      r4,#0xc
        0x000029a6:    d201        ..      BCS      0x29ac ; mem_trim + 26
        0x000029a8:    240c        .$      MOVS     r4,#0xc
        0x000029aa:    e001        ..      B        0x29b0 ; mem_trim + 30
        0x000029ac:    4554        TE      CMP      r4,r10
        0x000029ae:    d828        (.      BHI      0x2a02 ; mem_trim + 112
        0x000029b0:    4e77        wN      LDR      r6,[pc,#476] ; [0x2b90] = 0x20000068
        0x000029b2:    6830        0h      LDR      r0,[r6,#0]
        0x000029b4:    4287        .B      CMP      r7,r0
        0x000029b6:    d302        ..      BCC      0x29be ; mem_trim + 44
        0x000029b8:    6870        ph      LDR      r0,[r6,#4]
        0x000029ba:    4287        .B      CMP      r7,r0
        0x000029bc:    d306        ..      BCC      0x29cc ; mem_trim + 58
        0x000029be:    a375        u.      ADR      r3,{pc}+0x1d6 ; 0x2b94
        0x000029c0:    f44f72c3    O..r    MOV      r2,#0x186
        0x000029c4:    a1bd        ..      ADR      r1,{pc}+0x2f8 ; 0x2cbc
        0x000029c6:    a085        ..      ADR      r0,{pc}+0x216 ; 0x2bdc
        0x000029c8:    f006fee6    ....    BL       __0printf$5 ; 0x9798
        0x000029cc:    6830        0h      LDR      r0,[r6,#0]
        0x000029ce:    4287        .B      CMP      r7,r0
        0x000029d0:    d33b        ;.      BCC      0x2a4a ; mem_trim + 184
        0x000029d2:    6871        qh      LDR      r1,[r6,#4]
        0x000029d4:    428f        .B      CMP      r7,r1
        0x000029d6:    d238        8.      BCS      0x2a4a ; mem_trim + 184
        0x000029d8:    f1a70508    ....    SUB      r5,r7,#8
        0x000029dc:    46b1        .F      MOV      r9,r6
        0x000029de:    1a28        (.      SUBS     r0,r5,r0
        0x000029e0:    b286        ..      UXTH     r6,r0
        0x000029e2:    8828        (.      LDRH     r0,[r5,#0]
        0x000029e4:    1b80        ..      SUBS     r0,r0,r6
        0x000029e6:    3808        .8      SUBS     r0,r0,#8
        0x000029e8:    fa1ff880    ....    UXTH     r8,r0
        0x000029ec:    4544        DE      CMP      r4,r8
        0x000029ee:    d906        ..      BLS      0x29fe ; mem_trim + 108
        0x000029f0:    a368        h.      ADR      r3,{pc}+0x1a4 ; 0x2b94
        0x000029f2:    f44f72cc    O..r    MOV      r2,#0x198
        0x000029f6:    a1b7        ..      ADR      r1,{pc}+0x2de ; 0x2cd4
        0x000029f8:    a078        x.      ADR      r0,{pc}+0x1e4 ; 0x2bdc
        0x000029fa:    f006fecd    ....    BL       __0printf$5 ; 0x9798
        0x000029fe:    4544        DE      CMP      r4,r8
        0x00002a00:    d902        ..      BLS      0x2a08 ; mem_trim + 118
        0x00002a02:    2000        .       MOVS     r0,#0
        0x00002a04:    e8bd87f0    ....    POP      {r4-r10,pc}
        0x00002a08:    d01f        ..      BEQ      0x2a4a ; mem_trim + 184
        0x00002a0a:    8829        ).      LDRH     r1,[r5,#0]
        0x00002a0c:    f8d90000    ....    LDR      r0,[r9,#0]
        0x00002a10:    464b        KF      MOV      r3,r9
        0x00002a12:    4401        .D      ADD      r1,r1,r0
        0x00002a14:    f04f0900    O...    MOV      r9,#0
        0x00002a18:    790a        .y      LDRB     r2,[r1,#4]
        0x00002a1a:    b1c2        ..      CBZ      r2,0x2a4e ; mem_trim + 188
        0x00002a1c:    f1040114    ....    ADD      r1,r4,#0x14
        0x00002a20:    4541        AE      CMP      r1,r8
        0x00002a22:    d812        ..      BHI      0x2a4a ; mem_trim + 184
        0x00002a24:    1931        1.      ADDS     r1,r6,r4
        0x00002a26:    3108        .1      ADDS     r1,r1,#8
        0x00002a28:    b28a        ..      UXTH     r2,r1
        0x00002a2a:    689c        .h      LDR      r4,[r3,#8]
        0x00002a2c:    1881        ..      ADDS     r1,r0,r2
        0x00002a2e:    42a1        .B      CMP      r1,r4
        0x00002a30:    d200        ..      BCS      0x2a34 ; mem_trim + 162
        0x00002a32:    6099        .`      STR      r1,[r3,#8]
        0x00002a34:    f8819004    ....    STRB     r9,[r1,#4]
        0x00002a38:    882b        +.      LDRH     r3,[r5,#0]
        0x00002a3a:    800b        ..      STRH     r3,[r1,#0]
        0x00002a3c:    804e        N.      STRH     r6,[r1,#2]
        0x00002a3e:    802a        *.      STRH     r2,[r5,#0]
        0x00002a40:    8809        ..      LDRH     r1,[r1,#0]
        0x00002a42:    4551        QE      CMP      r1,r10
        0x00002a44:    d001        ..      BEQ      0x2a4a ; mem_trim + 184
        0x00002a46:    1c80        ..      ADDS     r0,r0,#2
        0x00002a48:    520a        .R      STRH     r2,[r1,r0]
        0x00002a4a:    4638        8F      MOV      r0,r7
        0x00002a4c:    e7da        ..      B        0x2a04 ; mem_trim + 114
        0x00002a4e:    4434        4D      ADD      r4,r4,r6
        0x00002a50:    3408        .4      ADDS     r4,r4,#8
        0x00002a52:    f8d3c008    ....    LDR      r12,[r3,#8]
        0x00002a56:    880a        ..      LDRH     r2,[r1,#0]
        0x00002a58:    b2a4        ..      UXTH     r4,r4
        0x00002a5a:    458c        .E      CMP      r12,r1
        0x00002a5c:    d101        ..      BNE      0x2a62 ; mem_trim + 208
        0x00002a5e:    1901        ..      ADDS     r1,r0,r4
        0x00002a60:    6099        .`      STR      r1,[r3,#8]
        0x00002a62:    1901        ..      ADDS     r1,r0,r4
        0x00002a64:    f8819004    ....    STRB     r9,[r1,#4]
        0x00002a68:    800a        ..      STRH     r2,[r1,#0]
        0x00002a6a:    804e        N.      STRH     r6,[r1,#2]
        0x00002a6c:    802c        ,.      STRH     r4,[r5,#0]
        0x00002a6e:    8809        ..      LDRH     r1,[r1,#0]
        0x00002a70:    4551        QE      CMP      r1,r10
        0x00002a72:    d0ea        ..      BEQ      0x2a4a ; mem_trim + 184
        0x00002a74:    1c80        ..      ADDS     r0,r0,#2
        0x00002a76:    520c        .R      STRH     r4,[r1,r0]
        0x00002a78:    e7e7        ..      B        0x2a4a ; mem_trim + 184
    mem_malloc
        0x00002a7a:    e92d47f0    -..G    PUSH     {r4-r10,lr}
        0x00002a7e:    2800        .(      CMP      r0,#0
        0x00002a80:    d0c0        ..      BEQ      0x2a04 ; mem_trim + 114
        0x00002a82:    1cc0        ..      ADDS     r0,r0,#3
        0x00002a84:    f0200003     ...    BIC      r0,r0,#3
        0x00002a88:    b285        ..      UXTH     r5,r0
        0x00002a8a:    f44f4880    O..H    MOV      r8,#0x4000
        0x00002a8e:    2d0c        .-      CMP      r5,#0xc
        0x00002a90:    d201        ..      BCS      0x2a96 ; mem_malloc + 28
        0x00002a92:    250c        .%      MOVS     r5,#0xc
        0x00002a94:    e001        ..      B        0x2a9a ; mem_malloc + 32
        0x00002a96:    4545        EE      CMP      r5,r8
        0x00002a98:    d86b        k.      BHI      0x2b72 ; mem_malloc + 248
        0x00002a9a:    4a3d        =J      LDR      r2,[pc,#244] ; [0x2b90] = 0x20000068
        0x00002a9c:    4691        .F      MOV      r9,r2
        0x00002a9e:    6896        .h      LDR      r6,[r2,#8]
        0x00002aa0:    6811        .h      LDR      r1,[r2,#0]
        0x00002aa2:    f5c54280    ...B    RSB      r2,r5,#0x4000
        0x00002aa6:    1a70        p.      SUBS     r0,r6,r1
        0x00002aa8:    b280        ..      UXTH     r0,r0
        0x00002aaa:    e060        `.      B        0x2b6e ; mem_malloc + 244
        0x00002aac:    180c        ..      ADDS     r4,r1,r0
        0x00002aae:    7923        #y      LDRB     r3,[r4,#4]
        0x00002ab0:    bbeb        ..      CBNZ     r3,0x2b2e ; mem_malloc + 180
        0x00002ab2:    8823        #.      LDRH     r3,[r4,#0]
        0x00002ab4:    1a1b        ..      SUBS     r3,r3,r0
        0x00002ab6:    3b08        .;      SUBS     r3,r3,#8
        0x00002ab8:    42ab        .B      CMP      r3,r5
        0x00002aba:    d357        W.      BCC      0x2b6c ; mem_malloc + 242
        0x00002abc:    8822        ".      LDRH     r2,[r4,#0]
        0x00002abe:    f04f0c01    O...    MOV      r12,#1
        0x00002ac2:    1a13        ..      SUBS     r3,r2,r0
        0x00002ac4:    3b08        .;      SUBS     r3,r3,#8
        0x00002ac6:    f1050214    ....    ADD      r2,r5,#0x14
        0x00002aca:    4293        .B      CMP      r3,r2
        0x00002acc:    d311        ..      BCC      0x2af2 ; mem_malloc + 120
        0x00002ace:    1942        B.      ADDS     r2,r0,r5
        0x00002ad0:    3208        .2      ADDS     r2,r2,#8
        0x00002ad2:    b293        ..      UXTH     r3,r2
        0x00002ad4:    18ca        ..      ADDS     r2,r1,r3
        0x00002ad6:    2700        .'      MOVS     r7,#0
        0x00002ad8:    7117        .q      STRB     r7,[r2,#4]
        0x00002ada:    8827        '.      LDRH     r7,[r4,#0]
        0x00002adc:    8017        ..      STRH     r7,[r2,#0]
        0x00002ade:    8050        P.      STRH     r0,[r2,#2]
        0x00002ae0:    8023        #.      STRH     r3,[r4,#0]
        0x00002ae2:    f884c004    ....    STRB     r12,[r4,#4]
        0x00002ae6:    8810        ..      LDRH     r0,[r2,#0]
        0x00002ae8:    4540        @E      CMP      r0,r8
        0x00002aea:    d004        ..      BEQ      0x2af6 ; mem_malloc + 124
        0x00002aec:    1c8a        ..      ADDS     r2,r1,#2
        0x00002aee:    5283        .R      STRH     r3,[r0,r2]
        0x00002af0:    e001        ..      B        0x2af6 ; mem_malloc + 124
        0x00002af2:    f884c004    ....    STRB     r12,[r4,#4]
        0x00002af6:    42b4        .B      CMP      r4,r6
        0x00002af8:    d116        ..      BNE      0x2b28 ; mem_malloc + 174
        0x00002afa:    4825        %H      LDR      r0,[pc,#148] ; [0x2b90] = 0x20000068
        0x00002afc:    464a        JF      MOV      r2,r9
        0x00002afe:    6840        @h      LDR      r0,[r0,#4]
        0x00002b00:    e001        ..      B        0x2b06 ; mem_malloc + 140
        0x00002b02:    8833        3.      LDRH     r3,[r6,#0]
        0x00002b04:    185e        ^.      ADDS     r6,r3,r1
        0x00002b06:    7933        3y      LDRB     r3,[r6,#4]
        0x00002b08:    b10b        ..      CBZ      r3,0x2b0e ; mem_malloc + 148
        0x00002b0a:    4286        .B      CMP      r6,r0
        0x00002b0c:    d1f9        ..      BNE      0x2b02 ; mem_malloc + 136
        0x00002b0e:    f8c96008    ...`    STR      r6,[r9,#8]
        0x00002b12:    4286        .B      CMP      r6,r0
        0x00002b14:    d008        ..      BEQ      0x2b28 ; mem_malloc + 174
        0x00002b16:    7930        0y      LDRB     r0,[r6,#4]
        0x00002b18:    b130        0.      CBZ      r0,0x2b28 ; mem_malloc + 174
        0x00002b1a:    a31e        ..      ADR      r3,{pc}+0x7a ; 0x2b94
        0x00002b1c:    f2402262    @.b"    MOV      r2,#0x262
        0x00002b20:    a174        t.      ADR      r1,{pc}+0x1d4 ; 0x2cf4
        0x00002b22:    a02e        ..      ADR      r0,{pc}+0xba ; 0x2bdc
        0x00002b24:    f006fe38    ..8.    BL       __0printf$5 ; 0x9798
        0x00002b28:    1960        `.      ADDS     r0,r4,r5
        0x00002b2a:    3008        .0      ADDS     r0,r0,#8
        0x00002b2c:    e000        ..      B        0x2b30 ; mem_malloc + 182
        0x00002b2e:    e01d        ..      B        0x2b6c ; mem_malloc + 242
        0x00002b30:    f8d91004    ....    LDR      r1,[r9,#4]
        0x00002b34:    4288        .B      CMP      r0,r1
        0x00002b36:    d906        ..      BLS      0x2b46 ; mem_malloc + 204
        0x00002b38:    a316        ..      ADR      r3,{pc}+0x5c ; 0x2b94
        0x00002b3a:    f2402266    @.f"    MOV      r2,#0x266
        0x00002b3e:    a174        t.      ADR      r1,{pc}+0x1d2 ; 0x2d10
        0x00002b40:    a026        &.      ADR      r0,{pc}+0x9c ; 0x2bdc
        0x00002b42:    f006fe29    ..).    BL       __0printf$5 ; 0x9798
        0x00002b46:    07a0        ..      LSLS     r0,r4,#30
        0x00002b48:    d00d        ..      BEQ      0x2b66 ; mem_malloc + 236
        0x00002b4a:    a312        ..      ADR      r3,{pc}+0x4a ; 0x2b94
        0x00002b4c:    f44f721a    O..r    MOV      r2,#0x268
        0x00002b50:    a17b        {.      ADR      r1,{pc}+0x1f0 ; 0x2d40
        0x00002b52:    a022        ".      ADR      r0,{pc}+0x8a ; 0x2bdc
        0x00002b54:    f006fe20    .. .    BL       __0printf$5 ; 0x9798
        0x00002b58:    a30e        ..      ADR      r3,{pc}+0x3c ; 0x2b94
        0x00002b5a:    f240226a    @.j"    MOV      r2,#0x26a
        0x00002b5e:    a184        ..      ADR      r1,{pc}+0x212 ; 0x2d70
        0x00002b60:    a01e        ..      ADR      r0,{pc}+0x7c ; 0x2bdc
        0x00002b62:    f006fe19    ....    BL       __0printf$5 ; 0x9798
        0x00002b66:    f1040008    ....    ADD      r0,r4,#8
        0x00002b6a:    e74b        K.      B        0x2a04 ; mem_trim + 114
        0x00002b6c:    5a08        .Z      LDRH     r0,[r1,r0]
        0x00002b6e:    4282        .B      CMP      r2,r0
        0x00002b70:    dc9c        ..      BGT      0x2aac ; mem_malloc + 50
        0x00002b72:    2000        .       MOVS     r0,#0
        0x00002b74:    e746        F.      B        0x2a04 ; mem_trim + 114
    mem_calloc
        0x00002b76:    b570        p.      PUSH     {r4-r6,lr}
        0x00002b78:    fb00f501    ....    MUL      r5,r0,r1
        0x00002b7c:    b2a8        ..      UXTH     r0,r5
        0x00002b7e:    f7ffff7c    ..|.    BL       mem_malloc ; 0x2a7a
        0x00002b82:    0004        ..      MOVS     r4,r0
        0x00002b84:    d002        ..      BEQ      0x2b8c ; mem_calloc + 22
        0x00002b86:    4629        )F      MOV      r1,r5
        0x00002b88:    f006fda6    ....    BL       __aeabi_memclr ; 0x96d8
        0x00002b8c:    4620         F      MOV      r0,r4
        0x00002b8e:    bd70        p.      POP      {r4-r6,pc}
    $d
        0x00002b90:    20000068    h..     DCD    536871016
        0x00002b94:    2e5c2e2e    ..\.    DCD    777793070
        0x00002b98:    2e2e5c2e    .\..    DCD    774790190
        0x00002b9c:    6968545c    \Thi    DCD    1768445020
        0x00002ba0:    61506472    rdPa    DCD    1632658546
        0x00002ba4:    5c797472    rty\    DCD    1551463538
        0x00002ba8:    7069776c    lwip    DCD    1885960044
        0x00002bac:    342e312d    -1.4    DCD    875442477
        0x00002bb0:    735c312e    .1\s    DCD    1935421742
        0x00002bb4:    635c6372    rc\c    DCD    1666999154
        0x00002bb8:    5c65726f    ore\    DCD    1550152303
        0x00002bbc:    2e6d656d    mem.    DCD    778921325
        0x00002bc0:    00000063    c...    DCD    99
        0x00002bc4:    67756c70    plug    DCD    1735748720
        0x00002bc8:    6c6f685f    _hol    DCD    1819240543
        0x00002bcc:    203a7365    es:     DCD    540701541
        0x00002bd0:    206d656d    mem     DCD    544040301
        0x00002bd4:    72203d3e    >= r    DCD    1914715454
        0x00002bd8:    00006d61    am..    DCD    28001
        0x00002bdc:    65737341    Asse    DCD    1702064961
        0x00002be0:    6f697472    rtio    DCD    1869182066
        0x00002be4:    2522206e    n "%    DCD    622993518
        0x00002be8:    66202273    s" f    DCD    1713382003
        0x00002bec:    656c6961    aile    DCD    1701603681
        0x00002bf0:    74612064    d at    DCD    1952522340
        0x00002bf4:    6e696c20     lin    DCD    1852402720
        0x00002bf8:    64252065    e %d    DCD    1680154725
        0x00002bfc:    206e6920     in     DCD    544106784
        0x00002c00:    000a7325    %s..    DCD    684837
        0x00002c04:    67756c70    plug    DCD    1735748720
        0x00002c08:    6c6f685f    _hol    DCD    1819240543
        0x00002c0c:    203a7365    es:     DCD    540701541
        0x00002c10:    206d656d    mem     DCD    544040301
        0x00002c14:    6172203c    < ra    DCD    1634869308
        0x00002c18:    6e655f6d    m_en    DCD    1852137325
        0x00002c1c:    00000064    d...    DCD    100
        0x00002c20:    67756c70    plug    DCD    1735748720
        0x00002c24:    6c6f685f    _hol    DCD    1819240543
        0x00002c28:    203a7365    es:     DCD    540701541
        0x00002c2c:    2d6d656d    mem-    DCD    762144109
        0x00002c30:    6573753e    >use    DCD    1702065470
        0x00002c34:    3d3d2064    d ==    DCD    1027416164
        0x00002c38:    00003020     0..    DCD    12320
        0x00002c3c:    67756c70    plug    DCD    1735748720
        0x00002c40:    6c6f685f    _hol    DCD    1819240543
        0x00002c44:    203a7365    es:     DCD    540701541
        0x00002c48:    2d6d656d    mem-    DCD    762144109
        0x00002c4c:    78656e3e    >nex    DCD    2019913278
        0x00002c50:    3d3c2074    t <=    DCD    1027350644
        0x00002c54:    4d454d20     MEM    DCD    1296387360
        0x00002c58:    5a49535f    _SIZ    DCD    1514754911
        0x00002c5c:    4c415f45    E_AL    DCD    1279352645
        0x00002c60:    454e4749    IGNE    DCD    1162757961
        0x00002c64:    00000044    D...    DCD    68
        0x00002c68:    200009c6    ...     DCD    536873414
        0x00002c6c:    5f6d656d    mem_    DCD    1601004909
        0x00002c70:    65657266    free    DCD    1701147238
        0x00002c74:    6173203a    : sa    DCD    1634934842
        0x00002c78:    7974696e    nity    DCD    2037672302
        0x00002c7c:    65686320     che    DCD    1701339936
        0x00002c80:    61206b63    ck a    DCD    1629514595
        0x00002c84:    6e67696c    lign    DCD    1852270956
        0x00002c88:    746e656d    ment    DCD    1953391981
        0x00002c8c:    00000000    ....    DCD    0
        0x00002c90:    5f6d656d    mem_    DCD    1601004909
        0x00002c94:    65657266    free    DCD    1701147238
        0x00002c98:    656c203a    : le    DCD    1701584954
        0x00002c9c:    206c6167    gal     DCD    543973735
        0x00002ca0:    6f6d656d    memo    DCD    1869440365
        0x00002ca4:    00007972    ry..    DCD    31090
        0x00002ca8:    5f6d656d    mem_    DCD    1601004909
        0x00002cac:    65657266    free    DCD    1701147238
        0x00002cb0:    656d203a    : me    DCD    1701650490
        0x00002cb4:    753e2d6d    m->u    DCD    1967009133
        0x00002cb8:    00646573    sed.    DCD    6579571
        0x00002cbc:    5f6d656d    mem_    DCD    1601004909
        0x00002cc0:    6d697274    trim    DCD    1835627124
        0x00002cc4:    656c203a    : le    DCD    1701584954
        0x00002cc8:    206c6167    gal     DCD    543973735
        0x00002ccc:    6f6d656d    memo    DCD    1869440365
        0x00002cd0:    00007972    ry..    DCD    31090
        0x00002cd4:    5f6d656d    mem_    DCD    1601004909
        0x00002cd8:    6d697274    trim    DCD    1835627124
        0x00002cdc:    6e616320     can    DCD    1851876128
        0x00002ce0:    6c6e6f20     onl    DCD    1819176736
        0x00002ce4:    68732079    y sh    DCD    1752375417
        0x00002ce8:    6b6e6972    rink    DCD    1802398066
        0x00002cec:    6d656d20     mem    DCD    1835363616
        0x00002cf0:    0079726f    ory.    DCD    7959151
        0x00002cf4:    5f6d656d    mem_    DCD    1601004909
        0x00002cf8:    6c6c616d    mall    DCD    1819042157
        0x00002cfc:    203a636f    oc:     DCD    540697455
        0x00002d00:    72666c21    !lfr    DCD    1919314977
        0x00002d04:    3e2d6565    ee->    DCD    1043162469
        0x00002d08:    64657375    used    DCD    1684370293
        0x00002d0c:    00000000    ....    DCD    0
        0x00002d10:    5f6d656d    mem_    DCD    1601004909
        0x00002d14:    6c6c616d    mall    DCD    1819042157
        0x00002d18:    203a636f    oc:     DCD    540697455
        0x00002d1c:    6f6c6c61    allo    DCD    1869376609
        0x00002d20:    65746163    cate    DCD    1702125923
        0x00002d24:    656d2064    d me    DCD    1701650532
        0x00002d28:    79726f6d    mory    DCD    2037542765
        0x00002d2c:    746f6e20     not    DCD    1953459744
        0x00002d30:    6f626120     abo    DCD    1868718368
        0x00002d34:    72206576    ve r    DCD    1914725750
        0x00002d38:    655f6d61    am_e    DCD    1700752737
        0x00002d3c:    002e646e    nd..    DCD    3040366
        0x00002d40:    5f6d656d    mem_    DCD    1601004909
        0x00002d44:    6c6c616d    mall    DCD    1819042157
        0x00002d48:    203a636f    oc:     DCD    540697455
        0x00002d4c:    6f6c6c61    allo    DCD    1869376609
        0x00002d50:    65746163    cate    DCD    1702125923
        0x00002d54:    656d2064    d me    DCD    1701650532
        0x00002d58:    79726f6d    mory    DCD    2037542765
        0x00002d5c:    6f727020     pro    DCD    1869770784
        0x00002d60:    6c726570    perl    DCD    1819436400
        0x00002d64:    6c612079    y al    DCD    1818304633
        0x00002d68:    656e6769    igne    DCD    1701734249
        0x00002d6c:    00002e64    d...    DCD    11876
        0x00002d70:    5f6d656d    mem_    DCD    1601004909
        0x00002d74:    6c6c616d    mall    DCD    1819042157
        0x00002d78:    203a636f    oc:     DCD    540697455
        0x00002d7c:    696e6173    sani    DCD    1768841587
        0x00002d80:    63207974    ty c    DCD    1663072628
        0x00002d84:    6b636568    heck    DCD    1801676136
        0x00002d88:    696c6120     ali    DCD    1768710432
        0x00002d8c:    656d6e67    gnme    DCD    1701670503
        0x00002d90:    0000746e    nt..    DCD    29806
    $t
    .text
    memp_init
        0x00002d94:    b5f0        ..      PUSH     {r4-r7,lr}
        0x00002d96:    2000        .       MOVS     r0,#0
        0x00002d98:    1c40        @.      ADDS     r0,r0,#1
        0x00002d9a:    b280        ..      UXTH     r0,r0
        0x00002d9c:    2807        .(      CMP      r0,#7
        0x00002d9e:    d3fb        ..      BCC      0x2d98 ; memp_init + 4
        0x00002da0:    482a        *H      LDR      r0,[pc,#168] ; [0x2e4c] = 0x200049f7
        0x00002da2:    4c2a        *L      LDR      r4,[pc,#168] ; [0x2e4c] = 0x200049f7
        0x00002da4:    f0200103     ...    BIC      r1,r0,#3
        0x00002da8:    2000        .       MOVS     r0,#0
        0x00002daa:    4d29        )M      LDR      r5,[pc,#164] ; [0x2e50] = 0x9b46
        0x00002dac:    4607        .F      MOV      r7,r0
        0x00002dae:    3c1f        .<      SUBS     r4,r4,#0x1f
        0x00002db0:    f105060e    ....    ADD      r6,r5,#0xe
        0x00002db4:    f8447020    D. p    STR      r7,[r4,r0,LSL #2]
        0x00002db8:    2200        ."      MOVS     r2,#0
        0x00002dba:    e009        ..      B        0x2dd0 ; memp_init + 60
        0x00002dbc:    f8543020    T. 0    LDR      r3,[r4,r0,LSL #2]
        0x00002dc0:    600b        .`      STR      r3,[r1,#0]
        0x00002dc2:    f8441020    D. .    STR      r1,[r4,r0,LSL #2]
        0x00002dc6:    f8353010    5..0    LDRH     r3,[r5,r0,LSL #1]
        0x00002dca:    1c52        R.      ADDS     r2,r2,#1
        0x00002dcc:    4419        .D      ADD      r1,r1,r3
        0x00002dce:    b292        ..      UXTH     r2,r2
        0x00002dd0:    f8363010    6..0    LDRH     r3,[r6,r0,LSL #1]
        0x00002dd4:    4293        .B      CMP      r3,r2
        0x00002dd6:    d8f1        ..      BHI      0x2dbc ; memp_init + 40
        0x00002dd8:    1c40        @.      ADDS     r0,r0,#1
        0x00002dda:    b280        ..      UXTH     r0,r0
        0x00002ddc:    2807        .(      CMP      r0,#7
        0x00002dde:    d3e9        ..      BCC      0x2db4 ; memp_init + 32
        0x00002de0:    bdf0        ..      POP      {r4-r7,pc}
    memp_malloc
        0x00002de2:    b510        ..      PUSH     {r4,lr}
        0x00002de4:    2807        .(      CMP      r0,#7
        0x00002de6:    d308        ..      BCC      0x2dfa ; memp_malloc + 24
        0x00002de8:    a31a        ..      ADR      r3,{pc}+0x6c ; 0x2e54
        0x00002dea:    f44f72c7    O..r    MOV      r2,#0x18e
        0x00002dee:    a125        %.      ADR      r1,{pc}+0x96 ; 0x2e84
        0x00002df0:    a02c        ,.      ADR      r0,{pc}+0xb4 ; 0x2ea4
        0x00002df2:    f006fcd1    ....    BL       __0printf$5 ; 0x9798
        0x00002df6:    2000        .       MOVS     r0,#0
        0x00002df8:    bd10        ..      POP      {r4,pc}
        0x00002dfa:    4914        .I      LDR      r1,[pc,#80] ; [0x2e4c] = 0x200049f7
        0x00002dfc:    391f        .9      SUBS     r1,r1,#0x1f
        0x00002dfe:    f8514020    Q. @    LDR      r4,[r1,r0,LSL #2]
        0x00002e02:    b15c        \.      CBZ      r4,0x2e1c ; memp_malloc + 58
        0x00002e04:    6822        "h      LDR      r2,[r4,#0]
        0x00002e06:    f8412020    A.      STR      r2,[r1,r0,LSL #2]
        0x00002e0a:    07a0        ..      LSLS     r0,r4,#30
        0x00002e0c:    d006        ..      BEQ      0x2e1c ; memp_malloc + 58
        0x00002e0e:    a311        ..      ADR      r3,{pc}+0x46 ; 0x2e54
        0x00002e10:    f240129f    @...    MOV      r2,#0x19f
        0x00002e14:    a12d        -.      ADR      r1,{pc}+0xb8 ; 0x2ecc
        0x00002e16:    a023        #.      ADR      r0,{pc}+0x8e ; 0x2ea4
        0x00002e18:    f006fcbe    ....    BL       __0printf$5 ; 0x9798
        0x00002e1c:    4620         F      MOV      r0,r4
        0x00002e1e:    bd10        ..      POP      {r4,pc}
    memp_free
        0x00002e20:    b570        p.      PUSH     {r4-r6,lr}
        0x00002e22:    4605        .F      MOV      r5,r0
        0x00002e24:    000c        ..      MOVS     r4,r1
        0x00002e26:    d00f        ..      BEQ      0x2e48 ; memp_free + 40
        0x00002e28:    07a0        ..      LSLS     r0,r4,#30
        0x00002e2a:    d006        ..      BEQ      0x2e3a ; memp_free + 26
        0x00002e2c:    a309        ..      ADR      r3,{pc}+0x28 ; 0x2e54
        0x00002e2e:    f24012bb    @...    MOV      r2,#0x1bb
        0x00002e32:    a12f        /.      ADR      r1,{pc}+0xbe ; 0x2ef0
        0x00002e34:    a01b        ..      ADR      r0,{pc}+0x70 ; 0x2ea4
        0x00002e36:    f006fcaf    ....    BL       __0printf$5 ; 0x9798
        0x00002e3a:    4804        .H      LDR      r0,[pc,#16] ; [0x2e4c] = 0x200049f7
        0x00002e3c:    381f        .8      SUBS     r0,r0,#0x1f
        0x00002e3e:    f8501025    P.%.    LDR      r1,[r0,r5,LSL #2]
        0x00002e42:    6021        !`      STR      r1,[r4,#0]
        0x00002e44:    f8404025    @.%@    STR      r4,[r0,r5,LSL #2]
        0x00002e48:    bd70        p.      POP      {r4-r6,pc}
    $d
        0x00002e4a:    0000        ..      DCW    0
        0x00002e4c:    200049f7    .I.     DCD    536889847
        0x00002e50:    00009b46    F...    DCD    39750
        0x00002e54:    2e5c2e2e    ..\.    DCD    777793070
        0x00002e58:    2e2e5c2e    .\..    DCD    774790190
        0x00002e5c:    6968545c    \Thi    DCD    1768445020
        0x00002e60:    61506472    rdPa    DCD    1632658546
        0x00002e64:    5c797472    rty\    DCD    1551463538
        0x00002e68:    7069776c    lwip    DCD    1885960044
        0x00002e6c:    342e312d    -1.4    DCD    875442477
        0x00002e70:    735c312e    .1\s    DCD    1935421742
        0x00002e74:    635c6372    rc\c    DCD    1666999154
        0x00002e78:    5c65726f    ore\    DCD    1550152303
        0x00002e7c:    706d656d    memp    DCD    1886217581
        0x00002e80:    0000632e    .c..    DCD    25390
        0x00002e84:    706d656d    memp    DCD    1886217581
        0x00002e88:    6c616d5f    _mal    DCD    1818324319
        0x00002e8c:    3a636f6c    loc:    DCD    979595116
        0x00002e90:    70797420     typ    DCD    1887007776
        0x00002e94:    203c2065    e <     DCD    540811365
        0x00002e98:    504d454d    MEMP    DCD    1347241293
        0x00002e9c:    58414d5f    _MAX    DCD    1480674655
        0x00002ea0:    00000000    ....    DCD    0
        0x00002ea4:    65737341    Asse    DCD    1702064961
        0x00002ea8:    6f697472    rtio    DCD    1869182066
        0x00002eac:    2522206e    n "%    DCD    622993518
        0x00002eb0:    66202273    s" f    DCD    1713382003
        0x00002eb4:    656c6961    aile    DCD    1701603681
        0x00002eb8:    74612064    d at    DCD    1952522340
        0x00002ebc:    6e696c20     lin    DCD    1852402720
        0x00002ec0:    64252065    e %d    DCD    1680154725
        0x00002ec4:    206e6920     in     DCD    544106784
        0x00002ec8:    000a7325    %s..    DCD    684837
        0x00002ecc:    706d656d    memp    DCD    1886217581
        0x00002ed0:    6c616d5f    _mal    DCD    1818324319
        0x00002ed4:    3a636f6c    loc:    DCD    979595116
        0x00002ed8:    6d656d20     mem    DCD    1835363616
        0x00002edc:    72702070    p pr    DCD    1919950960
        0x00002ee0:    7265706f    oper    DCD    1919250543
        0x00002ee4:    6120796c    ly a    DCD    1629518188
        0x00002ee8:    6e67696c    lign    DCD    1852270956
        0x00002eec:    00006465    ed..    DCD    25701
        0x00002ef0:    706d656d    memp    DCD    1886217581
        0x00002ef4:    6572665f    _fre    DCD    1701996127
        0x00002ef8:    6d203a65    e: m    DCD    1830828645
        0x00002efc:    70206d65    em p    DCD    1881173349
        0x00002f00:    65706f72    rope    DCD    1701867378
        0x00002f04:    20796c72    rly     DCD    544828530
        0x00002f08:    67696c61    alig    DCD    1734962273
        0x00002f0c:    0064656e    ned.    DCD    6579566
    $t
    .text
    netif_init
        0x00002f10:    4770        pG      BX       lr
    netif_set_gw
        0x00002f12:    b101        ..      CBZ      r1,0x2f16 ; netif_set_gw + 4
        0x00002f14:    6809        .h      LDR      r1,[r1,#0]
        0x00002f16:    60c1        .`      STR      r1,[r0,#0xc]
        0x00002f18:    4770        pG      BX       lr
    netif_set_netmask
        0x00002f1a:    b101        ..      CBZ      r1,0x2f1e ; netif_set_netmask + 4
        0x00002f1c:    6809        .h      LDR      r1,[r1,#0]
        0x00002f1e:    6081        .`      STR      r1,[r0,#8]
        0x00002f20:    4770        pG      BX       lr
    netif_set_ipaddr
        0x00002f22:    b570        p.      PUSH     {r4-r6,lr}
        0x00002f24:    4605        .F      MOV      r5,r0
        0x00002f26:    000c        ..      MOVS     r4,r1
        0x00002f28:    d027        '.      BEQ      0x2f7a ; netif_set_ipaddr + 88
        0x00002f2a:    6820         h      LDR      r0,[r4,#0]
        0x00002f2c:    6869        ih      LDR      r1,[r5,#4]
        0x00002f2e:    4288        .B      CMP      r0,r1
        0x00002f30:    d01e        ..      BEQ      0x2f70 ; netif_set_ipaddr + 78
        0x00002f32:    4877        wH      LDR      r0,[pc,#476] ; [0x3110] = 0x20000098
        0x00002f34:    6800        .h      LDR      r0,[r0,#0]
        0x00002f36:    e009        ..      B        0x2f4c ; netif_set_ipaddr + 42
        0x00002f38:    6801        .h      LDR      r1,[r0,#0]
        0x00002f3a:    686a        jh      LDR      r2,[r5,#4]
        0x00002f3c:    4291        .B      CMP      r1,r2
        0x00002f3e:    d104        ..      BNE      0x2f4a ; netif_set_ipaddr + 40
        0x00002f40:    68c6        .h      LDR      r6,[r0,#0xc]
        0x00002f42:    f001fc31    ..1.    BL       tcp_abort ; 0x47a8
        0x00002f46:    4630        0F      MOV      r0,r6
        0x00002f48:    e000        ..      B        0x2f4c ; netif_set_ipaddr + 42
        0x00002f4a:    68c0        .h      LDR      r0,[r0,#0xc]
        0x00002f4c:    2800        .(      CMP      r0,#0
        0x00002f4e:    d1f3        ..      BNE      0x2f38 ; netif_set_ipaddr + 22
        0x00002f50:    4870        pH      LDR      r0,[pc,#448] ; [0x3114] = 0x20000094
        0x00002f52:    6800        .h      LDR      r0,[r0,#0]
        0x00002f54:    e009        ..      B        0x2f6a ; netif_set_ipaddr + 72
        0x00002f56:    d007        ..      BEQ      0x2f68 ; netif_set_ipaddr + 70
        0x00002f58:    6801        .h      LDR      r1,[r0,#0]
        0x00002f5a:    b129        ).      CBZ      r1,0x2f68 ; netif_set_ipaddr + 70
        0x00002f5c:    686a        jh      LDR      r2,[r5,#4]
        0x00002f5e:    4291        .B      CMP      r1,r2
        0x00002f60:    d102        ..      BNE      0x2f68 ; netif_set_ipaddr + 70
        0x00002f62:    b144        D.      CBZ      r4,0x2f76 ; netif_set_ipaddr + 84
        0x00002f64:    6821        !h      LDR      r1,[r4,#0]
        0x00002f66:    6001        .`      STR      r1,[r0,#0]
        0x00002f68:    68c0        .h      LDR      r0,[r0,#0xc]
        0x00002f6a:    2800        .(      CMP      r0,#0
        0x00002f6c:    d1f3        ..      BNE      0x2f56 ; netif_set_ipaddr + 52
        0x00002f6e:    b124        $.      CBZ      r4,0x2f7a ; netif_set_ipaddr + 88
        0x00002f70:    6820         h      LDR      r0,[r4,#0]
        0x00002f72:    6068        h`      STR      r0,[r5,#4]
        0x00002f74:    bd70        p.      POP      {r4-r6,pc}
        0x00002f76:    2100        .!      MOVS     r1,#0
        0x00002f78:    e7f5        ..      B        0x2f66 ; netif_set_ipaddr + 68
        0x00002f7a:    2000        .       MOVS     r0,#0
        0x00002f7c:    e7f9        ..      B        0x2f72 ; netif_set_ipaddr + 80
    netif_set_addr
        0x00002f7e:    b570        p.      PUSH     {r4-r6,lr}
        0x00002f80:    4606        .F      MOV      r6,r0
        0x00002f82:    4614        .F      MOV      r4,r2
        0x00002f84:    461d        .F      MOV      r5,r3
        0x00002f86:    f7ffffcc    ....    BL       netif_set_ipaddr ; 0x2f22
        0x00002f8a:    4621        !F      MOV      r1,r4
        0x00002f8c:    4630        0F      MOV      r0,r6
        0x00002f8e:    f7ffffc4    ....    BL       netif_set_netmask ; 0x2f1a
        0x00002f92:    4629        )F      MOV      r1,r5
        0x00002f94:    4630        0F      MOV      r0,r6
        0x00002f96:    e8bd4070    ..p@    POP      {r4-r6,lr}
        0x00002f9a:    e7ba        ..      B        netif_set_gw ; 0x2f12
    netif_add
        0x00002f9c:    e92d47f0    -..G    PUSH     {r4-r10,lr}
        0x00002fa0:    4604        .F      MOV      r4,r0
        0x00002fa2:    ed2d8b02    -...    VPUSH    {d8}
        0x00002fa6:    460e        .F      MOV      r6,r1
        0x00002fa8:    e9dd750a    ...u    LDRD     r7,r5,[sp,#0x28]
        0x00002fac:    ed9d8a0c    ....    VLDR     s16,[sp,#0x30]
        0x00002fb0:    4690        .F      MOV      r8,r2
        0x00002fb2:    4699        .F      MOV      r9,r3
        0x00002fb4:    b92d        -.      CBNZ     r5,0x2fc2 ; netif_add + 38
        0x00002fb6:    a358        X.      ADR      r3,{pc}+0x162 ; 0x3118
        0x00002fb8:    228f        ."      MOVS     r2,#0x8f
        0x00002fba:    a163        c.      ADR      r1,{pc}+0x18e ; 0x3148
        0x00002fbc:    a068        h.      ADR      r0,{pc}+0x1a4 ; 0x3160
        0x00002fbe:    f006fbeb    ....    BL       __0printf$5 ; 0x9798
        0x00002fc2:    2000        .       MOVS     r0,#0
        0x00002fc4:    6060        ``      STR      r0,[r4,#4]
        0x00002fc6:    60a0        .`      STR      r0,[r4,#8]
        0x00002fc8:    60e0        .`      STR      r0,[r4,#0xc]
        0x00002fca:    f884002d    ..-.    STRB     r0,[r4,#0x2d]
        0x00002fce:    e9c47007    ...p    STRD     r7,r0,[r4,#0x1c]
        0x00002fd2:    4f6d        mO      LDR      r7,[pc,#436] ; [0x3188] = 0x20000074
        0x00002fd4:    464b        KF      MOV      r3,r9
        0x00002fd6:    4642        BF      MOV      r2,r8
        0x00002fd8:    7838        8x      LDRB     r0,[r7,#0]
        0x00002fda:    f8840030    ..0.    STRB     r0,[r4,#0x30]
        0x00002fde:    1c40        @.      ADDS     r0,r0,#1
        0x00002fe0:    7038        8p      STRB     r0,[r7,#0]
        0x00002fe2:    ed848a04    ....    VSTR     s16,[r4,#0x10]
        0x00002fe6:    4631        1F      MOV      r1,r6
        0x00002fe8:    4620         F      MOV      r0,r4
        0x00002fea:    f7ffffc8    ....    BL       netif_set_addr ; 0x2f7e
        0x00002fee:    4620         F      MOV      r0,r4
        0x00002ff0:    47a8        .G      BLX      r5
        0x00002ff2:    b120         .      CBZ      r0,0x2ffe ; netif_add + 98
        0x00002ff4:    2000        .       MOVS     r0,#0
        0x00002ff6:    ecbd8b02    ....    VPOP     {d8}
        0x00002ffa:    e8bd87f0    ....    POP      {r4-r10,pc}
        0x00002ffe:    6878        xh      LDR      r0,[r7,#4]
        0x00003000:    6020         `      STR      r0,[r4,#0]
        0x00003002:    4620         F      MOV      r0,r4
        0x00003004:    607c        |`      STR      r4,[r7,#4]
        0x00003006:    e7f6        ..      B        0x2ff6 ; netif_add + 90
    netif_set_default
        0x00003008:    495f        _I      LDR      r1,[pc,#380] ; [0x3188] = 0x20000074
        0x0000300a:    6088        .`      STR      r0,[r1,#8]
        0x0000300c:    4770        pG      BX       lr
    netif_set_down
        0x0000300e:    f890102d    ..-.    LDRB     r1,[r0,#0x2d]
        0x00003012:    07ca        ..      LSLS     r2,r1,#31
        0x00003014:    d007        ..      BEQ      0x3026 ; netif_set_down + 24
        0x00003016:    f0210101    !...    BIC      r1,r1,#1
        0x0000301a:    f880102d    ..-.    STRB     r1,[r0,#0x2d]
        0x0000301e:    0689        ..      LSLS     r1,r1,#26
        0x00003020:    d501        ..      BPL      0x3026 ; netif_set_down + 24
        0x00003022:    f005bc3d    ..=.    B.W      etharp_cleanup_netif ; 0x88a0
        0x00003026:    4770        pG      BX       lr
    netif_remove
        0x00003028:    b510        ..      PUSH     {r4,lr}
        0x0000302a:    0004        ..      MOVS     r4,r0
        0x0000302c:    d019        ..      BEQ      0x3062 ; netif_remove + 58
        0x0000302e:    f894002d    ..-.    LDRB     r0,[r4,#0x2d]
        0x00003032:    07c0        ..      LSLS     r0,r0,#31
        0x00003034:    d002        ..      BEQ      0x303c ; netif_remove + 20
        0x00003036:    4620         F      MOV      r0,r4
        0x00003038:    f7ffffe9    ....    BL       netif_set_down ; 0x300e
        0x0000303c:    4a52        RJ      LDR      r2,[pc,#328] ; [0x3188] = 0x20000074
        0x0000303e:    6850        Ph      LDR      r0,[r2,#4]
        0x00003040:    42a0        .B      CMP      r0,r4
        0x00003042:    d110        ..      BNE      0x3066 ; netif_remove + 62
        0x00003044:    6820         h      LDR      r0,[r4,#0]
        0x00003046:    6050        P`      STR      r0,[r2,#4]
        0x00003048:    e006        ..      B        0x3058 ; netif_remove + 48
        0x0000304a:    6801        .h      LDR      r1,[r0,#0]
        0x0000304c:    42a1        .B      CMP      r1,r4
        0x0000304e:    d109        ..      BNE      0x3064 ; netif_remove + 60
        0x00003050:    6821        !h      LDR      r1,[r4,#0]
        0x00003052:    6001        .`      STR      r1,[r0,#0]
        0x00003054:    2800        .(      CMP      r0,#0
        0x00003056:    d004        ..      BEQ      0x3062 ; netif_remove + 58
        0x00003058:    6890        .h      LDR      r0,[r2,#8]
        0x0000305a:    42a0        .B      CMP      r0,r4
        0x0000305c:    d101        ..      BNE      0x3062 ; netif_remove + 58
        0x0000305e:    2000        .       MOVS     r0,#0
        0x00003060:    6090        .`      STR      r0,[r2,#8]
        0x00003062:    bd10        ..      POP      {r4,pc}
        0x00003064:    4608        .F      MOV      r0,r1
        0x00003066:    2800        .(      CMP      r0,#0
        0x00003068:    d1ef        ..      BNE      0x304a ; netif_remove + 34
        0x0000306a:    bd10        ..      POP      {r4,pc}
    netif_find
        0x0000306c:    b510        ..      PUSH     {r4,lr}
        0x0000306e:    0001        ..      MOVS     r1,r0
        0x00003070:    d005        ..      BEQ      0x307e ; netif_find + 18
        0x00003072:    7888        .x      LDRB     r0,[r1,#2]
        0x00003074:    3830        08      SUBS     r0,r0,#0x30
        0x00003076:    b2c2        ..      UXTB     r2,r0
        0x00003078:    4843        CH      LDR      r0,[pc,#268] ; [0x3188] = 0x20000074
        0x0000307a:    6840        @h      LDR      r0,[r0,#4]
        0x0000307c:    e010        ..      B        0x30a0 ; netif_find + 52
        0x0000307e:    2000        .       MOVS     r0,#0
        0x00003080:    bd10        ..      POP      {r4,pc}
        0x00003082:    f8903030    ..00    LDRB     r3,[r0,#0x30]
        0x00003086:    4293        .B      CMP      r3,r2
        0x00003088:    d109        ..      BNE      0x309e ; netif_find + 50
        0x0000308a:    780b        .x      LDRB     r3,[r1,#0]
        0x0000308c:    f890402e    ...@    LDRB     r4,[r0,#0x2e]
        0x00003090:    42a3        .B      CMP      r3,r4
        0x00003092:    d104        ..      BNE      0x309e ; netif_find + 50
        0x00003094:    784b        Kx      LDRB     r3,[r1,#1]
        0x00003096:    f890402f    ../@    LDRB     r4,[r0,#0x2f]
        0x0000309a:    42a3        .B      CMP      r3,r4
        0x0000309c:    d0f0        ..      BEQ      0x3080 ; netif_find + 20
        0x0000309e:    6800        .h      LDR      r0,[r0,#0]
        0x000030a0:    2800        .(      CMP      r0,#0
        0x000030a2:    d1ee        ..      BNE      0x3082 ; netif_find + 22
        0x000030a4:    bd10        ..      POP      {r4,pc}
    netif_set_up
        0x000030a6:    f890102d    ..-.    LDRB     r1,[r0,#0x2d]
        0x000030aa:    07ca        ..      LSLS     r2,r1,#31
        0x000030ac:    d10a        ..      BNE      0x30c4 ; netif_set_up + 30
        0x000030ae:    f0410101    A...    ORR      r1,r1,#1
        0x000030b2:    f880102d    ..-.    STRB     r1,[r0,#0x2d]
        0x000030b6:    06ca        ..      LSLS     r2,r1,#27
        0x000030b8:    d504        ..      BPL      0x30c4 ; netif_set_up + 30
        0x000030ba:    0689        ..      LSLS     r1,r1,#26
        0x000030bc:    d502        ..      BPL      0x30c4 ; netif_set_up + 30
        0x000030be:    1d01        ..      ADDS     r1,r0,#4
        0x000030c0:    f005bdcd    ....    B.W      etharp_request ; 0x8c5e
        0x000030c4:    4770        pG      BX       lr
    netif_set_link_up
        0x000030c6:    b510        ..      PUSH     {r4,lr}
        0x000030c8:    4604        .F      MOV      r4,r0
        0x000030ca:    f890002d    ..-.    LDRB     r0,[r0,#0x2d]
        0x000030ce:    06c1        ..      LSLS     r1,r0,#27
        0x000030d0:    d414        ..      BMI      0x30fc ; netif_set_link_up + 54
        0x000030d2:    f0400010    @...    ORR      r0,r0,#0x10
        0x000030d6:    f884002d    ..-.    STRB     r0,[r4,#0x2d]
        0x000030da:    6a20         j      LDR      r0,[r4,#0x20]
        0x000030dc:    b110        ..      CBZ      r0,0x30e4 ; netif_set_link_up + 30
        0x000030de:    4620         F      MOV      r0,r4
        0x000030e0:    f7feffbb    ....    BL       dhcp_network_changed ; 0x205a
        0x000030e4:    f894002d    ..-.    LDRB     r0,[r4,#0x2d]
        0x000030e8:    07c1        ..      LSLS     r1,r0,#31
        0x000030ea:    d007        ..      BEQ      0x30fc ; netif_set_link_up + 54
        0x000030ec:    0680        ..      LSLS     r0,r0,#26
        0x000030ee:    d505        ..      BPL      0x30fc ; netif_set_link_up + 54
        0x000030f0:    1d21        !.      ADDS     r1,r4,#4
        0x000030f2:    4620         F      MOV      r0,r4
        0x000030f4:    e8bd4010    ...@    POP      {r4,lr}
        0x000030f8:    f005bdb1    ....    B.W      etharp_request ; 0x8c5e
        0x000030fc:    bd10        ..      POP      {r4,pc}
    netif_set_link_down
        0x000030fe:    f890102d    ..-.    LDRB     r1,[r0,#0x2d]
        0x00003102:    06ca        ..      LSLS     r2,r1,#27
        0x00003104:    d503        ..      BPL      0x310e ; netif_set_link_down + 16
        0x00003106:    f0210110    !...    BIC      r1,r1,#0x10
        0x0000310a:    f880102d    ..-.    STRB     r1,[r0,#0x2d]
        0x0000310e:    4770        pG      BX       lr
    $d
        0x00003110:    20000098    ...     DCD    536871064
        0x00003114:    20000094    ...     DCD    536871060
        0x00003118:    2e5c2e2e    ..\.    DCD    777793070
        0x0000311c:    2e2e5c2e    .\..    DCD    774790190
        0x00003120:    6968545c    \Thi    DCD    1768445020
        0x00003124:    61506472    rdPa    DCD    1632658546
        0x00003128:    5c797472    rty\    DCD    1551463538
        0x0000312c:    7069776c    lwip    DCD    1885960044
        0x00003130:    342e312d    -1.4    DCD    875442477
        0x00003134:    735c312e    .1\s    DCD    1935421742
        0x00003138:    635c6372    rc\c    DCD    1666999154
        0x0000313c:    5c65726f    ore\    DCD    1550152303
        0x00003140:    6974656e    neti    DCD    1769235822
        0x00003144:    00632e66    f.c.    DCD    6499942
        0x00003148:    69206f4e    No i    DCD    1763733326
        0x0000314c:    2074696e    nit     DCD    544500078
        0x00003150:    636e7566    func    DCD    1668183398
        0x00003154:    6e6f6974    tion    DCD    1852795252
        0x00003158:    76696720     giv    DCD    1986619168
        0x0000315c:    00006e65    en..    DCD    28261
        0x00003160:    65737341    Asse    DCD    1702064961
        0x00003164:    6f697472    rtio    DCD    1869182066
        0x00003168:    2522206e    n "%    DCD    622993518
        0x0000316c:    66202273    s" f    DCD    1713382003
        0x00003170:    656c6961    aile    DCD    1701603681
        0x00003174:    74612064    d at    DCD    1952522340
        0x00003178:    6e696c20     lin    DCD    1852402720
        0x0000317c:    64252065    e %d    DCD    1680154725
        0x00003180:    206e6920     in     DCD    544106784
        0x00003184:    000a7325    %s..    DCD    684837
        0x00003188:    20000074    t..     DCD    536871028
    $t
    .text
    pbuf_free
        0x0000318c:    e92d41f0    -..A    PUSH     {r4-r8,lr}
        0x00003190:    0004        ..      MOVS     r4,r0
        0x00003192:    d014        ..      BEQ      0x31be ; pbuf_free + 50
        0x00003194:    7b20         {      LDRB     r0,[r4,#0xc]
        0x00003196:    b160        `.      CBZ      r0,0x31b2 ; pbuf_free + 38
        0x00003198:    2801        .(      CMP      r0,#1
        0x0000319a:    d00a        ..      BEQ      0x31b2 ; pbuf_free + 38
        0x0000319c:    2802        .(      CMP      r0,#2
        0x0000319e:    d008        ..      BEQ      0x31b2 ; pbuf_free + 38
        0x000031a0:    2803        .(      CMP      r0,#3
        0x000031a2:    d006        ..      BEQ      0x31b2 ; pbuf_free + 38
        0x000031a4:    a3e4        ..      ADR      r3,{pc}+0x394 ; 0x3538
        0x000031a6:    f240227b    @.{"    MOV      r2,#0x27b
        0x000031aa:    a1ef        ..      ADR      r1,{pc}+0x3be ; 0x3568
        0x000031ac:    a0f4        ..      ADR      r0,{pc}+0x3d4 ; 0x3580
        0x000031ae:    f006faf3    ....    BL       __0printf$5 ; 0x9798
        0x000031b2:    2500        .%      MOVS     r5,#0
        0x000031b4:    f240278a    @..'    MOV      r7,#0x28a
        0x000031b8:    89e0        ..      LDRH     r0,[r4,#0xe]
        0x000031ba:    b150        P.      CBZ      r0,0x31d2 ; pbuf_free + 70
        0x000031bc:    e00f        ..      B        0x31de ; pbuf_free + 82
        0x000031be:    a3de        ..      ADR      r3,{pc}+0x37a ; 0x3538
        0x000031c0:    f2402271    @.q"    MOV      r2,#0x271
        0x000031c4:    a1f8        ..      ADR      r1,{pc}+0x3e4 ; 0x35a8
        0x000031c6:    a0ee        ..      ADR      r0,{pc}+0x3ba ; 0x3580
        0x000031c8:    f006fae6    ....    BL       __0printf$5 ; 0x9798
        0x000031cc:    2000        .       MOVS     r0,#0
        0x000031ce:    e8bd81f0    ....    POP      {r4-r8,pc}
        0x000031d2:    a3d9        ..      ADR      r3,{pc}+0x366 ; 0x3538
        0x000031d4:    463a        :F      MOV      r2,r7
        0x000031d6:    a1f7        ..      ADR      r1,{pc}+0x3de ; 0x35b4
        0x000031d8:    a0e9        ..      ADR      r0,{pc}+0x3a8 ; 0x3580
        0x000031da:    f006fadd    ....    BL       __0printf$5 ; 0x9798
        0x000031de:    89e0        ..      LDRH     r0,[r4,#0xe]
        0x000031e0:    1e40        @.      SUBS     r0,r0,#1
        0x000031e2:    0400        ..      LSLS     r0,r0,#16
        0x000031e4:    0c00        ..      LSRS     r0,r0,#16
        0x000031e6:    81e0        ..      STRH     r0,[r4,#0xe]
        0x000031e8:    d10e        ..      BNE      0x3208 ; pbuf_free + 124
        0x000031ea:    7b20         {      LDRB     r0,[r4,#0xc]
        0x000031ec:    6826        &h      LDR      r6,[r4,#0]
        0x000031ee:    2803        .(      CMP      r0,#3
        0x000031f0:    d00c        ..      BEQ      0x320c ; pbuf_free + 128
        0x000031f2:    2801        .(      CMP      r0,#1
        0x000031f4:    d00d        ..      BEQ      0x3212 ; pbuf_free + 134
        0x000031f6:    2802        .(      CMP      r0,#2
        0x000031f8:    d00b        ..      BEQ      0x3212 ; pbuf_free + 134
        0x000031fa:    4620         F      MOV      r0,r4
        0x000031fc:    f7fffb94    ....    BL       mem_free ; 0x2928
        0x00003200:    1c6d        m.      ADDS     r5,r5,#1
        0x00003202:    b2ed        ..      UXTB     r5,r5
        0x00003204:    0034        4.      MOVS     r4,r6
        0x00003206:    d1d7        ..      BNE      0x31b8 ; pbuf_free + 44
        0x00003208:    4628        (F      MOV      r0,r5
        0x0000320a:    e7e0        ..      B        0x31ce ; pbuf_free + 66
        0x0000320c:    4621        !F      MOV      r1,r4
        0x0000320e:    2006        .       MOVS     r0,#6
        0x00003210:    e001        ..      B        0x3216 ; pbuf_free + 138
        0x00003212:    4621        !F      MOV      r1,r4
        0x00003214:    2005        .       MOVS     r0,#5
        0x00003216:    f7fffe03    ....    BL       memp_free ; 0x2e20
        0x0000321a:    e7f1        ..      B        0x3200 ; pbuf_free + 116
    pbuf_alloc
        0x0000321c:    e92d5ff0    -.._    PUSH     {r4-r12,lr}
        0x00003220:    460e        .F      MOV      r6,r1
        0x00003222:    4690        .F      MOV      r8,r2
        0x00003224:    b148        H.      CBZ      r0,0x323a ; pbuf_alloc + 30
        0x00003226:    2801        .(      CMP      r0,#1
        0x00003228:    d009        ..      BEQ      0x323e ; pbuf_alloc + 34
        0x0000322a:    2802        .(      CMP      r0,#2
        0x0000322c:    d009        ..      BEQ      0x3242 ; pbuf_alloc + 38
        0x0000322e:    2803        .(      CMP      r0,#3
        0x00003230:    d009        ..      BEQ      0x3246 ; pbuf_alloc + 42
        0x00003232:    a3c1        ..      ADR      r3,{pc}+0x306 ; 0x3538
        0x00003234:    22e8        ."      MOVS     r2,#0xe8
        0x00003236:    a1e5        ..      ADR      r1,{pc}+0x396 ; 0x35cc
        0x00003238:    e01a        ..      B        0x3270 ; pbuf_alloc + 84
        0x0000323a:    2538        8%      MOVS     r5,#0x38
        0x0000323c:    e004        ..      B        0x3248 ; pbuf_alloc + 44
        0x0000323e:    2524        $%      MOVS     r5,#0x24
        0x00003240:    e002        ..      B        0x3248 ; pbuf_alloc + 44
        0x00003242:    2510        .%      MOVS     r5,#0x10
        0x00003244:    e000        ..      B        0x3248 ; pbuf_alloc + 44
        0x00003246:    2500        .%      MOVS     r5,#0
        0x00003248:    f04f0b01    O...    MOV      r11,#1
        0x0000324c:    f04f0a00    O...    MOV      r10,#0
        0x00003250:    f1b80f00    ....    CMP      r8,#0
        0x00003254:    d07e        ~.      BEQ      0x3354 ; pbuf_alloc + 312
        0x00003256:    f1b80f01    ....    CMP      r8,#1
        0x0000325a:    d07c        |.      BEQ      0x3356 ; pbuf_alloc + 314
        0x0000325c:    f1b80f02    ....    CMP      r8,#2
        0x00003260:    d079        y.      BEQ      0x3356 ; pbuf_alloc + 314
        0x00003262:    f1b80f03    ....    CMP      r8,#3
        0x00003266:    d007        ..      BEQ      0x3278 ; pbuf_alloc + 92
        0x00003268:    a3b3        ..      ADR      r3,{pc}+0x2d0 ; 0x3538
        0x0000326a:    f44f72aa    O..r    MOV      r2,#0x154
        0x0000326e:    a1de        ..      ADR      r1,{pc}+0x37a ; 0x35e8
        0x00003270:    a0c3        ..      ADR      r0,{pc}+0x310 ; 0x3580
        0x00003272:    f006fa91    ....    BL       __0printf$5 ; 0x9798
        0x00003276:    e0b9        ..      B        0x33ec ; pbuf_alloc + 464
        0x00003278:    2006        .       MOVS     r0,#6
        0x0000327a:    f7fffdb2    ....    BL       memp_malloc ; 0x2de2
        0x0000327e:    0004        ..      MOVS     r4,r0
        0x00003280:    d06a        j.      BEQ      0x3358 ; pbuf_alloc + 316
        0x00003282:    1960        `.      ADDS     r0,r4,r5
        0x00003284:    301b        .0      ADDS     r0,r0,#0x1b
        0x00003286:    f884800c    ....    STRB     r8,[r4,#0xc]
        0x0000328a:    f0200003     ...    BIC      r0,r0,#3
        0x0000328e:    e9c4a000    ....    STRD     r10,r0,[r4,#0]
        0x00003292:    0780        ..      LSLS     r0,r0,#30
        0x00003294:    d005        ..      BEQ      0x32a2 ; pbuf_alloc + 134
        0x00003296:    a3a8        ..      ADR      r3,{pc}+0x2a2 ; 0x3538
        0x00003298:    22fa        ."      MOVS     r2,#0xfa
        0x0000329a:    a1da        ..      ADR      r1,{pc}+0x36a ; 0x3604
        0x0000329c:    a0b8        ..      ADR      r0,{pc}+0x2e4 ; 0x3580
        0x0000329e:    f006fa7b    ..{.    BL       __0printf$5 ; 0x9798
        0x000032a2:    1ced        ..      ADDS     r5,r5,#3
        0x000032a4:    f0250103    %...    BIC      r1,r5,#3
        0x000032a8:    f5c16784    ...g    RSB      r7,r1,#0x420
        0x000032ac:    8126        &.      STRH     r6,[r4,#8]
        0x000032ae:    4630        0F      MOV      r0,r6
        0x000032b0:    42b7        .B      CMP      r7,r6
        0x000032b2:    dc00        ..      BGT      0x32b6 ; pbuf_alloc + 154
        0x000032b4:    4638        8F      MOV      r0,r7
        0x000032b6:    b280        ..      UXTH     r0,r0
        0x000032b8:    8160        `.      STRH     r0,[r4,#0xa]
        0x000032ba:    6861        ah      LDR      r1,[r4,#4]
        0x000032bc:    f5046987    ...i    ADD      r9,r4,#0x438
        0x000032c0:    4408        .D      ADD      r0,r0,r1
        0x000032c2:    4548        HE      CMP      r0,r9
        0x000032c4:    d906        ..      BLS      0x32d4 ; pbuf_alloc + 184
        0x000032c6:    a39c        ..      ADR      r3,{pc}+0x272 ; 0x3538
        0x000032c8:    f44f7280    O..r    MOV      r2,#0x100
        0x000032cc:    a1d9        ..      ADR      r1,{pc}+0x368 ; 0x3634
        0x000032ce:    a0ac        ..      ADR      r0,{pc}+0x2b2 ; 0x3580
        0x000032d0:    f006fa62    ..b.    BL       __0printf$5 ; 0x9798
        0x000032d4:    2f00        ./      CMP      r7,#0
        0x000032d6:    dc06        ..      BGT      0x32e6 ; pbuf_alloc + 202
        0x000032d8:    a397        ..      ADR      r3,{pc}+0x260 ; 0x3538
        0x000032da:    f2401203    @...    MOV      r2,#0x103
        0x000032de:    a1e2        ..      ADR      r1,{pc}+0x38a ; 0x3668
        0x000032e0:    a0a7        ..      ADR      r0,{pc}+0x2a0 ; 0x3580
        0x000032e2:    f006fa59    ..Y.    BL       __0printf$5 ; 0x9798
        0x000032e6:    f8a4b00e    ....    STRH     r11,[r4,#0xe]
        0x000032ea:    8960        `.      LDRH     r0,[r4,#0xa]
        0x000032ec:    4627        'F      MOV      r7,r4
        0x000032ee:    1a36        6.      SUBS     r6,r6,r0
        0x000032f0:    e03f        ?.      B        0x3372 ; pbuf_alloc + 342
        0x000032f2:    2006        .       MOVS     r0,#6
        0x000032f4:    f7fffd75    ..u.    BL       memp_malloc ; 0x2de2
        0x000032f8:    0005        ..      MOVS     r5,r0
        0x000032fa:    d03d        =.      BEQ      0x3378 ; pbuf_alloc + 348
        0x000032fc:    f885800c    ....    STRB     r8,[r5,#0xc]
        0x00003300:    f885a00d    ....    STRB     r10,[r5,#0xd]
        0x00003304:    f8c5a000    ....    STR      r10,[r5,#0]
        0x00003308:    f64f70ff    O..p    MOV      r0,#0xffff
        0x0000330c:    603d        =`      STR      r5,[r7,#0]
        0x0000330e:    4286        .B      CMP      r6,r0
        0x00003310:    db06        ..      BLT      0x3320 ; pbuf_alloc + 260
        0x00003312:    a389        ..      ADR      r3,{pc}+0x226 ; 0x3538
        0x00003314:    f44f728f    O..r    MOV      r2,#0x11e
        0x00003318:    a1e0        ..      ADR      r1,{pc}+0x384 ; 0x369c
        0x0000331a:    a099        ..      ADR      r0,{pc}+0x266 ; 0x3580
        0x0000331c:    f006fa3c    ..<.    BL       __0printf$5 ; 0x9798
        0x00003320:    b2b0        ..      UXTH     r0,r6
        0x00003322:    f44f6184    O..a    MOV      r1,#0x420
        0x00003326:    8128        (.      STRH     r0,[r5,#8]
        0x00003328:    4288        .B      CMP      r0,r1
        0x0000332a:    d200        ..      BCS      0x332e ; pbuf_alloc + 274
        0x0000332c:    4601        .F      MOV      r1,r0
        0x0000332e:    8169        i.      STRH     r1,[r5,#0xa]
        0x00003330:    f1050018    ....    ADD      r0,r5,#0x18
        0x00003334:    6068        h`      STR      r0,[r5,#4]
        0x00003336:    0780        ..      LSLS     r0,r0,#30
        0x00003338:    d006        ..      BEQ      0x3348 ; pbuf_alloc + 300
        0x0000333a:    a37f        ..      ADR      r3,{pc}+0x1fe ; 0x3538
        0x0000333c:    f2401223    @.#.    MOV      r2,#0x123
        0x00003340:    a1db        ..      ADR      r1,{pc}+0x370 ; 0x36b0
        0x00003342:    a08f        ..      ADR      r0,{pc}+0x23e ; 0x3580
        0x00003344:    f006fa28    ..(.    BL       __0printf$5 ; 0x9798
        0x00003348:    8961        a.      LDRH     r1,[r4,#0xa]
        0x0000334a:    6860        `h      LDR      r0,[r4,#4]
        0x0000334c:    4408        .D      ADD      r0,r0,r1
        0x0000334e:    4548        HE      CMP      r0,r9
        0x00003350:    d90a        ..      BLS      0x3368 ; pbuf_alloc + 332
        0x00003352:    e002        ..      B        0x335a ; pbuf_alloc + 318
        0x00003354:    e014        ..      B        0x3380 ; pbuf_alloc + 356
        0x00003356:    e035        5.      B        0x33c4 ; pbuf_alloc + 424
        0x00003358:    e046        F.      B        0x33e8 ; pbuf_alloc + 460
        0x0000335a:    a377        w.      ADR      r3,{pc}+0x1de ; 0x3538
        0x0000335c:    f2401225    @.%.    MOV      r2,#0x125
        0x00003360:    a1b4        ..      ADR      r1,{pc}+0x2d4 ; 0x3634
        0x00003362:    a087        ..      ADR      r0,{pc}+0x21e ; 0x3580
        0x00003364:    f006fa18    ....    BL       __0printf$5 ; 0x9798
        0x00003368:    f8a5b00e    ....    STRH     r11,[r5,#0xe]
        0x0000336c:    8968        h.      LDRH     r0,[r5,#0xa]
        0x0000336e:    462f        /F      MOV      r7,r5
        0x00003370:    1a36        6.      SUBS     r6,r6,r0
        0x00003372:    2e00        ..      CMP      r6,#0
        0x00003374:    dcbd        ..      BGT      0x32f2 ; pbuf_alloc + 214
        0x00003376:    e032        2.      B        0x33de ; pbuf_alloc + 450
        0x00003378:    4620         F      MOV      r0,r4
        0x0000337a:    f7ffff07    ....    BL       pbuf_free ; 0x318c
        0x0000337e:    e035        5.      B        0x33ec ; pbuf_alloc + 464
        0x00003380:    f105001b    ....    ADD      r0,r5,#0x1b
        0x00003384:    f0200103     ...    BIC      r1,r0,#3
        0x00003388:    1cf0        ..      ADDS     r0,r6,#3
        0x0000338a:    f0200003     ...    BIC      r0,r0,#3
        0x0000338e:    4408        .D      ADD      r0,r0,r1
        0x00003390:    b280        ..      UXTH     r0,r0
        0x00003392:    f7fffb72    ..r.    BL       mem_malloc ; 0x2a7a
        0x00003396:    0004        ..      MOVS     r4,r0
        0x00003398:    d026        &.      BEQ      0x33e8 ; pbuf_alloc + 460
        0x0000339a:    1960        `.      ADDS     r0,r4,r5
        0x0000339c:    301b        .0      ADDS     r0,r0,#0x1b
        0x0000339e:    f0200003     ...    BIC      r0,r0,#3
        0x000033a2:    6060        ``      STR      r0,[r4,#4]
        0x000033a4:    8126        &.      STRH     r6,[r4,#8]
        0x000033a6:    8166        f.      STRH     r6,[r4,#0xa]
        0x000033a8:    f8c4a000    ....    STR      r10,[r4,#0]
        0x000033ac:    f884a00c    ....    STRB     r10,[r4,#0xc]
        0x000033b0:    0780        ..      LSLS     r0,r0,#30
        0x000033b2:    d014        ..      BEQ      0x33de ; pbuf_alloc + 450
        0x000033b4:    a360        `.      ADR      r3,{pc}+0x184 ; 0x3538
        0x000033b6:    f44f729f    O..r    MOV      r2,#0x13e
        0x000033ba:    a1c9        ..      ADR      r1,{pc}+0x326 ; 0x36e0
        0x000033bc:    a070        p.      ADR      r0,{pc}+0x1c4 ; 0x3580
        0x000033be:    f006f9eb    ....    BL       __0printf$5 ; 0x9798
        0x000033c2:    e00c        ..      B        0x33de ; pbuf_alloc + 450
        0x000033c4:    2005        .       MOVS     r0,#5
        0x000033c6:    f7fffd0c    ....    BL       memp_malloc ; 0x2de2
        0x000033ca:    0004        ..      MOVS     r4,r0
        0x000033cc:    d00e        ..      BEQ      0x33ec ; pbuf_alloc + 464
        0x000033ce:    f8c4a004    ....    STR      r10,[r4,#4]
        0x000033d2:    8126        &.      STRH     r6,[r4,#8]
        0x000033d4:    8166        f.      STRH     r6,[r4,#0xa]
        0x000033d6:    f8c4a000    ....    STR      r10,[r4,#0]
        0x000033da:    f884800c    ....    STRB     r8,[r4,#0xc]
        0x000033de:    f8a4b00e    ....    STRH     r11,[r4,#0xe]
        0x000033e2:    f884a00d    ....    STRB     r10,[r4,#0xd]
        0x000033e6:    4620         F      MOV      r0,r4
        0x000033e8:    e8bd9ff0    ....    POP      {r4-r12,pc}
        0x000033ec:    2000        .       MOVS     r0,#0
        0x000033ee:    e7fb        ..      B        0x33e8 ; pbuf_alloc + 460
    pbuf_realloc
        0x000033f0:    e92d47f0    -..G    PUSH     {r4-r10,lr}
        0x000033f4:    0004        ..      MOVS     r4,r0
        0x000033f6:    460d        .F      MOV      r5,r1
        0x000033f8:    d106        ..      BNE      0x3408 ; pbuf_realloc + 24
        0x000033fa:    a34f        O.      ADR      r3,{pc}+0x13e ; 0x3538
        0x000033fc:    f44f72da    O..r    MOV      r2,#0x1b4
        0x00003400:    a1c2        ..      ADR      r1,{pc}+0x30c ; 0x370c
        0x00003402:    a05f        _.      ADR      r0,{pc}+0x17e ; 0x3580
        0x00003404:    f006f9c8    ....    BL       __0printf$5 ; 0x9798
        0x00003408:    7b20         {      LDRB     r0,[r4,#0xc]
        0x0000340a:    2803        .(      CMP      r0,#3
        0x0000340c:    d00b        ..      BEQ      0x3426 ; pbuf_realloc + 54
        0x0000340e:    2801        .(      CMP      r0,#1
        0x00003410:    d009        ..      BEQ      0x3426 ; pbuf_realloc + 54
        0x00003412:    b140        @.      CBZ      r0,0x3426 ; pbuf_realloc + 54
        0x00003414:    2802        .(      CMP      r0,#2
        0x00003416:    d006        ..      BEQ      0x3426 ; pbuf_realloc + 54
        0x00003418:    a347        G.      ADR      r3,{pc}+0x120 ; 0x3538
        0x0000341a:    f24012b5    @...    MOV      r2,#0x1b5
        0x0000341e:    a1c1        ..      ADR      r1,{pc}+0x306 ; 0x3724
        0x00003420:    a057        W.      ADR      r0,{pc}+0x160 ; 0x3580
        0x00003422:    f006f9b9    ....    BL       __0printf$5 ; 0x9798
        0x00003426:    8920         .      LDRH     r0,[r4,#8]
        0x00003428:    42a8        .B      CMP      r0,r5
        0x0000342a:    d93d        =.      BLS      0x34a8 ; pbuf_realloc + 184
        0x0000342c:    1a2e        ..      SUBS     r6,r5,r0
        0x0000342e:    f64f77ff    O..w    MOV      r7,#0xffff
        0x00003432:    f44f78e6    O..x    MOV      r8,#0x1cc
        0x00003436:    f44f79e8    O..y    MOV      r9,#0x1d0
        0x0000343a:    e015        ..      B        0x3468 ; pbuf_realloc + 120
        0x0000343c:    1a28        (.      SUBS     r0,r5,r0
        0x0000343e:    b285        ..      UXTH     r5,r0
        0x00003440:    42be        .B      CMP      r6,r7
        0x00003442:    db05        ..      BLT      0x3450 ; pbuf_realloc + 96
        0x00003444:    a33c        <.      ADR      r3,{pc}+0xf4 ; 0x3538
        0x00003446:    4642        BF      MOV      r2,r8
        0x00003448:    a1bd        ..      ADR      r1,{pc}+0x2f8 ; 0x3740
        0x0000344a:    a04d        M.      ADR      r0,{pc}+0x136 ; 0x3580
        0x0000344c:    f006f9a4    ....    BL       __0printf$5 ; 0x9798
        0x00003450:    8920         .      LDRH     r0,[r4,#8]
        0x00003452:    fa10f086    ....    UXTAH    r0,r0,r6
        0x00003456:    8120         .      STRH     r0,[r4,#8]
        0x00003458:    6824        $h      LDR      r4,[r4,#0]
        0x0000345a:    b92c        ,.      CBNZ     r4,0x3468 ; pbuf_realloc + 120
        0x0000345c:    a336        6.      ADR      r3,{pc}+0xdc ; 0x3538
        0x0000345e:    464a        JF      MOV      r2,r9
        0x00003460:    a1bc        ..      ADR      r1,{pc}+0x2f4 ; 0x3754
        0x00003462:    a047        G.      ADR      r0,{pc}+0x11e ; 0x3580
        0x00003464:    f006f998    ....    BL       __0printf$5 ; 0x9798
        0x00003468:    8960        `.      LDRH     r0,[r4,#0xa]
        0x0000346a:    42a8        .B      CMP      r0,r5
        0x0000346c:    d3e6        ..      BCC      0x343c ; pbuf_realloc + 76
        0x0000346e:    7b20         {      LDRB     r0,[r4,#0xc]
        0x00003470:    b990        ..      CBNZ     r0,0x3498 ; pbuf_realloc + 168
        0x00003472:    8960        `.      LDRH     r0,[r4,#0xa]
        0x00003474:    42a8        .B      CMP      r0,r5
        0x00003476:    d00f        ..      BEQ      0x3498 ; pbuf_realloc + 168
        0x00003478:    6860        `h      LDR      r0,[r4,#4]
        0x0000347a:    1b00        ..      SUBS     r0,r0,r4
        0x0000347c:    4428        (D      ADD      r0,r0,r5
        0x0000347e:    b281        ..      UXTH     r1,r0
        0x00003480:    4620         F      MOV      r0,r4
        0x00003482:    f7fffa86    ....    BL       mem_trim ; 0x2992
        0x00003486:    0004        ..      MOVS     r4,r0
        0x00003488:    d106        ..      BNE      0x3498 ; pbuf_realloc + 168
        0x0000348a:    a32b        +.      ADR      r3,{pc}+0xae ; 0x3538
        0x0000348c:    f44f72ed    O..r    MOV      r2,#0x1da
        0x00003490:    a1b6        ..      ADR      r1,{pc}+0x2dc ; 0x376c
        0x00003492:    a03b        ;.      ADR      r0,{pc}+0xee ; 0x3580
        0x00003494:    f006f980    ....    BL       __0printf$5 ; 0x9798
        0x00003498:    8165        e.      STRH     r5,[r4,#0xa]
        0x0000349a:    8125        %.      STRH     r5,[r4,#8]
        0x0000349c:    6820         h      LDR      r0,[r4,#0]
        0x0000349e:    b108        ..      CBZ      r0,0x34a4 ; pbuf_realloc + 180
        0x000034a0:    f7fffe74    ..t.    BL       pbuf_free ; 0x318c
        0x000034a4:    2000        .       MOVS     r0,#0
        0x000034a6:    6020         `      STR      r0,[r4,#0]
        0x000034a8:    e8bd87f0    ....    POP      {r4-r10,pc}
    pbuf_header
        0x000034ac:    b570        p.      PUSH     {r4-r6,lr}
        0x000034ae:    0004        ..      MOVS     r4,r0
        0x000034b0:    460d        .F      MOV      r5,r1
        0x000034b2:    d106        ..      BNE      0x34c2 ; pbuf_header + 22
        0x000034b4:    a320         .      ADR      r3,{pc}+0x84 ; 0x3538
        0x000034b6:    f2402205    @.."    MOV      r2,#0x205
        0x000034ba:    a13b        ;.      ADR      r1,{pc}+0xee ; 0x35a8
        0x000034bc:    a030        0.      ADR      r0,{pc}+0xc4 ; 0x3580
        0x000034be:    f006f96b    ..k.    BL       __0printf$5 ; 0x9798
        0x000034c2:    b165        e.      CBZ      r5,0x34de ; pbuf_header + 50
        0x000034c4:    b15c        \.      CBZ      r4,0x34de ; pbuf_header + 50
        0x000034c6:    2d00        .-      CMP      r5,#0
        0x000034c8:    da0b        ..      BGE      0x34e2 ; pbuf_header + 54
        0x000034ca:    4268        hB      RSBS     r0,r5,#0
        0x000034cc:    b281        ..      UXTH     r1,r0
        0x000034ce:    8960        `.      LDRH     r0,[r4,#0xa]
        0x000034d0:    4288        .B      CMP      r0,r1
        0x000034d2:    d207        ..      BCS      0x34e4 ; pbuf_header + 56
        0x000034d4:    a318        ..      ADR      r3,{pc}+0x64 ; 0x3538
        0x000034d6:    f240220d    @.."    MOV      r2,#0x20d
        0x000034da:    a1ab        ..      ADR      r1,{pc}+0x2ae ; 0x3788
        0x000034dc:    e00f        ..      B        0x34fe ; pbuf_header + 82
        0x000034de:    2000        .       MOVS     r0,#0
        0x000034e0:    bd70        p.      POP      {r4-r6,pc}
        0x000034e2:    b2a9        ..      UXTH     r1,r5
        0x000034e4:    7b20         {      LDRB     r0,[r4,#0xc]
        0x000034e6:    6862        bh      LDR      r2,[r4,#4]
        0x000034e8:    b168        h.      CBZ      r0,0x3506 ; pbuf_header + 90
        0x000034ea:    2803        .(      CMP      r0,#3
        0x000034ec:    d00b        ..      BEQ      0x3506 ; pbuf_header + 90
        0x000034ee:    2802        .(      CMP      r0,#2
        0x000034f0:    d011        ..      BEQ      0x3516 ; pbuf_header + 106
        0x000034f2:    2801        .(      CMP      r0,#1
        0x000034f4:    d00f        ..      BEQ      0x3516 ; pbuf_header + 106
        0x000034f6:    a310        ..      ADR      r3,{pc}+0x42 ; 0x3538
        0x000034f8:    f240223b    @.;"    MOV      r2,#0x23b
        0x000034fc:    a1aa        ..      ADR      r1,{pc}+0x2ac ; 0x37a8
        0x000034fe:    a020         .      ADR      r0,{pc}+0x82 ; 0x3580
        0x00003500:    f006f94a    ..J.    BL       __0printf$5 ; 0x9798
        0x00003504:    e015        ..      B        0x3532 ; pbuf_header + 134
        0x00003506:    1b50        P.      SUBS     r0,r2,r5
        0x00003508:    f1040118    ....    ADD      r1,r4,#0x18
        0x0000350c:    6060        ``      STR      r0,[r4,#4]
        0x0000350e:    4288        .B      CMP      r0,r1
        0x00003510:    d208        ..      BCS      0x3524 ; pbuf_header + 120
        0x00003512:    6062        b`      STR      r2,[r4,#4]
        0x00003514:    e00d        ..      B        0x3532 ; pbuf_header + 134
        0x00003516:    2d00        .-      CMP      r5,#0
        0x00003518:    da0b        ..      BGE      0x3532 ; pbuf_header + 134
        0x0000351a:    8960        `.      LDRH     r0,[r4,#0xa]
        0x0000351c:    4288        .B      CMP      r0,r1
        0x0000351e:    d308        ..      BCC      0x3532 ; pbuf_header + 134
        0x00003520:    1b50        P.      SUBS     r0,r2,r5
        0x00003522:    6060        ``      STR      r0,[r4,#4]
        0x00003524:    8960        `.      LDRH     r0,[r4,#0xa]
        0x00003526:    4428        (D      ADD      r0,r0,r5
        0x00003528:    8160        `.      STRH     r0,[r4,#0xa]
        0x0000352a:    8920         .      LDRH     r0,[r4,#8]
        0x0000352c:    4428        (D      ADD      r0,r0,r5
        0x0000352e:    8120         .      STRH     r0,[r4,#8]
        0x00003530:    e7d5        ..      B        0x34de ; pbuf_header + 50
        0x00003532:    2001        .       MOVS     r0,#1
        0x00003534:    bd70        p.      POP      {r4-r6,pc}
    $d
        0x00003536:    0000        ..      DCW    0
        0x00003538:    2e5c2e2e    ..\.    DCD    777793070
        0x0000353c:    2e2e5c2e    .\..    DCD    774790190
        0x00003540:    6968545c    \Thi    DCD    1768445020
        0x00003544:    61506472    rdPa    DCD    1632658546
        0x00003548:    5c797472    rty\    DCD    1551463538
        0x0000354c:    7069776c    lwip    DCD    1885960044
        0x00003550:    342e312d    -1.4    DCD    875442477
        0x00003554:    735c312e    .1\s    DCD    1935421742
        0x00003558:    635c6372    rc\c    DCD    1666999154
        0x0000355c:    5c65726f    ore\    DCD    1550152303
        0x00003560:    66756270    pbuf    DCD    1718968944
        0x00003564:    0000632e    .c..    DCD    25390
        0x00003568:    66756270    pbuf    DCD    1718968944
        0x0000356c:    6572665f    _fre    DCD    1701996127
        0x00003570:    73203a65    e: s    DCD    1931491941
        0x00003574:    20656e61    ane     DCD    543518305
        0x00003578:    65707974    type    DCD    1701869940
        0x0000357c:    00000000    ....    DCD    0
        0x00003580:    65737341    Asse    DCD    1702064961
        0x00003584:    6f697472    rtio    DCD    1869182066
        0x00003588:    2522206e    n "%    DCD    622993518
        0x0000358c:    66202273    s" f    DCD    1713382003
        0x00003590:    656c6961    aile    DCD    1701603681
        0x00003594:    74612064    d at    DCD    1952522340
        0x00003598:    6e696c20     lin    DCD    1852402720
        0x0000359c:    64252065    e %d    DCD    1680154725
        0x000035a0:    206e6920     in     DCD    544106784
        0x000035a4:    000a7325    %s..    DCD    684837
        0x000035a8:    3d212070    p !=    DCD    1025581168
        0x000035ac:    4c554e20     NUL    DCD    1280658976
        0x000035b0:    0000004c    L...    DCD    76
        0x000035b4:    66756270    pbuf    DCD    1718968944
        0x000035b8:    6572665f    _fre    DCD    1701996127
        0x000035bc:    70203a65    e: p    DCD    1881160293
        0x000035c0:    65723e2d    ->re    DCD    1701985837
        0x000035c4:    203e2066    f >     DCD    540942438
        0x000035c8:    00000030    0...    DCD    48
        0x000035cc:    66756270    pbuf    DCD    1718968944
        0x000035d0:    6c6c615f    _all    DCD    1819042143
        0x000035d4:    203a636f    oc:     DCD    540697455
        0x000035d8:    20646162    bad     DCD    543449442
        0x000035dc:    66756270    pbuf    DCD    1718968944
        0x000035e0:    79616c20     lay    DCD    2036427808
        0x000035e4:    00007265    er..    DCD    29285
        0x000035e8:    66756270    pbuf    DCD    1718968944
        0x000035ec:    6c6c615f    _all    DCD    1819042143
        0x000035f0:    203a636f    oc:     DCD    540697455
        0x000035f4:    6f727265    erro    DCD    1869771365
        0x000035f8:    756f656e    neou    DCD    1970234734
        0x000035fc:    79742073    s ty    DCD    2037653619
        0x00003600:    00006570    pe..    DCD    25968
        0x00003604:    66756270    pbuf    DCD    1718968944
        0x00003608:    6c6c615f    _all    DCD    1819042143
        0x0000360c:    203a636f    oc:     DCD    540697455
        0x00003610:    66756270    pbuf    DCD    1718968944
        0x00003614:    3e2d7020     p->    DCD    1043165216
        0x00003618:    6c796170    payl    DCD    1819894128
        0x0000361c:    2064616f    oad     DCD    543449455
        0x00003620:    706f7270    prop    DCD    1886351984
        0x00003624:    796c7265    erly    DCD    2037150309
        0x00003628:    696c6120     ali    DCD    1768710432
        0x0000362c:    64656e67    gned    DCD    1684368999
        0x00003630:    00000000    ....    DCD    0
        0x00003634:    63656863    chec    DCD    1667590243
        0x00003638:    2d70206b    k p-    DCD    762323051
        0x0000363c:    7961703e    >pay    DCD    2036428862
        0x00003640:    64616f6c    load    DCD    1684107116
        0x00003644:    70202b20     + p    DCD    1881156384
        0x00003648:    656c3e2d    ->le    DCD    1701592621
        0x0000364c:    6f64206e    n do    DCD    1868832878
        0x00003650:    6e207365    es n    DCD    1847620453
        0x00003654:    6f20746f    ot o    DCD    1864397935
        0x00003658:    66726576    verf    DCD    1718773110
        0x0000365c:    20776f6c    low     DCD    544698220
        0x00003660:    66756270    pbuf    DCD    1718968944
        0x00003664:    00000000    ....    DCD    0
        0x00003668:    46554250    PBUF    DCD    1179992656
        0x0000366c:    4f4f505f    _POO    DCD    1330597983
        0x00003670:    55425f4c    L_BU    DCD    1430413132
        0x00003674:    5a495346    FSIZ    DCD    1514754886
        0x00003678:    756d2045    E mu    DCD    1970085957
        0x0000367c:    62207473    st b    DCD    1646294131
        0x00003680:    69622065    e bi    DCD    1768038501
        0x00003684:    72656767    gger    DCD    1919248231
        0x00003688:    61687420     tha    DCD    1634235424
        0x0000368c:    454d206e    n ME    DCD    1162682478
        0x00003690:    4c415f4d    M_AL    DCD    1279352653
        0x00003694:    4d4e4749    IGNM    DCD    1296975689
        0x00003698:    00544e45    ENT.    DCD    5525061
        0x0000369c:    5f6d6572    rem_    DCD    1601004914
        0x000036a0:    206e656c    len     DCD    544105836
        0x000036a4:    616d203c    < ma    DCD    1634541628
        0x000036a8:    31755f78    x_u1    DCD    829775736
        0x000036ac:    00745f36    6_t.    DCD    7626550
        0x000036b0:    66756270    pbuf    DCD    1718968944
        0x000036b4:    6c6c615f    _all    DCD    1819042143
        0x000036b8:    203a636f    oc:     DCD    540697455
        0x000036bc:    66756270    pbuf    DCD    1718968944
        0x000036c0:    3e2d7120     q->    DCD    1043165472
        0x000036c4:    6c796170    payl    DCD    1819894128
        0x000036c8:    2064616f    oad     DCD    543449455
        0x000036cc:    706f7270    prop    DCD    1886351984
        0x000036d0:    796c7265    erly    DCD    2037150309
        0x000036d4:    696c6120     ali    DCD    1768710432
        0x000036d8:    64656e67    gned    DCD    1684368999
        0x000036dc:    00000000    ....    DCD    0
        0x000036e0:    66756270    pbuf    DCD    1718968944
        0x000036e4:    6c6c615f    _all    DCD    1819042143
        0x000036e8:    203a636f    oc:     DCD    540697455
        0x000036ec:    66756270    pbuf    DCD    1718968944
        0x000036f0:    61703e2d    ->pa    DCD    1634745901
        0x000036f4:    616f6c79    yloa    DCD    1634692217
        0x000036f8:    72702064    d pr    DCD    1919950948
        0x000036fc:    7265706f    oper    DCD    1919250543
        0x00003700:    6120796c    ly a    DCD    1629518188
        0x00003704:    6e67696c    lign    DCD    1852270956
        0x00003708:    00006465    ed..    DCD    25701
        0x0000370c:    66756270    pbuf    DCD    1718968944
        0x00003710:    6165725f    _rea    DCD    1634038367
        0x00003714:    636f6c6c    lloc    DCD    1668246636
        0x00003718:    2070203a    : p     DCD    544219194
        0x0000371c:    4e203d21    != N    DCD    1310735649
        0x00003720:    004c4c55    ULL.    DCD    5000277
        0x00003724:    66756270    pbuf    DCD    1718968944
        0x00003728:    6165725f    _rea    DCD    1634038367
        0x0000372c:    636f6c6c    lloc    DCD    1668246636
        0x00003730:    6173203a    : sa    DCD    1634934842
        0x00003734:    7020656e    ne p    DCD    1881171310
        0x00003738:    79743e2d    ->ty    DCD    2037661229
        0x0000373c:    00006570    pe..    DCD    25968
        0x00003740:    776f7267    grow    DCD    2003792487
        0x00003744:    6d203c20     < m    DCD    1830829088
        0x00003748:    755f7861    ax_u    DCD    1969191009
        0x0000374c:    745f3631    16_t    DCD    1952396849
        0x00003750:    00000000    ....    DCD    0
        0x00003754:    66756270    pbuf    DCD    1718968944
        0x00003758:    6165725f    _rea    DCD    1634038367
        0x0000375c:    636f6c6c    lloc    DCD    1668246636
        0x00003760:    2071203a    : q     DCD    544284730
        0x00003764:    4e203d21    != N    DCD    1310735649
        0x00003768:    004c4c55    ULL.    DCD    5000277
        0x0000376c:    5f6d656d    mem_    DCD    1601004909
        0x00003770:    6d697274    trim    DCD    1835627124
        0x00003774:    74657220     ret    DCD    1952805408
        0x00003778:    656e7275    urne    DCD    1701737077
        0x0000377c:    20712064    d q     DCD    544284772
        0x00003780:    4e203d3d    == N    DCD    1310735677
        0x00003784:    004c4c55    ULL.    DCD    5000277
        0x00003788:    72636e69    incr    DCD    1919118953
        0x0000378c:    6e656d65    emen    DCD    1852140901
        0x00003790:    616d5f74    t_ma    DCD    1634557812
        0x00003794:    74696e67    gnit    DCD    1953066599
        0x00003798:    20656475    ude     DCD    543515765
        0x0000379c:    70203d3c    <= p    DCD    1881161020
        0x000037a0:    656c3e2d    ->le    DCD    1701592621
        0x000037a4:    0000006e    n...    DCD    110
        0x000037a8:    20646162    bad     DCD    543449442
        0x000037ac:    66756270    pbuf    DCD    1718968944
        0x000037b0:    70797420     typ    DCD    1887007776
        0x000037b4:    00000065    e...    DCD    101
    $t
    pbuf_clen
        0x000037b8:    2100        .!      MOVS     r1,#0
        0x000037ba:    e002        ..      B        0x37c2 ; pbuf_clen + 10
        0x000037bc:    1c49        I.      ADDS     r1,r1,#1
        0x000037be:    6800        .h      LDR      r0,[r0,#0]
        0x000037c0:    b2c9        ..      UXTB     r1,r1
        0x000037c2:    2800        .(      CMP      r0,#0
        0x000037c4:    d1fa        ..      BNE      0x37bc ; pbuf_clen + 4
        0x000037c6:    4608        .F      MOV      r0,r1
        0x000037c8:    4770        pG      BX       lr
    pbuf_ref
        0x000037ca:    2800        .(      CMP      r0,#0
        0x000037cc:    d002        ..      BEQ      0x37d4 ; pbuf_ref + 10
        0x000037ce:    89c1        ..      LDRH     r1,[r0,#0xe]
        0x000037d0:    1c49        I.      ADDS     r1,r1,#1
        0x000037d2:    81c1        ..      STRH     r1,[r0,#0xe]
        0x000037d4:    4770        pG      BX       lr
    pbuf_cat
        0x000037d6:    b570        p.      PUSH     {r4-r6,lr}
        0x000037d8:    460d        .F      MOV      r5,r1
        0x000037da:    b100        ..      CBZ      r0,0x37de ; pbuf_cat + 8
        0x000037dc:    b955        U.      CBNZ     r5,0x37f4 ; pbuf_cat + 30
        0x000037de:    f2af23a8    ...#    ADR      r3,{pc}-0x2a6 ; 0x3538
        0x000037e2:    f24022ed    @.."    MOV      r2,#0x2ed
        0x000037e6:    a1f6        ..      ADR      r1,{pc}+0x3da ; 0x3bc0
        0x000037e8:    f2af206c    ..l     ADR      r0,{pc}-0x268 ; 0x3580
        0x000037ec:    e8bd4070    ..p@    POP      {r4-r6,lr}
        0x000037f0:    f005bfd2    ....    B.W      __0printf$5 ; 0x9798
        0x000037f4:    4604        .F      MOV      r4,r0
        0x000037f6:    6800        .h      LDR      r0,[r0,#0]
        0x000037f8:    b120         .      CBZ      r0,0x3804 ; pbuf_cat + 46
        0x000037fa:    8921        !.      LDRH     r1,[r4,#8]
        0x000037fc:    892a        *.      LDRH     r2,[r5,#8]
        0x000037fe:    4411        .D      ADD      r1,r1,r2
        0x00003800:    8121        !.      STRH     r1,[r4,#8]
        0x00003802:    e7f7        ..      B        0x37f4 ; pbuf_cat + 30
        0x00003804:    8920         .      LDRH     r0,[r4,#8]
        0x00003806:    8961        a.      LDRH     r1,[r4,#0xa]
        0x00003808:    4288        .B      CMP      r0,r1
        0x0000380a:    d013        ..      BEQ      0x3834 ; pbuf_cat + 94
        0x0000380c:    f2af23d8    ...#    ADR      r3,{pc}-0x2d4 ; 0x3538
        0x00003810:    f24022f6    @.."    MOV      r2,#0x2f6
        0x00003814:    a1f8        ..      ADR      r1,{pc}+0x3e4 ; 0x3bf8
        0x00003816:    f2af2098    ...     ADR      r0,{pc}-0x296 ; 0x3580
        0x0000381a:    f005ffbd    ....    BL       __0printf$5 ; 0x9798
        0x0000381e:    6820         h      LDR      r0,[r4,#0]
        0x00003820:    b140        @.      CBZ      r0,0x3834 ; pbuf_cat + 94
        0x00003822:    f2af23ec    ...#    ADR      r3,{pc}-0x2ea ; 0x3538
        0x00003826:    f24022f7    @.."    MOV      r2,#0x2f7
        0x0000382a:    a1ff        ..      ADR      r1,{pc}+0x3fe ; 0x3c28
        0x0000382c:    f2af20b0    ...     ADR      r0,{pc}-0x2ac ; 0x3580
        0x00003830:    f005ffb2    ....    BL       __0printf$5 ; 0x9798
        0x00003834:    8920         .      LDRH     r0,[r4,#8]
        0x00003836:    8929        ).      LDRH     r1,[r5,#8]
        0x00003838:    4408        .D      ADD      r0,r0,r1
        0x0000383a:    8120         .      STRH     r0,[r4,#8]
        0x0000383c:    6025        %`      STR      r5,[r4,#0]
        0x0000383e:    bd70        p.      POP      {r4-r6,pc}
    pbuf_chain
        0x00003840:    b510        ..      PUSH     {r4,lr}
        0x00003842:    460c        .F      MOV      r4,r1
        0x00003844:    f7ffffc7    ....    BL       pbuf_cat ; 0x37d6
        0x00003848:    4620         F      MOV      r0,r4
        0x0000384a:    e8bd4010    ...@    POP      {r4,lr}
        0x0000384e:    e7bc        ..      B        pbuf_ref ; 0x37ca
    pbuf_dechain
        0x00003850:    e92d41f0    -..A    PUSH     {r4-r8,lr}
        0x00003854:    2601        .&      MOVS     r6,#1
        0x00003856:    6805        .h      LDR      r5,[r0,#0]
        0x00003858:    4604        .F      MOV      r4,r0
        0x0000385a:    2700        .'      MOVS     r7,#0
        0x0000385c:    b1cd        ..      CBZ      r5,0x3892 ; pbuf_dechain + 66
        0x0000385e:    8920         .      LDRH     r0,[r4,#8]
        0x00003860:    8961        a.      LDRH     r1,[r4,#0xa]
        0x00003862:    1a40        @.      SUBS     r0,r0,r1
        0x00003864:    8929        ).      LDRH     r1,[r5,#8]
        0x00003866:    4288        .B      CMP      r0,r1
        0x00003868:    d008        ..      BEQ      0x387c ; pbuf_dechain + 44
        0x0000386a:    f2af3334    ..43    ADR      r3,{pc}-0x332 ; 0x3538
        0x0000386e:    f44f724b    O.Kr    MOV      r2,#0x32c
        0x00003872:    a1f1        ..      ADR      r1,{pc}+0x3c6 ; 0x3c38
        0x00003874:    f2af20f8    ...     ADR      r0,{pc}-0x2f4 ; 0x3580
        0x00003878:    f005ff8e    ....    BL       __0printf$5 ; 0x9798
        0x0000387c:    8920         .      LDRH     r0,[r4,#8]
        0x0000387e:    8961        a.      LDRH     r1,[r4,#0xa]
        0x00003880:    1a40        @.      SUBS     r0,r0,r1
        0x00003882:    8128        (.      STRH     r0,[r5,#8]
        0x00003884:    6027        '`      STR      r7,[r4,#0]
        0x00003886:    8960        `.      LDRH     r0,[r4,#0xa]
        0x00003888:    8120         .      STRH     r0,[r4,#8]
        0x0000388a:    4628        (F      MOV      r0,r5
        0x0000388c:    f7fffc7e    ..~.    BL       pbuf_free ; 0x318c
        0x00003890:    4606        .F      MOV      r6,r0
        0x00003892:    8920         .      LDRH     r0,[r4,#8]
        0x00003894:    8961        a.      LDRH     r1,[r4,#0xa]
        0x00003896:    4288        .B      CMP      r0,r1
        0x00003898:    d008        ..      BEQ      0x38ac ; pbuf_dechain + 92
        0x0000389a:    f2af3364    ..d3    ADR      r3,{pc}-0x362 ; 0x3538
        0x0000389e:    f240323d    @.=2    MOV      r2,#0x33d
        0x000038a2:    a1ee        ..      ADR      r1,{pc}+0x3ba ; 0x3c5c
        0x000038a4:    f2af3028    ..(0    ADR      r0,{pc}-0x324 ; 0x3580
        0x000038a8:    f005ff76    ..v.    BL       __0printf$5 ; 0x9798
        0x000038ac:    4638        8F      MOV      r0,r7
        0x000038ae:    2e00        ..      CMP      r6,#0
        0x000038b0:    d100        ..      BNE      0x38b4 ; pbuf_dechain + 100
        0x000038b2:    4628        (F      MOV      r0,r5
        0x000038b4:    e48b        ..      B        0x31ce ; pbuf_free + 66
    pbuf_copy
        0x000038b6:    e92d47f0    -..G    PUSH     {r4-r10,lr}
        0x000038ba:    f04f0600    O...    MOV      r6,#0
        0x000038be:    0005        ..      MOVS     r5,r0
        0x000038c0:    460c        .F      MOV      r4,r1
        0x000038c2:    4637        7F      MOV      r7,r6
        0x000038c4:    f06f090d    o...    MVN      r9,#0xd
        0x000038c8:    d004        ..      BEQ      0x38d4 ; pbuf_copy + 30
        0x000038ca:    b11c        ..      CBZ      r4,0x38d4 ; pbuf_copy + 30
        0x000038cc:    8928        (.      LDRH     r0,[r5,#8]
        0x000038ce:    8921        !.      LDRH     r1,[r4,#8]
        0x000038d0:    4288        .B      CMP      r0,r1
        0x000038d2:    d205        ..      BCS      0x38e0 ; pbuf_copy + 42
        0x000038d4:    f2af33a0    ...3    ADR      r3,{pc}-0x39c ; 0x3538
        0x000038d8:    f44f7257    O.Wr    MOV      r2,#0x35c
        0x000038dc:    a1e5        ..      ADR      r1,{pc}+0x398 ; 0x3c74
        0x000038de:    e04e        N.      B        0x397e ; pbuf_copy + 200
        0x000038e0:    f06f0a05    o...    MVN      r10,#5
        0x000038e4:    8968        h.      LDRH     r0,[r5,#0xa]
        0x000038e6:    8961        a.      LDRH     r1,[r4,#0xa]
        0x000038e8:    1b80        ..      SUBS     r0,r0,r6
        0x000038ea:    1bc9        ..      SUBS     r1,r1,r7
        0x000038ec:    4288        .B      CMP      r0,r1
        0x000038ee:    db02        ..      BLT      0x38f6 ; pbuf_copy + 64
        0x000038f0:    fa1ff881    ....    UXTH     r8,r1
        0x000038f4:    e001        ..      B        0x38fa ; pbuf_copy + 68
        0x000038f6:    fa1ff880    ....    UXTH     r8,r0
        0x000038fa:    6860        `h      LDR      r0,[r4,#4]
        0x000038fc:    4642        BF      MOV      r2,r8
        0x000038fe:    19c1        ..      ADDS     r1,r0,r7
        0x00003900:    6868        hh      LDR      r0,[r5,#4]
        0x00003902:    4430        0D      ADD      r0,r0,r6
        0x00003904:    f005fecf    ....    BL       __aeabi_memcpy ; 0x96a6
        0x00003908:    eb060008    ....    ADD      r0,r6,r8
        0x0000390c:    b286        ..      UXTH     r6,r0
        0x0000390e:    eb070008    ....    ADD      r0,r7,r8
        0x00003912:    b287        ..      UXTH     r7,r0
        0x00003914:    8968        h.      LDRH     r0,[r5,#0xa]
        0x00003916:    42b0        .B      CMP      r0,r6
        0x00003918:    d208        ..      BCS      0x392c ; pbuf_copy + 118
        0x0000391a:    f2af33e4    ...3    ADR      r3,{pc}-0x3e2 ; 0x3538
        0x0000391e:    f240326d    @.m2    MOV      r2,#0x36d
        0x00003922:    a1e0        ..      ADR      r1,{pc}+0x382 ; 0x3ca4
        0x00003924:    f2af30a8    ...0    ADR      r0,{pc}-0x3a4 ; 0x3580
        0x00003928:    f005ff36    ..6.    BL       __0printf$5 ; 0x9798
        0x0000392c:    8960        `.      LDRH     r0,[r4,#0xa]
        0x0000392e:    42b8        .B      CMP      r0,r7
        0x00003930:    d208        ..      BCS      0x3944 ; pbuf_copy + 142
        0x00003932:    f2af33fc    ...3    ADR      r3,{pc}-0x3fa ; 0x3538
        0x00003936:    f240326e    @.n2    MOV      r2,#0x36e
        0x0000393a:    a1e0        ..      ADR      r1,{pc}+0x382 ; 0x3cbc
        0x0000393c:    f2af30c0    ...0    ADR      r0,{pc}-0x3bc ; 0x3580
        0x00003940:    f005ff2a    ..*.    BL       __0printf$5 ; 0x9798
        0x00003944:    8960        `.      LDRH     r0,[r4,#0xa]
        0x00003946:    42b8        .B      CMP      r0,r7
        0x00003948:    d801        ..      BHI      0x394e ; pbuf_copy + 152
        0x0000394a:    6824        $h      LDR      r4,[r4,#0]
        0x0000394c:    2700        .'      MOVS     r7,#0
        0x0000394e:    8968        h.      LDRH     r0,[r5,#0xa]
        0x00003950:    42b0        .B      CMP      r0,r6
        0x00003952:    d102        ..      BNE      0x395a ; pbuf_copy + 164
        0x00003954:    682d        -h      LDR      r5,[r5,#0]
        0x00003956:    2600        .&      MOVS     r6,#0
        0x00003958:    b15d        ].      CBZ      r5,0x3972 ; pbuf_copy + 188
        0x0000395a:    b1b4        ..      CBZ      r4,0x398a ; pbuf_copy + 212
        0x0000395c:    8960        `.      LDRH     r0,[r4,#0xa]
        0x0000395e:    8921        !.      LDRH     r1,[r4,#8]
        0x00003960:    4288        .B      CMP      r0,r1
        0x00003962:    d112        ..      BNE      0x398a ; pbuf_copy + 212
        0x00003964:    6820         h      LDR      r0,[r4,#0]
        0x00003966:    b180        ..      CBZ      r0,0x398a ; pbuf_copy + 212
        0x00003968:    f2af4334    ..4C    ADR      r3,{pc}-0x430 ; 0x3538
        0x0000396c:    f240327d    @.}2    MOV      r2,#0x37d
        0x00003970:    e016        ..      B        0x39a0 ; pbuf_copy + 234
        0x00003972:    b1f4        ..      CBZ      r4,0x39b2 ; pbuf_copy + 252
        0x00003974:    f2af4340    ..@C    ADR      r3,{pc}-0x43c ; 0x3538
        0x00003978:    f44f725e    O.^r    MOV      r2,#0x378
        0x0000397c:    a1d6        ..      ADR      r1,{pc}+0x35c ; 0x3cd8
        0x0000397e:    f2af4000    ...@    ADR      r0,{pc}-0x3fe ; 0x3580
        0x00003982:    f005ff09    ....    BL       __0printf$5 ; 0x9798
        0x00003986:    4648        HF      MOV      r0,r9
        0x00003988:    e58e        ..      B        0x34a8 ; pbuf_realloc + 184
        0x0000398a:    b185        ..      CBZ      r5,0x39ae ; pbuf_copy + 248
        0x0000398c:    8968        h.      LDRH     r0,[r5,#0xa]
        0x0000398e:    8929        ).      LDRH     r1,[r5,#8]
        0x00003990:    4288        .B      CMP      r0,r1
        0x00003992:    d10c        ..      BNE      0x39ae ; pbuf_copy + 248
        0x00003994:    6828        (h      LDR      r0,[r5,#0]
        0x00003996:    b150        P.      CBZ      r0,0x39ae ; pbuf_copy + 248
        0x00003998:    f2af4364    ..dC    ADR      r3,{pc}-0x460 ; 0x3538
        0x0000399c:    f2403282    @..2    MOV      r2,#0x382
        0x000039a0:    a1d1        ..      ADR      r1,{pc}+0x348 ; 0x3ce8
        0x000039a2:    f2af4024    ..$@    ADR      r0,{pc}-0x422 ; 0x3580
        0x000039a6:    f005fef7    ....    BL       __0printf$5 ; 0x9798
        0x000039aa:    4650        PF      MOV      r0,r10
        0x000039ac:    e57c        |.      B        0x34a8 ; pbuf_realloc + 184
        0x000039ae:    2c00        .,      CMP      r4,#0
        0x000039b0:    d198        ..      BNE      0x38e4 ; pbuf_copy + 46
        0x000039b2:    2000        .       MOVS     r0,#0
        0x000039b4:    e578        x.      B        0x34a8 ; pbuf_realloc + 184
    pbuf_copy_partial
        0x000039b6:    e92d47f0    -..G    PUSH     {r4-r10,lr}
        0x000039ba:    4689        .F      MOV      r9,r1
        0x000039bc:    4616        .F      MOV      r6,r2
        0x000039be:    f04f0800    O...    MOV      r8,#0
        0x000039c2:    b128        (.      CBZ      r0,0x39d0 ; pbuf_copy_partial + 26
        0x000039c4:    f1b90f00    ....    CMP      r9,#0
        0x000039c8:    d008        ..      BEQ      0x39dc ; pbuf_copy_partial + 38
        0x000039ca:    2700        .'      MOVS     r7,#0
        0x000039cc:    4604        .F      MOV      r4,r0
        0x000039ce:    e02e        ..      B        0x3a2e ; pbuf_copy_partial + 120
        0x000039d0:    f2af439c    ...C    ADR      r3,{pc}-0x498 ; 0x3538
        0x000039d4:    f240329d    @..2    MOV      r2,#0x39d
        0x000039d8:    a1ce        ..      ADR      r1,{pc}+0x33c ; 0x3d14
        0x000039da:    e004        ..      B        0x39e6 ; pbuf_copy_partial + 48
        0x000039dc:    f2af43a8    ...C    ADR      r3,{pc}-0x4a4 ; 0x3538
        0x000039e0:    f240329e    @..2    MOV      r2,#0x39e
        0x000039e4:    a1d3        ..      ADR      r1,{pc}+0x350 ; 0x3d34
        0x000039e6:    f2af4068    ..h@    ADR      r0,{pc}-0x466 ; 0x3580
        0x000039ea:    f005fed5    ....    BL       __0printf$5 ; 0x9798
        0x000039ee:    2000        .       MOVS     r0,#0
        0x000039f0:    e55a        Z.      B        0x34a8 ; pbuf_realloc + 184
        0x000039f2:    b12b        +.      CBZ      r3,0x3a00 ; pbuf_copy_partial + 74
        0x000039f4:    8960        `.      LDRH     r0,[r4,#0xa]
        0x000039f6:    4298        .B      CMP      r0,r3
        0x000039f8:    d802        ..      BHI      0x3a00 ; pbuf_copy_partial + 74
        0x000039fa:    1a18        ..      SUBS     r0,r3,r0
        0x000039fc:    b283        ..      UXTH     r3,r0
        0x000039fe:    e015        ..      B        0x3a2c ; pbuf_copy_partial + 118
        0x00003a00:    8960        `.      LDRH     r0,[r4,#0xa]
        0x00003a02:    1ac0        ..      SUBS     r0,r0,r3
        0x00003a04:    b285        ..      UXTH     r5,r0
        0x00003a06:    42b5        .B      CMP      r5,r6
        0x00003a08:    d900        ..      BLS      0x3a0c ; pbuf_copy_partial + 86
        0x00003a0a:    4635        5F      MOV      r5,r6
        0x00003a0c:    6860        `h      LDR      r0,[r4,#4]
        0x00003a0e:    462a        *F      MOV      r2,r5
        0x00003a10:    18c1        ..      ADDS     r1,r0,r3
        0x00003a12:    eb090007    ....    ADD      r0,r9,r7
        0x00003a16:    f005fe46    ..F.    BL       __aeabi_memcpy ; 0x96a6
        0x00003a1a:    eb080005    ....    ADD      r0,r8,r5
        0x00003a1e:    fa1ff880    ....    UXTH     r8,r0
        0x00003a22:    1978        x.      ADDS     r0,r7,r5
        0x00003a24:    b287        ..      UXTH     r7,r0
        0x00003a26:    1b70        p.      SUBS     r0,r6,r5
        0x00003a28:    b286        ..      UXTH     r6,r0
        0x00003a2a:    2300        .#      MOVS     r3,#0
        0x00003a2c:    6824        $h      LDR      r4,[r4,#0]
        0x00003a2e:    b10e        ..      CBZ      r6,0x3a34 ; pbuf_copy_partial + 126
        0x00003a30:    2c00        .,      CMP      r4,#0
        0x00003a32:    d1de        ..      BNE      0x39f2 ; pbuf_copy_partial + 60
        0x00003a34:    4640        @F      MOV      r0,r8
        0x00003a36:    e537        7.      B        0x34a8 ; pbuf_realloc + 184
    pbuf_take
        0x00003a38:    e92d47f0    -..G    PUSH     {r4-r10,lr}
        0x00003a3c:    4689        .F      MOV      r9,r1
        0x00003a3e:    4690        .F      MOV      r8,r2
        0x00003a40:    4616        .F      MOV      r6,r2
        0x00003a42:    2700        .'      MOVS     r7,#0
        0x00003a44:    b140        @.      CBZ      r0,0x3a58 ; pbuf_take + 32
        0x00003a46:    f1b90f00    ....    CMP      r9,#0
        0x00003a4a:    d00b        ..      BEQ      0x3a64 ; pbuf_take + 44
        0x00003a4c:    8901        ..      LDRH     r1,[r0,#8]
        0x00003a4e:    4541        AE      CMP      r1,r8
        0x00003a50:    d212        ..      BCS      0x3a78 ; pbuf_take + 64
        0x00003a52:    f06f000d    o...    MVN      r0,#0xd
        0x00003a56:    e527        '.      B        0x34a8 ; pbuf_realloc + 184
        0x00003a58:    f2af5324    ..$S    ADR      r3,{pc}-0x520 ; 0x3538
        0x00003a5c:    f24032cd    @..2    MOV      r2,#0x3cd
        0x00003a60:    a1bd        ..      ADR      r1,{pc}+0x2f8 ; 0x3d58
        0x00003a62:    e004        ..      B        0x3a6e ; pbuf_take + 54
        0x00003a64:    f2af5330    ..0S    ADR      r3,{pc}-0x52c ; 0x3538
        0x00003a68:    f24032ce    @..2    MOV      r2,#0x3ce
        0x00003a6c:    a1c0        ..      ADR      r1,{pc}+0x304 ; 0x3d70
        0x00003a6e:    f2af40f0    ...@    ADR      r0,{pc}-0x4ee ; 0x3580
        0x00003a72:    f005fe91    ....    BL       __0printf$5 ; 0x9798
        0x00003a76:    e026        &.      B        0x3ac6 ; pbuf_take + 142
        0x00003a78:    4604        .F      MOV      r4,r0
        0x00003a7a:    f2403ad6    @..:    MOV      r10,#0x3d6
        0x00003a7e:    e018        ..      B        0x3ab2 ; pbuf_take + 122
        0x00003a80:    b93c        <.      CBNZ     r4,0x3a92 ; pbuf_take + 90
        0x00003a82:    f2af534c    ..LS    ADR      r3,{pc}-0x54a ; 0x3538
        0x00003a86:    4652        RF      MOV      r2,r10
        0x00003a88:    a1c0        ..      ADR      r1,{pc}+0x304 ; 0x3d8c
        0x00003a8a:    f2af500c    ...P    ADR      r0,{pc}-0x50a ; 0x3580
        0x00003a8e:    f005fe83    ....    BL       __0printf$5 ; 0x9798
        0x00003a92:    8960        `.      LDRH     r0,[r4,#0xa]
        0x00003a94:    4635        5F      MOV      r5,r6
        0x00003a96:    42b0        .B      CMP      r0,r6
        0x00003a98:    d200        ..      BCS      0x3a9c ; pbuf_take + 100
        0x00003a9a:    4605        .F      MOV      r5,r0
        0x00003a9c:    eb090107    ....    ADD      r1,r9,r7
        0x00003aa0:    462a        *F      MOV      r2,r5
        0x00003aa2:    6860        `h      LDR      r0,[r4,#4]
        0x00003aa4:    f005fdff    ....    BL       __aeabi_memcpy ; 0x96a6
        0x00003aa8:    1b70        p.      SUBS     r0,r6,r5
        0x00003aaa:    b286        ..      UXTH     r6,r0
        0x00003aac:    1978        x.      ADDS     r0,r7,r5
        0x00003aae:    6824        $h      LDR      r4,[r4,#0]
        0x00003ab0:    b287        ..      UXTH     r7,r0
        0x00003ab2:    2e00        ..      CMP      r6,#0
        0x00003ab4:    d1e4        ..      BNE      0x3a80 ; pbuf_take + 72
        0x00003ab6:    4547        GE      CMP      r7,r8
        0x00003ab8:    d005        ..      BEQ      0x3ac6 ; pbuf_take + 142
        0x00003aba:    f2af5384    ...S    ADR      r3,{pc}-0x582 ; 0x3538
        0x00003abe:    f24032e1    @..2    MOV      r2,#0x3e1
        0x00003ac2:    a1b8        ..      ADR      r1,{pc}+0x2e2 ; 0x3da4
        0x00003ac4:    e7d3        ..      B        0x3a6e ; pbuf_take + 54
        0x00003ac6:    2000        .       MOVS     r0,#0
        0x00003ac8:    e4ee        ..      B        0x34a8 ; pbuf_realloc + 184
    pbuf_coalesce
        0x00003aca:    b570        p.      PUSH     {r4-r6,lr}
        0x00003acc:    4604        .F      MOV      r4,r0
        0x00003ace:    4608        .F      MOV      r0,r1
        0x00003ad0:    6821        !h      LDR      r1,[r4,#0]
        0x00003ad2:    b1b9        ..      CBZ      r1,0x3b04 ; pbuf_coalesce + 58
        0x00003ad4:    8921        !.      LDRH     r1,[r4,#8]
        0x00003ad6:    2200        ."      MOVS     r2,#0
        0x00003ad8:    f7fffba0    ....    BL       pbuf_alloc ; 0x321c
        0x00003adc:    0005        ..      MOVS     r5,r0
        0x00003ade:    d011        ..      BEQ      0x3b04 ; pbuf_coalesce + 58
        0x00003ae0:    4621        !F      MOV      r1,r4
        0x00003ae2:    f7fffee8    ....    BL       pbuf_copy ; 0x38b6
        0x00003ae6:    b140        @.      CBZ      r0,0x3afa ; pbuf_coalesce + 48
        0x00003ae8:    f2af53b4    ...S    ADR      r3,{pc}-0x5b0 ; 0x3538
        0x00003aec:    f24032ff    @..2    MOV      r2,#0x3ff
        0x00003af0:    a1b2        ..      ADR      r1,{pc}+0x2cc ; 0x3dbc
        0x00003af2:    f2af5074    ..tP    ADR      r0,{pc}-0x572 ; 0x3580
        0x00003af6:    f005fe4f    ..O.    BL       __0printf$5 ; 0x9798
        0x00003afa:    4620         F      MOV      r0,r4
        0x00003afc:    f7fffb46    ..F.    BL       pbuf_free ; 0x318c
        0x00003b00:    4628        (F      MOV      r0,r5
        0x00003b02:    bd70        p.      POP      {r4-r6,pc}
        0x00003b04:    4620         F      MOV      r0,r4
        0x00003b06:    bd70        p.      POP      {r4-r6,pc}
    pbuf_get_at
        0x00003b08:    e002        ..      B        0x3b10 ; pbuf_get_at + 8
        0x00003b0a:    1a89        ..      SUBS     r1,r1,r2
        0x00003b0c:    6800        .h      LDR      r0,[r0,#0]
        0x00003b0e:    b289        ..      UXTH     r1,r1
        0x00003b10:    2800        .(      CMP      r0,#0
        0x00003b12:    d004        ..      BEQ      0x3b1e ; pbuf_get_at + 22
        0x00003b14:    8942        B.      LDRH     r2,[r0,#0xa]
        0x00003b16:    428a        .B      CMP      r2,r1
        0x00003b18:    d9f7        ..      BLS      0x3b0a ; pbuf_get_at + 2
        0x00003b1a:    6840        @h      LDR      r0,[r0,#4]
        0x00003b1c:    5c40        @\      LDRB     r0,[r0,r1]
        0x00003b1e:    4770        pG      BX       lr
    pbuf_memcmp
        0x00003b20:    b5f0        ..      PUSH     {r4-r7,lr}
        0x00003b22:    4606        .F      MOV      r6,r0
        0x00003b24:    460d        .F      MOV      r5,r1
        0x00003b26:    4617        .F      MOV      r7,r2
        0x00003b28:    e002        ..      B        0x3b30 ; pbuf_memcmp + 16
        0x00003b2a:    1a28        (.      SUBS     r0,r5,r0
        0x00003b2c:    6836        6h      LDR      r6,[r6,#0]
        0x00003b2e:    b285        ..      UXTH     r5,r0
        0x00003b30:    b1ae        ..      CBZ      r6,0x3b5e ; pbuf_memcmp + 62
        0x00003b32:    8970        p.      LDRH     r0,[r6,#0xa]
        0x00003b34:    42a8        .B      CMP      r0,r5
        0x00003b36:    d9f8        ..      BLS      0x3b2a ; pbuf_memcmp + 10
        0x00003b38:    2400        .$      MOVS     r4,#0
        0x00003b3a:    e00c        ..      B        0x3b56 ; pbuf_memcmp + 54
        0x00003b3c:    1928        (.      ADDS     r0,r5,r4
        0x00003b3e:    b281        ..      UXTH     r1,r0
        0x00003b40:    4630        0F      MOV      r0,r6
        0x00003b42:    f7ffffe1    ....    BL       pbuf_get_at ; 0x3b08
        0x00003b46:    5d39        9]      LDRB     r1,[r7,r4]
        0x00003b48:    f1040401    ....    ADD      r4,r4,#1
        0x00003b4c:    4288        .B      CMP      r0,r1
        0x00003b4e:    d001        ..      BEQ      0x3b54 ; pbuf_memcmp + 52
        0x00003b50:    b2a0        ..      UXTH     r0,r4
        0x00003b52:    bdf0        ..      POP      {r4-r7,pc}
        0x00003b54:    b2a4        ..      UXTH     r4,r4
        0x00003b56:    429c        .B      CMP      r4,r3
        0x00003b58:    d3f0        ..      BCC      0x3b3c ; pbuf_memcmp + 28
        0x00003b5a:    2000        .       MOVS     r0,#0
        0x00003b5c:    bdf0        ..      POP      {r4-r7,pc}
        0x00003b5e:    f64f70ff    O..p    MOV      r0,#0xffff
        0x00003b62:    bdf0        ..      POP      {r4-r7,pc}
    pbuf_memfind
        0x00003b64:    b5f0        ..      PUSH     {r4-r7,lr}
        0x00003b66:    4607        .F      MOV      r7,r0
        0x00003b68:    8900        ..      LDRH     r0,[r0,#8]
        0x00003b6a:    468c        .F      MOV      r12,r1
        0x00003b6c:    1a81        ..      SUBS     r1,r0,r2
        0x00003b6e:    b28d        ..      UXTH     r5,r1
        0x00003b70:    18d1        ..      ADDS     r1,r2,r3
        0x00003b72:    4616        .F      MOV      r6,r2
        0x00003b74:    4288        .B      CMP      r0,r1
        0x00003b76:    d30c        ..      BCC      0x3b92 ; pbuf_memfind + 46
        0x00003b78:    461c        .F      MOV      r4,r3
        0x00003b7a:    e008        ..      B        0x3b8e ; pbuf_memfind + 42
        0x00003b7c:    4633        3F      MOV      r3,r6
        0x00003b7e:    4662        bF      MOV      r2,r12
        0x00003b80:    4621        !F      MOV      r1,r4
        0x00003b82:    4638        8F      MOV      r0,r7
        0x00003b84:    f7ffffcc    ....    BL       pbuf_memcmp ; 0x3b20
        0x00003b88:    b130        0.      CBZ      r0,0x3b98 ; pbuf_memfind + 52
        0x00003b8a:    4420         D      ADD      r0,r0,r4
        0x00003b8c:    b284        ..      UXTH     r4,r0
        0x00003b8e:    42ac        .B      CMP      r4,r5
        0x00003b90:    d9f4        ..      BLS      0x3b7c ; pbuf_memfind + 24
        0x00003b92:    f64f70ff    O..p    MOV      r0,#0xffff
        0x00003b96:    bdf0        ..      POP      {r4-r7,pc}
        0x00003b98:    4620         F      MOV      r0,r4
        0x00003b9a:    bdf0        ..      POP      {r4-r7,pc}
    pbuf_strstr
        0x00003b9c:    b570        p.      PUSH     {r4-r6,lr}
        0x00003b9e:    4605        .F      MOV      r5,r0
        0x00003ba0:    000c        ..      MOVS     r4,r1
        0x00003ba2:    f64f76ff    O..v    MOV      r6,#0xffff
        0x00003ba6:    d009        ..      BEQ      0x3bbc ; pbuf_strstr + 32
        0x00003ba8:    7820         x      LDRB     r0,[r4,#0]
        0x00003baa:    b138        8.      CBZ      r0,0x3bbc ; pbuf_strstr + 32
        0x00003bac:    8928        (.      LDRH     r0,[r5,#8]
        0x00003bae:    42b0        .B      CMP      r0,r6
        0x00003bb0:    d004        ..      BEQ      0x3bbc ; pbuf_strstr + 32
        0x00003bb2:    4608        .F      MOV      r0,r1
        0x00003bb4:    f005fd9c    ....    BL       strlen ; 0x96f0
        0x00003bb8:    42b0        .B      CMP      r0,r6
        0x00003bba:    e109        ..      B        0x3dd0 ; pbuf_strstr + 564
        0x00003bbc:    e109        ..      B        0x3dd2 ; pbuf_strstr + 566
    $d
        0x00003bbe:    0000        ..      DCW    0
        0x00003bc0:    21206828    (h !    DCD    555771944
        0x00003bc4:    554e203d    = NU    DCD    1431183421
        0x00003bc8:    20294c4c    LL)     DCD    539577420
        0x00003bcc:    28202626    && (    DCD    673195558
        0x00003bd0:    3d212074    t !=    DCD    1025581172
        0x00003bd4:    4c554e20     NUL    DCD    1280658976
        0x00003bd8:    2820294c    L) (    DCD    673196364
        0x00003bdc:    676f7270    prog    DCD    1735357040
        0x00003be0:    6d6d6172    ramm    DCD    1835884914
        0x00003be4:    76207265    er v    DCD    1981837925
        0x00003be8:    616c6f69    iola    DCD    1634496361
        0x00003bec:    20736574    tes     DCD    544433524
        0x00003bf0:    29495041    API)    DCD    692670529
        0x00003bf4:    00000000    ....    DCD    0
        0x00003bf8:    743e2d70    p->t    DCD    1950231920
        0x00003bfc:    6c5f746f    ot_l    DCD    1818195055
        0x00003c00:    3d206e65    en =    DCD    1025535589
        0x00003c04:    2d70203d    = p-    DCD    762323005
        0x00003c08:    6e656c3e    >len    DCD    1852140606
        0x00003c0c:    666f2820     (of    DCD    1718560800
        0x00003c10:    73616c20     las    DCD    1935764512
        0x00003c14:    62702074    t pb    DCD    1651515508
        0x00003c18:    69206675    uf i    DCD    1763731061
        0x00003c1c:    6863206e    n ch    DCD    1751326830
        0x00003c20:    296e6961    ain)    DCD    695101793
        0x00003c24:    00000000    ....    DCD    0
        0x00003c28:    6e3e2d70    p->n    DCD    1849568624
        0x00003c2c:    20747865    ext     DCD    544503909
        0x00003c30:    4e203d3d    == N    DCD    1310735677
        0x00003c34:    004c4c55    ULL.    DCD    5000277
        0x00003c38:    743e2d70    p->t    DCD    1950231920
        0x00003c3c:    6c5f746f    ot_l    DCD    1818195055
        0x00003c40:    3d206e65    en =    DCD    1025535589
        0x00003c44:    2d70203d    = p-    DCD    762323005
        0x00003c48:    6e656c3e    >len    DCD    1852140606
        0x00003c4c:    71202b20     + q    DCD    1897933600
        0x00003c50:    6f743e2d    ->to    DCD    1869889069
        0x00003c54:    656c5f74    t_le    DCD    1701601140
        0x00003c58:    0000006e    n...    DCD    110
        0x00003c5c:    743e2d70    p->t    DCD    1950231920
        0x00003c60:    6c5f746f    ot_l    DCD    1818195055
        0x00003c64:    3d206e65    en =    DCD    1025535589
        0x00003c68:    2d70203d    = p-    DCD    762323005
        0x00003c6c:    6e656c3e    >len    DCD    1852140606
        0x00003c70:    00000000    ....    DCD    0
        0x00003c74:    66756270    pbuf    DCD    1718968944
        0x00003c78:    706f635f    _cop    DCD    1886348127
        0x00003c7c:    74203a79    y: t    DCD    1948269177
        0x00003c80:    65677261    arge    DCD    1701278305
        0x00003c84:    6f6e2074    t no    DCD    1869488244
        0x00003c88:    69622074    t bi    DCD    1768038516
        0x00003c8c:    6e652067    g en    DCD    1852121191
        0x00003c90:    6867756f    ough    DCD    1751610735
        0x00003c94:    206f7420     to     DCD    544175136
        0x00003c98:    646c6f68    hold    DCD    1684828008
        0x00003c9c:    756f7320     sou    DCD    1970238240
        0x00003ca0:    00656372    rce.    DCD    6644594
        0x00003ca4:    7366666f    offs    DCD    1936090735
        0x00003ca8:    745f7465    et_t    DCD    1952412773
        0x00003cac:    3d3c206f    o <=    DCD    1027350639
        0x00003cb0:    745f7020     p_t    DCD    1952411680
        0x00003cb4:    6c3e2d6f    o->l    DCD    1816014191
        0x00003cb8:    00006e65    en..    DCD    28261
        0x00003cbc:    7366666f    offs    DCD    1936090735
        0x00003cc0:    665f7465    et_f    DCD    1717531749
        0x00003cc4:    206d6f72    rom     DCD    544042866
        0x00003cc8:    70203d3c    <= p    DCD    1881161020
        0x00003ccc:    6f72665f    _fro    DCD    1869768287
        0x00003cd0:    6c3e2d6d    m->l    DCD    1816014189
        0x00003cd4:    00006e65    en..    DCD    28261
        0x00003cd8:    6f745f70    p_to    DCD    1869897584
        0x00003cdc:    203d2120     !=     DCD    540877088
        0x00003ce0:    4c4c554e    NULL    DCD    1280070990
        0x00003ce4:    00000000    ....    DCD    0
        0x00003ce8:    66756270    pbuf    DCD    1718968944
        0x00003cec:    706f635f    _cop    DCD    1886348127
        0x00003cf0:    20292879    y()     DCD    539568249
        0x00003cf4:    73656f64    does    DCD    1936027492
        0x00003cf8:    746f6e20     not    DCD    1953459744
        0x00003cfc:    6c6c6120     all    DCD    1819042080
        0x00003d00:    7020776f    ow p    DCD    1881175919
        0x00003d04:    656b6361    acke    DCD    1701536609
        0x00003d08:    75712074    t qu    DCD    1970348148
        0x00003d0c:    73657565    eues    DCD    1936029029
        0x00003d10:    00000a21    !...    DCD    2593
        0x00003d14:    66756270    pbuf    DCD    1718968944
        0x00003d18:    706f635f    _cop    DCD    1886348127
        0x00003d1c:    61705f79    y_pa    DCD    1634754425
        0x00003d20:    61697472    rtia    DCD    1634301042
        0x00003d24:    69203a6c    l: i    DCD    1763719788
        0x00003d28:    6c61766e    nval    DCD    1818326638
        0x00003d2c:    62206469    id b    DCD    1646290025
        0x00003d30:    00006675    uf..    DCD    26229
        0x00003d34:    66756270    pbuf    DCD    1718968944
        0x00003d38:    706f635f    _cop    DCD    1886348127
        0x00003d3c:    61705f79    y_pa    DCD    1634754425
        0x00003d40:    61697472    rtia    DCD    1634301042
        0x00003d44:    69203a6c    l: i    DCD    1763719788
        0x00003d48:    6c61766e    nval    DCD    1818326638
        0x00003d4c:    64206469    id d    DCD    1679844457
        0x00003d50:    70617461    atap    DCD    1885434977
        0x00003d54:    00007274    tr..    DCD    29300
        0x00003d58:    66756270    pbuf    DCD    1718968944
        0x00003d5c:    6b61745f    _tak    DCD    1801548895
        0x00003d60:    69203a65    e: i    DCD    1763719781
        0x00003d64:    6c61766e    nval    DCD    1818326638
        0x00003d68:    62206469    id b    DCD    1646290025
        0x00003d6c:    00006675    uf..    DCD    26229
        0x00003d70:    66756270    pbuf    DCD    1718968944
        0x00003d74:    6b61745f    _tak    DCD    1801548895
        0x00003d78:    69203a65    e: i    DCD    1763719781
        0x00003d7c:    6c61766e    nval    DCD    1818326638
        0x00003d80:    64206469    id d    DCD    1679844457
        0x00003d84:    70617461    atap    DCD    1885434977
        0x00003d88:    00007274    tr..    DCD    29300
        0x00003d8c:    66756270    pbuf    DCD    1718968944
        0x00003d90:    6b61745f    _tak    DCD    1801548895
        0x00003d94:    69203a65    e: i    DCD    1763719781
        0x00003d98:    6c61766e    nval    DCD    1818326638
        0x00003d9c:    70206469    id p    DCD    1881171049
        0x00003da0:    00667562    buf.    DCD    6714722
        0x00003da4:    20646964    did     DCD    543451492
        0x00003da8:    20746f6e    not     DCD    544501614
        0x00003dac:    79706f63    copy    DCD    2037411683
        0x00003db0:    6c6c6120     all    DCD    1819042080
        0x00003db4:    74616420     dat    DCD    1952539680
        0x00003db8:    00000061    a...    DCD    97
        0x00003dbc:    66756270    pbuf    DCD    1718968944
        0x00003dc0:    706f635f    _cop    DCD    1886348127
        0x00003dc4:    61662079    y fa    DCD    1634082937
        0x00003dc8:    64656c69    iled    DCD    1684368489
        0x00003dcc:    00000000    ....    DCD    0
    $t
        0x00003dd0:    d301        ..      BCC      0x3dd6 ; pbuf_strstr + 570
        0x00003dd2:    4630        0F      MOV      r0,r6
        0x00003dd4:    bd70        p.      POP      {r4-r6,pc}
        0x00003dd6:    b282        ..      UXTH     r2,r0
        0x00003dd8:    4621        !F      MOV      r1,r4
        0x00003dda:    4628        (F      MOV      r0,r5
        0x00003ddc:    e8bd4070    ..p@    POP      {r4-r6,lr}
        0x00003de0:    2300        .#      MOVS     r3,#0
        0x00003de2:    e6bf        ..      B        pbuf_memfind ; 0x3b64
    .text
    tcp_init
        0x00003de4:    4770        pG      BX       lr
    tcp_seg_free
        0x00003de6:    b510        ..      PUSH     {r4,lr}
        0x00003de8:    0004        ..      MOVS     r4,r0
        0x00003dea:    d009        ..      BEQ      0x3e00 ; tcp_seg_free + 26
        0x00003dec:    6860        `h      LDR      r0,[r4,#4]
        0x00003dee:    b108        ..      CBZ      r0,0x3df4 ; tcp_seg_free + 14
        0x00003df0:    f7fff9cc    ....    BL       pbuf_free ; 0x318c
        0x00003df4:    4621        !F      MOV      r1,r4
        0x00003df6:    e8bd4010    ...@    POP      {r4,lr}
        0x00003dfa:    2003        .       MOVS     r0,#3
        0x00003dfc:    f7ffb810    ....    B        memp_free ; 0x2e20
        0x00003e00:    bd10        ..      POP      {r4,pc}
    tcp_segs_free
        0x00003e02:    b510        ..      PUSH     {r4,lr}
        0x00003e04:    e003        ..      B        0x3e0e ; tcp_segs_free + 12
        0x00003e06:    6804        .h      LDR      r4,[r0,#0]
        0x00003e08:    f7ffffed    ....    BL       tcp_seg_free ; 0x3de6
        0x00003e0c:    4620         F      MOV      r0,r4
        0x00003e0e:    2800        .(      CMP      r0,#0
        0x00003e10:    d1f9        ..      BNE      0x3e06 ; tcp_segs_free + 4
        0x00003e12:    bd10        ..      POP      {r4,pc}
    tcp_pcb_purge
        0x00003e14:    b570        p.      PUSH     {r4-r6,lr}
        0x00003e16:    4604        .F      MOV      r4,r0
        0x00003e18:    7e00        .~      LDRB     r0,[r0,#0x18]
        0x00003e1a:    2800        .(      CMP      r0,#0
        0x00003e1c:    d016        ..      BEQ      0x3e4c ; tcp_pcb_purge + 56
        0x00003e1e:    280a        .(      CMP      r0,#0xa
        0x00003e20:    d014        ..      BEQ      0x3e4c ; tcp_pcb_purge + 56
        0x00003e22:    2801        .(      CMP      r0,#1
        0x00003e24:    d012        ..      BEQ      0x3e4c ; tcp_pcb_purge + 56
        0x00003e26:    6f60        `o      LDR      r0,[r4,#0x74]
        0x00003e28:    2500        .%      MOVS     r5,#0
        0x00003e2a:    b110        ..      CBZ      r0,0x3e32 ; tcp_pcb_purge + 30
        0x00003e2c:    f7fff9ae    ....    BL       pbuf_free ; 0x318c
        0x00003e30:    6765        eg      STR      r5,[r4,#0x74]
        0x00003e32:    f04f30ff    O..0    MOV      r0,#0xffffffff
        0x00003e36:    86a0        ..      STRH     r0,[r4,#0x34]
        0x00003e38:    6ee0        .n      LDR      r0,[r4,#0x6c]
        0x00003e3a:    f7ffffe2    ....    BL       tcp_segs_free ; 0x3e02
        0x00003e3e:    6f20         o      LDR      r0,[r4,#0x70]
        0x00003e40:    f7ffffdf    ....    BL       tcp_segs_free ; 0x3e02
        0x00003e44:    66e5        .f      STR      r5,[r4,#0x6c]
        0x00003e46:    6725        %g      STR      r5,[r4,#0x70]
        0x00003e48:    f8a4506a    ..jP    STRH     r5,[r4,#0x6a]
        0x00003e4c:    bd70        p.      POP      {r4-r6,pc}
    tcp_slowtmr
        0x00003e4e:    e92d47fc    -..G    PUSH     {r2-r10,lr}
        0x00003e52:    4fe6        .O      LDR      r7,[pc,#920] ; [0x41ec] = 0x20000080
        0x00003e54:    f44f7afa    O..z    MOV      r10,#0x1f4
        0x00003e58:    f04f0900    O...    MOV      r9,#0
        0x00003e5c:    68f8        .h      LDR      r0,[r7,#0xc]
        0x00003e5e:    1c40        @.      ADDS     r0,r0,#1
        0x00003e60:    60f8        .`      STR      r0,[r7,#0xc]
        0x00003e62:    78b8        .x      LDRB     r0,[r7,#2]
        0x00003e64:    1c40        @.      ADDS     r0,r0,#1
        0x00003e66:    70b8        .p      STRB     r0,[r7,#2]
        0x00003e68:    2600        .&      MOVS     r6,#0
        0x00003e6a:    69bc        .i      LDR      r4,[r7,#0x18]
        0x00003e6c:    e129        ).      B        0x40c2 ; tcp_slowtmr + 628
        0x00003e6e:    7e20         ~      LDRB     r0,[r4,#0x18]
        0x00003e70:    b930        0.      CBNZ     r0,0x3e80 ; tcp_slowtmr + 50
        0x00003e72:    a3df        ..      ADR      r3,{pc}+0x37e ; 0x41f0
        0x00003e74:    f240322a    @.*2    MOV      r2,#0x32a
        0x00003e78:    a1e9        ..      ADR      r1,{pc}+0x3a8 ; 0x4220
        0x00003e7a:    a0f4        ..      ADR      r0,{pc}+0x3d2 ; 0x424c
        0x00003e7c:    f005fc8c    ....    BL       __0printf$5 ; 0x9798
        0x00003e80:    7e20         ~      LDRB     r0,[r4,#0x18]
        0x00003e82:    2801        .(      CMP      r0,#1
        0x00003e84:    d106        ..      BNE      0x3e94 ; tcp_slowtmr + 70
        0x00003e86:    a3da        ..      ADR      r3,{pc}+0x36a ; 0x41f0
        0x00003e88:    f240322b    @.+2    MOV      r2,#0x32b
        0x00003e8c:    a1f9        ..      ADR      r1,{pc}+0x3e8 ; 0x4274
        0x00003e8e:    a0ef        ..      ADR      r0,{pc}+0x3be ; 0x424c
        0x00003e90:    f005fc82    ....    BL       __0printf$5 ; 0x9798
        0x00003e94:    7e20         ~      LDRB     r0,[r4,#0x18]
        0x00003e96:    280a        .(      CMP      r0,#0xa
        0x00003e98:    d106        ..      BNE      0x3ea8 ; tcp_slowtmr + 90
        0x00003e9a:    a3d5        ..      ADR      r3,{pc}+0x356 ; 0x41f0
        0x00003e9c:    f44f724b    O.Kr    MOV      r2,#0x32c
        0x00003ea0:    a1ff        ..      ADR      r1,{pc}+0x400 ; 0x42a0
        0x00003ea2:    a0ea        ..      ADR      r0,{pc}+0x3aa ; 0x424c
        0x00003ea4:    f005fc78    ..x.    BL       __0printf$5 ; 0x9798
        0x00003ea8:    f8941021    ..!.    LDRB     r1,[r4,#0x21]
        0x00003eac:    78b8        .x      LDRB     r0,[r7,#2]
        0x00003eae:    4281        .B      CMP      r1,r0
        0x00003eb0:    d101        ..      BNE      0x3eb6 ; tcp_slowtmr + 104
        0x00003eb2:    68e4        .h      LDR      r4,[r4,#0xc]
        0x00003eb4:    e105        ..      B        0x40c2 ; tcp_slowtmr + 628
        0x00003eb6:    f8840021    ..!.    STRB     r0,[r4,#0x21]
        0x00003eba:    2500        .%      MOVS     r5,#0
        0x00003ebc:    7e21        !~      LDRB     r1,[r4,#0x18]
        0x00003ebe:    46a8        .F      MOV      r8,r5
        0x00003ec0:    2902        .)      CMP      r1,#2
        0x00003ec2:    d103        ..      BNE      0x3ecc ; tcp_slowtmr + 126
        0x00003ec4:    f8940046    ..F.    LDRB     r0,[r4,#0x46]
        0x00003ec8:    2806        .(      CMP      r0,#6
        0x00003eca:    d01b        ..      BEQ      0x3f04 ; tcp_slowtmr + 182
        0x00003ecc:    f8943046    ..F0    LDRB     r3,[r4,#0x46]
        0x00003ed0:    2b0c        .+      CMP      r3,#0xc
        0x00003ed2:    d019        ..      BEQ      0x3f08 ; tcp_slowtmr + 186
        0x00003ed4:    f8940091    ....    LDRB     r0,[r4,#0x91]
        0x00003ed8:    b1c0        ..      CBZ      r0,0x3f0c ; tcp_slowtmr + 190
        0x00003eda:    f8941090    ....    LDRB     r1,[r4,#0x90]
        0x00003ede:    4afc        .J      LDR      r2,[pc,#1008] ; [0x42d0] = 0x9b63
        0x00003ee0:    1c49        I.      ADDS     r1,r1,#1
        0x00003ee2:    b2c9        ..      UXTB     r1,r1
        0x00003ee4:    f8841090    ....    STRB     r1,[r4,#0x90]
        0x00003ee8:    5c82        .\      LDRB     r2,[r0,r2]
        0x00003eea:    4291        .B      CMP      r1,r2
        0x00003eec:    d341        A.      BCC      0x3f72 ; tcp_slowtmr + 292
        0x00003eee:    f8849090    ....    STRB     r9,[r4,#0x90]
        0x00003ef2:    2807        .(      CMP      r0,#7
        0x00003ef4:    d202        ..      BCS      0x3efc ; tcp_slowtmr + 174
        0x00003ef6:    1c40        @.      ADDS     r0,r0,#1
        0x00003ef8:    f8840091    ....    STRB     r0,[r4,#0x91]
        0x00003efc:    4620         F      MOV      r0,r4
        0x00003efe:    f002ffbd    ....    BL       tcp_zero_window_probe ; 0x6e7c
        0x00003f02:    e036        6.      B        0x3f72 ; tcp_slowtmr + 292
        0x00003f04:    2501        .%      MOVS     r5,#1
        0x00003f06:    e042        B.      B        0x3f8e ; tcp_slowtmr + 320
        0x00003f08:    2501        .%      MOVS     r5,#1
        0x00003f0a:    e032        2.      B        0x3f72 ; tcp_slowtmr + 292
        0x00003f0c:    f9b40034    ..4.    LDRSH    r0,[r4,#0x34]
        0x00003f10:    2800        .(      CMP      r0,#0
        0x00003f12:    db01        ..      BLT      0x3f18 ; tcp_slowtmr + 202
        0x00003f14:    1c40        @.      ADDS     r0,r0,#1
        0x00003f16:    86a0        ..      STRH     r0,[r4,#0x34]
        0x00003f18:    6f20         o      LDR      r0,[r4,#0x70]
        0x00003f1a:    b350        P.      CBZ      r0,0x3f72 ; tcp_slowtmr + 292
        0x00003f1c:    f9b40034    ..4.    LDRSH    r0,[r4,#0x34]
        0x00003f20:    f9b42044    ..D     LDRSH    r2,[r4,#0x44]
        0x00003f24:    4290        .B      CMP      r0,r2
        0x00003f26:    db24        $.      BLT      0x3f72 ; tcp_slowtmr + 292
        0x00003f28:    2902        .)      CMP      r1,#2
        0x00003f2a:    d00a        ..      BEQ      0x3f42 ; tcp_slowtmr + 244
        0x00003f2c:    f8b40042    ..B.    LDRH     r0,[r4,#0x42]
        0x00003f30:    f9b41040    ..@.    LDRSH    r1,[r4,#0x40]
        0x00003f34:    eb0000e1    ....    ADD      r0,r0,r1,ASR #3
        0x00003f38:    49e6        .I      LDR      r1,[pc,#920] ; [0x42d4] = 0x9b98
        0x00003f3a:    5cc9        .\      LDRB     r1,[r1,r3]
        0x00003f3c:    4088        .@      LSLS     r0,r0,r1
        0x00003f3e:    f8a40044    ..D.    STRH     r0,[r4,#0x44]
        0x00003f42:    f8a49034    ..4.    STRH     r9,[r4,#0x34]
        0x00003f46:    f8b4104c    ..L.    LDRH     r1,[r4,#0x4c]
        0x00003f4a:    f8b40060    ..`.    LDRH     r0,[r4,#0x60]
        0x00003f4e:    4281        .B      CMP      r1,r0
        0x00003f50:    d200        ..      BCS      0x3f54 ; tcp_slowtmr + 262
        0x00003f52:    4608        .F      MOV      r0,r1
        0x00003f54:    0841        A.      LSRS     r1,r0,#1
        0x00003f56:    f8a4104e    ..N.    STRH     r1,[r4,#0x4e]
        0x00003f5a:    8ee0        ..      LDRH     r0,[r4,#0x36]
        0x00003f5c:    ebb10f40    ..@.    CMP      r1,r0,LSL #1
        0x00003f60:    d202        ..      BCS      0x3f68 ; tcp_slowtmr + 282
        0x00003f62:    0041        A.      LSLS     r1,r0,#1
        0x00003f64:    f8a4104e    ..N.    STRH     r1,[r4,#0x4e]
        0x00003f68:    f8a4004c    ..L.    STRH     r0,[r4,#0x4c]
        0x00003f6c:    4620         F      MOV      r0,r4
        0x00003f6e:    f002fef5    ....    BL       tcp_rexmit_rto ; 0x6d5c
        0x00003f72:    7e20         ~      LDRB     r0,[r4,#0x18]
        0x00003f74:    2806        .(      CMP      r0,#6
        0x00003f76:    d10a        ..      BNE      0x3f8e ; tcp_slowtmr + 320
        0x00003f78:    7fa0        ..      LDRB     r0,[r4,#0x1e]
        0x00003f7a:    06c0        ..      LSLS     r0,r0,#27
        0x00003f7c:    d507        ..      BPL      0x3f8e ; tcp_slowtmr + 320
        0x00003f7e:    6a60        `j      LDR      r0,[r4,#0x24]
        0x00003f80:    68f9        .h      LDR      r1,[r7,#0xc]
        0x00003f82:    1a08        ..      SUBS     r0,r1,r0
        0x00003f84:    2828        ((      CMP      r0,#0x28
        0x00003f86:    d902        ..      BLS      0x3f8e ; tcp_slowtmr + 320
        0x00003f88:    f1050501    ....    ADD      r5,r5,#1
        0x00003f8c:    b2ed        ..      UXTB     r5,r5
        0x00003f8e:    7a20         z      LDRB     r0,[r4,#8]
        0x00003f90:    0700        ..      LSLS     r0,r0,#28
        0x00003f92:    d528        (.      BPL      0x3fe6 ; tcp_slowtmr + 408
        0x00003f94:    7e20         ~      LDRB     r0,[r4,#0x18]
        0x00003f96:    2804        .(      CMP      r0,#4
        0x00003f98:    d001        ..      BEQ      0x3f9e ; tcp_slowtmr + 336
        0x00003f9a:    2807        .(      CMP      r0,#7
        0x00003f9c:    d123        #.      BNE      0x3fe6 ; tcp_slowtmr + 408
        0x00003f9e:    49ce        .I      LDR      r1,[pc,#824] ; [0x42d8] = 0xa4cb8
        0x00003fa0:    f8d4008c    ....    LDR      r0,[r4,#0x8c]
        0x00003fa4:    6a62        bj      LDR      r2,[r4,#0x24]
        0x00003fa6:    4401        .D      ADD      r1,r1,r0
        0x00003fa8:    fbb1f1fa    ....    UDIV     r1,r1,r10
        0x00003fac:    68fb        .h      LDR      r3,[r7,#0xc]
        0x00003fae:    1a9b        ..      SUBS     r3,r3,r2
        0x00003fb0:    4299        .B      CMP      r1,r3
        0x00003fb2:    d204        ..      BCS      0x3fbe ; tcp_slowtmr + 368
        0x00003fb4:    1c6d        m.      ADDS     r5,r5,#1
        0x00003fb6:    b2ed        ..      UXTB     r5,r5
        0x00003fb8:    f04f0801    O...    MOV      r8,#1
        0x00003fbc:    e013        ..      B        0x3fe6 ; tcp_slowtmr + 408
        0x00003fbe:    f8941092    ....    LDRB     r1,[r4,#0x92]
        0x00003fc2:    f242429f    B..B    MOV      r2,#0x249f
        0x00003fc6:    fb11f102    ....    SMULBB   r1,r1,r2
        0x00003fca:    eb0000c1    ....    ADD      r0,r0,r1,LSL #3
        0x00003fce:    fbb0f0fa    ....    UDIV     r0,r0,r10
        0x00003fd2:    4298        .B      CMP      r0,r3
        0x00003fd4:    d207        ..      BCS      0x3fe6 ; tcp_slowtmr + 408
        0x00003fd6:    4620         F      MOV      r0,r4
        0x00003fd8:    f002ff29    ..).    BL       tcp_keepalive ; 0x6e2e
        0x00003fdc:    f8940092    ....    LDRB     r0,[r4,#0x92]
        0x00003fe0:    1c40        @.      ADDS     r0,r0,#1
        0x00003fe2:    f8840092    ....    STRB     r0,[r4,#0x92]
        0x00003fe6:    7e20         ~      LDRB     r0,[r4,#0x18]
        0x00003fe8:    2803        .(      CMP      r0,#3
        0x00003fea:    d002        ..      BEQ      0x3ff2 ; tcp_slowtmr + 420
        0x00003fec:    2809        .(      CMP      r0,#9
        0x00003fee:    d008        ..      BEQ      0x4002 ; tcp_slowtmr + 436
        0x00003ff0:    e00c        ..      B        0x400c ; tcp_slowtmr + 446
        0x00003ff2:    6a60        `j      LDR      r0,[r4,#0x24]
        0x00003ff4:    68f9        .h      LDR      r1,[r7,#0xc]
        0x00003ff6:    1a08        ..      SUBS     r0,r1,r0
        0x00003ff8:    2828        ((      CMP      r0,#0x28
        0x00003ffa:    d907        ..      BLS      0x400c ; tcp_slowtmr + 446
        0x00003ffc:    1c6d        m.      ADDS     r5,r5,#1
        0x00003ffe:    b2ed        ..      UXTB     r5,r5
        0x00004000:    e004        ..      B        0x400c ; tcp_slowtmr + 446
        0x00004002:    6a60        `j      LDR      r0,[r4,#0x24]
        0x00004004:    68f9        .h      LDR      r1,[r7,#0xc]
        0x00004006:    1a08        ..      SUBS     r0,r1,r0
        0x00004008:    28f0        .(      CMP      r0,#0xf0
        0x0000400a:    d8f7        ..      BHI      0x3ffc ; tcp_slowtmr + 430
        0x0000400c:    b3ed        ..      CBZ      r5,0x408a ; tcp_slowtmr + 572
        0x0000400e:    4620         F      MOV      r0,r4
        0x00004010:    f7ffff00    ....    BL       tcp_pcb_purge ; 0x3e14
        0x00004014:    69b8        .i      LDR      r0,[r7,#0x18]
        0x00004016:    b15e        ^.      CBZ      r6,0x4030 ; tcp_slowtmr + 482
        0x00004018:    4284        .B      CMP      r4,r0
        0x0000401a:    d106        ..      BNE      0x402a ; tcp_slowtmr + 476
        0x0000401c:    a374        t.      ADR      r3,{pc}+0x1d4 ; 0x41f0
        0x0000401e:    f24032ba    @..2    MOV      r2,#0x3ba
        0x00004022:    a1ae        ..      ADR      r1,{pc}+0x2ba ; 0x42dc
        0x00004024:    a089        ..      ADR      r0,{pc}+0x228 ; 0x424c
        0x00004026:    f005fbb7    ....    BL       __0printf$5 ; 0x9798
        0x0000402a:    68e0        .h      LDR      r0,[r4,#0xc]
        0x0000402c:    60f0        .`      STR      r0,[r6,#0xc]
        0x0000402e:    e00a        ..      B        0x4046 ; tcp_slowtmr + 504
        0x00004030:    42a0        .B      CMP      r0,r4
        0x00004032:    d006        ..      BEQ      0x4042 ; tcp_slowtmr + 500
        0x00004034:    a36e        n.      ADR      r3,{pc}+0x1bc ; 0x41f0
        0x00004036:    f24032be    @..2    MOV      r2,#0x3be
        0x0000403a:    a1b3        ..      ADR      r1,{pc}+0x2ce ; 0x4308
        0x0000403c:    a083        ..      ADR      r0,{pc}+0x210 ; 0x424c
        0x0000403e:    f005fbab    ....    BL       __0printf$5 ; 0x9798
        0x00004042:    68e0        .h      LDR      r0,[r4,#0xc]
        0x00004044:    61b8        .a      STR      r0,[r7,#0x18]
        0x00004046:    f1b80f00    ....    CMP      r8,#0
        0x0000404a:    d009        ..      BEQ      0x4060 ; tcp_slowtmr + 530
        0x0000404c:    8ba3        ..      LDRH     r3,[r4,#0x1c]
        0x0000404e:    8b62        b.      LDRH     r2,[r4,#0x1a]
        0x00004050:    e9cd2300    ...#    STRD     r2,r3,[sp,#0]
        0x00004054:    1d23        #.      ADDS     r3,r4,#4
        0x00004056:    4622        "F      MOV      r2,r4
        0x00004058:    6aa1        .j      LDR      r1,[r4,#0x28]
        0x0000405a:    6d20         m      LDR      r0,[r4,#0x50]
        0x0000405c:    f002fe2c    ..,.    BL       tcp_rst ; 0x6cb8
        0x00004060:    4621        !F      MOV      r1,r4
        0x00004062:    f8d48010    ....    LDR      r8,[r4,#0x10]
        0x00004066:    f8d45088    ...P    LDR      r5,[r4,#0x88]
        0x0000406a:    68e4        .h      LDR      r4,[r4,#0xc]
        0x0000406c:    2001        .       MOVS     r0,#1
        0x0000406e:    f7fefed7    ....    BL       memp_free ; 0x2e20
        0x00004072:    f8879000    ....    STRB     r9,[r7,#0]
        0x00004076:    b325        %.      CBZ      r5,0x40c2 ; tcp_slowtmr + 628
        0x00004078:    f06f0109    o...    MVN      r1,#9
        0x0000407c:    4640        @F      MOV      r0,r8
        0x0000407e:    47a8        .G      BLX      r5
        0x00004080:    7838        8x      LDRB     r0,[r7,#0]
        0x00004082:    2800        .(      CMP      r0,#0
        0x00004084:    f47faef0    ....    BNE      0x3e68 ; tcp_slowtmr + 26
        0x00004088:    e01b        ..      B        0x40c2 ; tcp_slowtmr + 628
        0x0000408a:    e7ff        ..      B        0x408c ; tcp_slowtmr + 574
        0x0000408c:    4626        &F      MOV      r6,r4
        0x0000408e:    68e4        .h      LDR      r4,[r4,#0xc]
        0x00004090:    7ff0        ..      LDRB     r0,[r6,#0x1f]
        0x00004092:    1c40        @.      ADDS     r0,r0,#1
        0x00004094:    b2c0        ..      UXTB     r0,r0
        0x00004096:    77f0        .w      STRB     r0,[r6,#0x1f]
        0x00004098:    f8961020    .. .    LDRB     r1,[r6,#0x20]
        0x0000409c:    4288        .B      CMP      r0,r1
        0x0000409e:    d310        ..      BCC      0x40c2 ; tcp_slowtmr + 628
        0x000040a0:    f886901f    ....    STRB     r9,[r6,#0x1f]
        0x000040a4:    f8879000    ....    STRB     r9,[r7,#0]
        0x000040a8:    f8d62084    ...     LDR      r2,[r6,#0x84]
        0x000040ac:    b132        2.      CBZ      r2,0x40bc ; tcp_slowtmr + 622
        0x000040ae:    4631        1F      MOV      r1,r6
        0x000040b0:    6930        0i      LDR      r0,[r6,#0x10]
        0x000040b2:    4790        .G      BLX      r2
        0x000040b4:    7839        9x      LDRB     r1,[r7,#0]
        0x000040b6:    2900        .)      CMP      r1,#0
        0x000040b8:    d1e4        ..      BNE      0x4084 ; tcp_slowtmr + 566
        0x000040ba:    b910        ..      CBNZ     r0,0x40c2 ; tcp_slowtmr + 628
        0x000040bc:    4630        0F      MOV      r0,r6
        0x000040be:    f002fd20    .. .    BL       tcp_output ; 0x6b02
        0x000040c2:    2c00        .,      CMP      r4,#0
        0x000040c4:    f47faed3    ....    BNE      0x3e6e ; tcp_slowtmr + 32
        0x000040c8:    2500        .%      MOVS     r5,#0
        0x000040ca:    69fc        .i      LDR      r4,[r7,#0x1c]
        0x000040cc:    e032        2.      B        0x4134 ; tcp_slowtmr + 742
        0x000040ce:    7e20         ~      LDRB     r0,[r4,#0x18]
        0x000040d0:    280a        .(      CMP      r0,#0xa
        0x000040d2:    d006        ..      BEQ      0x40e2 ; tcp_slowtmr + 660
        0x000040d4:    a346        F.      ADR      r3,{pc}+0x11c ; 0x41f0
        0x000040d6:    f24032ee    @..2    MOV      r2,#0x3ee
        0x000040da:    a196        ..      ADR      r1,{pc}+0x25a ; 0x4334
        0x000040dc:    a05b        [.      ADR      r0,{pc}+0x170 ; 0x424c
        0x000040de:    f005fb5b    ..[.    BL       __0printf$5 ; 0x9798
        0x000040e2:    6a60        `j      LDR      r0,[r4,#0x24]
        0x000040e4:    68f9        .h      LDR      r1,[r7,#0xc]
        0x000040e6:    1a08        ..      SUBS     r0,r1,r0
        0x000040e8:    28f0        .(      CMP      r0,#0xf0
        0x000040ea:    d921        !.      BLS      0x4130 ; tcp_slowtmr + 738
        0x000040ec:    4620         F      MOV      r0,r4
        0x000040ee:    f7fffe91    ....    BL       tcp_pcb_purge ; 0x3e14
        0x000040f2:    69f8        .i      LDR      r0,[r7,#0x1c]
        0x000040f4:    b15d        ].      CBZ      r5,0x410e ; tcp_slowtmr + 704
        0x000040f6:    4284        .B      CMP      r4,r0
        0x000040f8:    d106        ..      BNE      0x4108 ; tcp_slowtmr + 698
        0x000040fa:    a33d        =.      ADR      r3,{pc}+0xf6 ; 0x41f0
        0x000040fc:    f24032fe    @..2    MOV      r2,#0x3fe
        0x00004100:    a198        ..      ADR      r1,{pc}+0x264 ; 0x4364
        0x00004102:    a052        R.      ADR      r0,{pc}+0x14a ; 0x424c
        0x00004104:    f005fb48    ..H.    BL       __0printf$5 ; 0x9798
        0x00004108:    68e0        .h      LDR      r0,[r4,#0xc]
        0x0000410a:    60e8        .`      STR      r0,[r5,#0xc]
        0x0000410c:    e00a        ..      B        0x4124 ; tcp_slowtmr + 726
        0x0000410e:    42a0        .B      CMP      r0,r4
        0x00004110:    d006        ..      BEQ      0x4120 ; tcp_slowtmr + 722
        0x00004112:    a337        7.      ADR      r3,{pc}+0xde ; 0x41f0
        0x00004114:    f2404202    @..B    MOV      r2,#0x402
        0x00004118:    a19c        ..      ADR      r1,{pc}+0x274 ; 0x438c
        0x0000411a:    a04c        L.      ADR      r0,{pc}+0x132 ; 0x424c
        0x0000411c:    f005fb3c    ..<.    BL       __0printf$5 ; 0x9798
        0x00004120:    68e0        .h      LDR      r0,[r4,#0xc]
        0x00004122:    61f8        .a      STR      r0,[r7,#0x1c]
        0x00004124:    4621        !F      MOV      r1,r4
        0x00004126:    68e4        .h      LDR      r4,[r4,#0xc]
        0x00004128:    2001        .       MOVS     r0,#1
        0x0000412a:    f7fefe79    ..y.    BL       memp_free ; 0x2e20
        0x0000412e:    e001        ..      B        0x4134 ; tcp_slowtmr + 742
        0x00004130:    4625        %F      MOV      r5,r4
        0x00004132:    68e4        .h      LDR      r4,[r4,#0xc]
        0x00004134:    2c00        .,      CMP      r4,#0
        0x00004136:    d1ca        ..      BNE      0x40ce ; tcp_slowtmr + 640
        0x00004138:    e8bd87fc    ....    POP      {r2-r10,pc}
    tcp_pcb_remove
        0x0000413c:    b570        p.      PUSH     {r4-r6,lr}
        0x0000413e:    4602        .F      MOV      r2,r0
        0x00004140:    6800        .h      LDR      r0,[r0,#0]
        0x00004142:    460c        .F      MOV      r4,r1
        0x00004144:    4288        .B      CMP      r0,r1
        0x00004146:    d102        ..      BNE      0x414e ; tcp_pcb_remove + 18
        0x00004148:    68c0        .h      LDR      r0,[r0,#0xc]
        0x0000414a:    6010        .`      STR      r0,[r2,#0]
        0x0000414c:    e00b        ..      B        0x4166 ; tcp_pcb_remove + 42
        0x0000414e:    4927        'I      LDR      r1,[pc,#156] ; [0x41ec] = 0x20000080
        0x00004150:    e006        ..      B        0x4160 ; tcp_pcb_remove + 36
        0x00004152:    68c0        .h      LDR      r0,[r0,#0xc]
        0x00004154:    42a0        .B      CMP      r0,r4
        0x00004156:    d103        ..      BNE      0x4160 ; tcp_pcb_remove + 36
        0x00004158:    6a09        .j      LDR      r1,[r1,#0x20]
        0x0000415a:    68e0        .h      LDR      r0,[r4,#0xc]
        0x0000415c:    60c8        .`      STR      r0,[r1,#0xc]
        0x0000415e:    e002        ..      B        0x4166 ; tcp_pcb_remove + 42
        0x00004160:    6208        .b      STR      r0,[r1,#0x20]
        0x00004162:    2800        .(      CMP      r0,#0
        0x00004164:    d1f5        ..      BNE      0x4152 ; tcp_pcb_remove + 22
        0x00004166:    2500        .%      MOVS     r5,#0
        0x00004168:    4620         F      MOV      r0,r4
        0x0000416a:    60e5        .`      STR      r5,[r4,#0xc]
        0x0000416c:    f7fffe52    ..R.    BL       tcp_pcb_purge ; 0x3e14
        0x00004170:    7e20         ~      LDRB     r0,[r4,#0x18]
        0x00004172:    280a        .(      CMP      r0,#0xa
        0x00004174:    d00d        ..      BEQ      0x4192 ; tcp_pcb_remove + 86
        0x00004176:    2801        .(      CMP      r0,#1
        0x00004178:    d01d        ..      BEQ      0x41b6 ; tcp_pcb_remove + 122
        0x0000417a:    7fa0        ..      LDRB     r0,[r4,#0x1e]
        0x0000417c:    07c1        ..      LSLS     r1,r0,#31
        0x0000417e:    d008        ..      BEQ      0x4192 ; tcp_pcb_remove + 86
        0x00004180:    f0400002    @...    ORR      r0,r0,#2
        0x00004184:    77a0        .w      STRB     r0,[r4,#0x1e]
        0x00004186:    4620         F      MOV      r0,r4
        0x00004188:    f002fcbb    ....    BL       tcp_output ; 0x6b02
        0x0000418c:    7e20         ~      LDRB     r0,[r4,#0x18]
        0x0000418e:    2801        .(      CMP      r0,#1
        0x00004190:    d011        ..      BEQ      0x41b6 ; tcp_pcb_remove + 122
        0x00004192:    6ee0        .n      LDR      r0,[r4,#0x6c]
        0x00004194:    b130        0.      CBZ      r0,0x41a4 ; tcp_pcb_remove + 104
        0x00004196:    a316        ..      ADR      r3,{pc}+0x5a ; 0x41f0
        0x00004198:    f2406211    @..b    MOV      r2,#0x611
        0x0000419c:    a185        ..      ADR      r1,{pc}+0x218 ; 0x43b4
        0x0000419e:    a02b        +.      ADR      r0,{pc}+0xae ; 0x424c
        0x000041a0:    f005fafa    ....    BL       __0printf$5 ; 0x9798
        0x000041a4:    6f20         o      LDR      r0,[r4,#0x70]
        0x000041a6:    b130        0.      CBZ      r0,0x41b6 ; tcp_pcb_remove + 122
        0x000041a8:    a311        ..      ADR      r3,{pc}+0x48 ; 0x41f0
        0x000041aa:    f2406212    @..b    MOV      r2,#0x612
        0x000041ae:    a187        ..      ADR      r1,{pc}+0x21e ; 0x43cc
        0x000041b0:    a026        &.      ADR      r0,{pc}+0x9c ; 0x424c
        0x000041b2:    f005faf1    ....    BL       __0printf$5 ; 0x9798
        0x000041b6:    7625        %v      STRB     r5,[r4,#0x18]
        0x000041b8:    bd70        p.      POP      {r4-r6,pc}
    tcp_close_shutdown
        0x000041ba:    e92d47fc    -..G    PUSH     {r2-r10,lr}
        0x000041be:    4604        .F      MOV      r4,r0
        0x000041c0:    7e00        .~      LDRB     r0,[r0,#0x18]
        0x000041c2:    4e0a        .N      LDR      r6,[pc,#40] ; [0x41ec] = 0x20000080
        0x000041c4:    f04f0900    O...    MOV      r9,#0
        0x000041c8:    2701        .'      MOVS     r7,#1
        0x000041ca:    b169        i.      CBZ      r1,0x41e8 ; tcp_close_shutdown + 46
        0x000041cc:    2804        .(      CMP      r0,#4
        0x000041ce:    d001        ..      BEQ      0x41d4 ; tcp_close_shutdown + 26
        0x000041d0:    2807        .(      CMP      r0,#7
        0x000041d2:    d109        ..      BNE      0x41e8 ; tcp_close_shutdown + 46
        0x000041d4:    6f61        ao      LDR      r1,[r4,#0x74]
        0x000041d6:    b919        ..      CBNZ     r1,0x41e0 ; tcp_close_shutdown + 38
        0x000041d8:    8da1        ..      LDRH     r1,[r4,#0x2c]
        0x000041da:    f5b16f7a    ..zo    CMP      r1,#0xfa0
        0x000041de:    d003        ..      BEQ      0x41e8 ; tcp_close_shutdown + 46
        0x000041e0:    7fa0        ..      LDRB     r0,[r4,#0x1e]
        0x000041e2:    06c0        ..      LSLS     r0,r0,#27
        0x000041e4:    d401        ..      BMI      0x41ea ; tcp_close_shutdown + 48
        0x000041e6:    e0ff        ..      B        0x43e8 ; tcp_close_shutdown + 558
        0x000041e8:    e135        5.      B        0x4456 ; tcp_close_shutdown + 668
        0x000041ea:    e105        ..      B        0x43f8 ; tcp_close_shutdown + 574
    $d
        0x000041ec:    20000080    ...     DCD    536871040
        0x000041f0:    2e5c2e2e    ..\.    DCD    777793070
        0x000041f4:    2e2e5c2e    .\..    DCD    774790190
        0x000041f8:    6968545c    \Thi    DCD    1768445020
        0x000041fc:    61506472    rdPa    DCD    1632658546
        0x00004200:    5c797472    rty\    DCD    1551463538
        0x00004204:    7069776c    lwip    DCD    1885960044
        0x00004208:    342e312d    -1.4    DCD    875442477
        0x0000420c:    735c312e    .1\s    DCD    1935421742
        0x00004210:    635c6372    rc\c    DCD    1666999154
        0x00004214:    5c65726f    ore\    DCD    1550152303
        0x00004218:    2e706374    tcp.    DCD    779117428
        0x0000421c:    00000063    c...    DCD    99
        0x00004220:    5f706374    tcp_    DCD    1601201012
        0x00004224:    776f6c73    slow    DCD    2003790963
        0x00004228:    3a726d74    tmr:    DCD    980577652
        0x0000422c:    74636120     act    DCD    1952669984
        0x00004230:    20657669    ive     DCD    543520361
        0x00004234:    2d626370    pcb-    DCD    761422704
        0x00004238:    6174733e    >sta    DCD    1635021630
        0x0000423c:    21206574    te !    DCD    555771252
        0x00004240:    4c43203d    = CL    DCD    1279467581
        0x00004244:    4445534f    OSED    DCD    1145393999
        0x00004248:    0000000a    ....    DCD    10
        0x0000424c:    65737341    Asse    DCD    1702064961
        0x00004250:    6f697472    rtio    DCD    1869182066
        0x00004254:    2522206e    n "%    DCD    622993518
        0x00004258:    66202273    s" f    DCD    1713382003
        0x0000425c:    656c6961    aile    DCD    1701603681
        0x00004260:    74612064    d at    DCD    1952522340
        0x00004264:    6e696c20     lin    DCD    1852402720
        0x00004268:    64252065    e %d    DCD    1680154725
        0x0000426c:    206e6920     in     DCD    544106784
        0x00004270:    000a7325    %s..    DCD    684837
        0x00004274:    5f706374    tcp_    DCD    1601201012
        0x00004278:    776f6c73    slow    DCD    2003790963
        0x0000427c:    3a726d74    tmr:    DCD    980577652
        0x00004280:    74636120     act    DCD    1952669984
        0x00004284:    20657669    ive     DCD    543520361
        0x00004288:    2d626370    pcb-    DCD    761422704
        0x0000428c:    6174733e    >sta    DCD    1635021630
        0x00004290:    21206574    te !    DCD    555771252
        0x00004294:    494c203d    = LI    DCD    1229725757
        0x00004298:    4e455453    STEN    DCD    1313166419
        0x0000429c:    0000000a    ....    DCD    10
        0x000042a0:    5f706374    tcp_    DCD    1601201012
        0x000042a4:    776f6c73    slow    DCD    2003790963
        0x000042a8:    3a726d74    tmr:    DCD    980577652
        0x000042ac:    74636120     act    DCD    1952669984
        0x000042b0:    20657669    ive     DCD    543520361
        0x000042b4:    2d626370    pcb-    DCD    761422704
        0x000042b8:    6174733e    >sta    DCD    1635021630
        0x000042bc:    21206574    te !    DCD    555771252
        0x000042c0:    4954203d    = TI    DCD    1230250045
        0x000042c4:    572d454d    ME-W    DCD    1462584653
        0x000042c8:    0a544941    AIT.    DCD    173295937
        0x000042cc:    00000000    ....    DCD    0
        0x000042d0:    00009b63    c...    DCD    39779
        0x000042d4:    00009b98    ....    DCD    39832
        0x000042d8:    000a4cb8    .L..    DCD    675000
        0x000042dc:    5f706374    tcp_    DCD    1601201012
        0x000042e0:    776f6c73    slow    DCD    2003790963
        0x000042e4:    3a726d74    tmr:    DCD    980577652
        0x000042e8:    64696d20     mid    DCD    1684630816
        0x000042ec:    20656c64    dle     DCD    543517796
        0x000042f0:    20706374    tcp     DCD    544236404
        0x000042f4:    74203d21    != t    DCD    1948269857
        0x000042f8:    615f7063    cp_a    DCD    1633644643
        0x000042fc:    76697463    ctiv    DCD    1986622563
        0x00004300:    63705f65    e_pc    DCD    1668308837
        0x00004304:    00007362    bs..    DCD    29538
        0x00004308:    5f706374    tcp_    DCD    1601201012
        0x0000430c:    776f6c73    slow    DCD    2003790963
        0x00004310:    3a726d74    tmr:    DCD    980577652
        0x00004314:    72696620     fir    DCD    1919510048
        0x00004318:    70207473    st p    DCD    1881175155
        0x0000431c:    3d206263    cb =    DCD    1025532515
        0x00004320:    6374203d    = tc    DCD    1668554813
        0x00004324:    63615f70    p_ac    DCD    1667325808
        0x00004328:    65766974    tive    DCD    1702259060
        0x0000432c:    6263705f    _pcb    DCD    1650683999
        0x00004330:    00000073    s...    DCD    115
        0x00004334:    5f706374    tcp_    DCD    1601201012
        0x00004338:    776f6c73    slow    DCD    2003790963
        0x0000433c:    3a726d74    tmr:    DCD    980577652
        0x00004340:    4d495420     TIM    DCD    1296651296
        0x00004344:    41572d45    E-WA    DCD    1096232261
        0x00004348:    70205449    IT p    DCD    1881166921
        0x0000434c:    3e2d6263    cb->    DCD    1043161699
        0x00004350:    74617473    stat    DCD    1952543859
        0x00004354:    3d3d2065    e ==    DCD    1027416165
        0x00004358:    4d495420     TIM    DCD    1296651296
        0x0000435c:    41572d45    E-WA    DCD    1096232261
        0x00004360:    00005449    IT..    DCD    21577
        0x00004364:    5f706374    tcp_    DCD    1601201012
        0x00004368:    776f6c73    slow    DCD    2003790963
        0x0000436c:    3a726d74    tmr:    DCD    980577652
        0x00004370:    64696d20     mid    DCD    1684630816
        0x00004374:    20656c64    dle     DCD    543517796
        0x00004378:    20706374    tcp     DCD    544236404
        0x0000437c:    74203d21    != t    DCD    1948269857
        0x00004380:    745f7063    cp_t    DCD    1952411747
        0x00004384:    63705f77    w_pc    DCD    1668308855
        0x00004388:    00007362    bs..    DCD    29538
        0x0000438c:    5f706374    tcp_    DCD    1601201012
        0x00004390:    776f6c73    slow    DCD    2003790963
        0x00004394:    3a726d74    tmr:    DCD    980577652
        0x00004398:    72696620     fir    DCD    1919510048
        0x0000439c:    70207473    st p    DCD    1881175155
        0x000043a0:    3d206263    cb =    DCD    1025532515
        0x000043a4:    6374203d    = tc    DCD    1668554813
        0x000043a8:    77745f70    p_tw    DCD    2004115312
        0x000043ac:    6263705f    _pcb    DCD    1650683999
        0x000043b0:    00000073    s...    DCD    115
        0x000043b4:    65736e75    unse    DCD    1702063733
        0x000043b8:    7320746e    nt s    DCD    1931506798
        0x000043bc:    656d6765    egme    DCD    1701668709
        0x000043c0:    2073746e    nts     DCD    544437358
        0x000043c4:    6b61656c    leak    DCD    1801545068
        0x000043c8:    00676e69    ing.    DCD    6778473
        0x000043cc:    63616e75    unac    DCD    1667329653
        0x000043d0:    2064656b    ked     DCD    543450475
        0x000043d4:    6d676573    segm    DCD    1835492723
        0x000043d8:    73746e65    ents    DCD    1937010277
        0x000043dc:    61656c20     lea    DCD    1634036768
        0x000043e0:    676e696b    king    DCD    1735289195
        0x000043e4:    00000000    ....    DCD    0
    $t
        0x000043e8:    f2af13fc    ....    ADR      r3,{pc}-0x1f8 ; 0x41f0
        0x000043ec:    22b2        ."      MOVS     r2,#0xb2
        0x000043ee:    a1fb        ..      ADR      r1,{pc}+0x3ee ; 0x47dc
        0x000043f0:    f2af10a8    ....    ADR      r0,{pc}-0x1a4 ; 0x424c
        0x000043f4:    f005f9d0    ....    BL       __0printf$5 ; 0x9798
        0x000043f8:    8ba3        ..      LDRH     r3,[r4,#0x1c]
        0x000043fa:    8b62        b.      LDRH     r2,[r4,#0x1a]
        0x000043fc:    e9cd2300    ...#    STRD     r2,r3,[sp,#0]
        0x00004400:    1d23        #.      ADDS     r3,r4,#4
        0x00004402:    4622        "F      MOV      r2,r4
        0x00004404:    6aa1        .j      LDR      r1,[r4,#0x28]
        0x00004406:    6d20         m      LDR      r0,[r4,#0x50]
        0x00004408:    f002fc56    ..V.    BL       tcp_rst ; 0x6cb8
        0x0000440c:    4620         F      MOV      r0,r4
        0x0000440e:    f7fffd01    ....    BL       tcp_pcb_purge ; 0x3e14
        0x00004412:    69b0        .i      LDR      r0,[r6,#0x18]
        0x00004414:    42a0        .B      CMP      r0,r4
        0x00004416:    d102        ..      BNE      0x441e ; tcp_close_shutdown + 612
        0x00004418:    68c0        .h      LDR      r0,[r0,#0xc]
        0x0000441a:    61b0        .a      STR      r0,[r6,#0x18]
        0x0000441c:    e007        ..      B        0x442e ; tcp_close_shutdown + 628
        0x0000441e:    6230        0b      STR      r0,[r6,#0x20]
        0x00004420:    b128        (.      CBZ      r0,0x442e ; tcp_close_shutdown + 628
        0x00004422:    68c0        .h      LDR      r0,[r0,#0xc]
        0x00004424:    42a0        .B      CMP      r0,r4
        0x00004426:    d1fa        ..      BNE      0x441e ; tcp_close_shutdown + 612
        0x00004428:    6a31        1j      LDR      r1,[r6,#0x20]
        0x0000442a:    68e0        .h      LDR      r0,[r4,#0xc]
        0x0000442c:    60c8        .`      STR      r0,[r1,#0xc]
        0x0000442e:    f8c4900c    ....    STR      r9,[r4,#0xc]
        0x00004432:    7037        7p      STRB     r7,[r6,#0]
        0x00004434:    7e20         ~      LDRB     r0,[r4,#0x18]
        0x00004436:    2804        .(      CMP      r0,#4
        0x00004438:    d005        ..      BEQ      0x4446 ; tcp_close_shutdown + 652
        0x0000443a:    4621        !F      MOV      r1,r4
        0x0000443c:    2001        .       MOVS     r0,#1
        0x0000443e:    f7fefcef    ....    BL       memp_free ; 0x2e20
        0x00004442:    2000        .       MOVS     r0,#0
        0x00004444:    e678        x.      B        0x4138 ; tcp_slowtmr + 746
        0x00004446:    200a        .       MOVS     r0,#0xa
        0x00004448:    7620         v      STRB     r0,[r4,#0x18]
        0x0000444a:    69f0        .i      LDR      r0,[r6,#0x1c]
        0x0000444c:    60e0        .`      STR      r0,[r4,#0xc]
        0x0000444e:    61f4        .a      STR      r4,[r6,#0x1c]
        0x00004450:    f002fd8d    ....    BL       tcp_timer_needed ; 0x6f6e
        0x00004454:    e7f5        ..      B        0x4442 ; tcp_close_shutdown + 648
        0x00004456:    f04f0805    O...    MOV      r8,#5
        0x0000445a:    2808        .(      CMP      r0,#8
        0x0000445c:    d23f        ?.      BCS      0x44de ; tcp_close_shutdown + 804
        0x0000445e:    e8dff000    ....    TBB      [pc,r0]
    $d
        0x00004462:    1c04        ..      DCW    7172
        0x00004464:    3e2c2c24    $,,>    DCD    1043082276
        0x00004468:    343e        >4      DCW    13374
    $t
        0x0000446a:    8b60        `.      LDRH     r0,[r4,#0x1a]
        0x0000446c:    2500        .%      MOVS     r5,#0
        0x0000446e:    b178        x.      CBZ      r0,0x4490 ; tcp_close_shutdown + 726
        0x00004470:    6930        0i      LDR      r0,[r6,#0x10]
        0x00004472:    42a0        .B      CMP      r0,r4
        0x00004474:    d102        ..      BNE      0x447c ; tcp_close_shutdown + 706
        0x00004476:    68c0        .h      LDR      r0,[r0,#0xc]
        0x00004478:    6130        0a      STR      r0,[r6,#0x10]
        0x0000447a:    e007        ..      B        0x448c ; tcp_close_shutdown + 722
        0x0000447c:    6230        0b      STR      r0,[r6,#0x20]
        0x0000447e:    b128        (.      CBZ      r0,0x448c ; tcp_close_shutdown + 722
        0x00004480:    68c0        .h      LDR      r0,[r0,#0xc]
        0x00004482:    42a0        .B      CMP      r0,r4
        0x00004484:    d1fa        ..      BNE      0x447c ; tcp_close_shutdown + 706
        0x00004486:    6a31        1j      LDR      r1,[r6,#0x20]
        0x00004488:    68e0        .h      LDR      r0,[r4,#0xc]
        0x0000448a:    60c8        .`      STR      r0,[r1,#0xc]
        0x0000448c:    f8c4900c    ....    STR      r9,[r4,#0xc]
        0x00004490:    4621        !F      MOV      r1,r4
        0x00004492:    2001        .       MOVS     r0,#1
        0x00004494:    f7fefcc4    ....    BL       memp_free ; 0x2e20
        0x00004498:    e026        &.      B        0x44e8 ; tcp_close_shutdown + 814
        0x0000449a:    2500        .%      MOVS     r5,#0
        0x0000449c:    4621        !F      MOV      r1,r4
        0x0000449e:    48d6        .H      LDR      r0,[pc,#856] ; [0x47f8] = 0x20000094
        0x000044a0:    f7fffe4c    ..L.    BL       tcp_pcb_remove ; 0x413c
        0x000044a4:    4621        !F      MOV      r1,r4
        0x000044a6:    2002        .       MOVS     r0,#2
        0x000044a8:    e7f4        ..      B        0x4494 ; tcp_close_shutdown + 730
        0x000044aa:    48d3        .H      LDR      r0,[pc,#844] ; [0x47f8] = 0x20000094
        0x000044ac:    2500        .%      MOVS     r5,#0
        0x000044ae:    4621        !F      MOV      r1,r4
        0x000044b0:    1d00        ..      ADDS     r0,r0,#4
        0x000044b2:    f7fffe43    ..C.    BL       tcp_pcb_remove ; 0x413c
        0x000044b6:    7037        7p      STRB     r7,[r6,#0]
        0x000044b8:    e7ea        ..      B        0x4490 ; tcp_close_shutdown + 726
        0x000044ba:    4620         F      MOV      r0,r4
        0x000044bc:    f001fe4e    ..N.    BL       tcp_send_fin ; 0x615c
        0x000044c0:    0005        ..      MOVS     r5,r0
        0x000044c2:    d109        ..      BNE      0x44d8 ; tcp_close_shutdown + 798
        0x000044c4:    f8848018    ....    STRB     r8,[r4,#0x18]
        0x000044c8:    e006        ..      B        0x44d8 ; tcp_close_shutdown + 798
        0x000044ca:    4620         F      MOV      r0,r4
        0x000044cc:    f001fe46    ..F.    BL       tcp_send_fin ; 0x615c
        0x000044d0:    0005        ..      MOVS     r5,r0
        0x000044d2:    d101        ..      BNE      0x44d8 ; tcp_close_shutdown + 798
        0x000044d4:    2009        .       MOVS     r0,#9
        0x000044d6:    7620         v      STRB     r0,[r4,#0x18]
        0x000044d8:    b134        4.      CBZ      r4,0x44e8 ; tcp_close_shutdown + 814
        0x000044da:    b115        ..      CBZ      r5,0x44e2 ; tcp_close_shutdown + 808
        0x000044dc:    e004        ..      B        0x44e8 ; tcp_close_shutdown + 814
        0x000044de:    2500        .%      MOVS     r5,#0
        0x000044e0:    e002        ..      B        0x44e8 ; tcp_close_shutdown + 814
        0x000044e2:    4620         F      MOV      r0,r4
        0x000044e4:    f002fb0d    ....    BL       tcp_output ; 0x6b02
        0x000044e8:    4628        (F      MOV      r0,r5
        0x000044ea:    e625        %.      B        0x4138 ; tcp_slowtmr + 746
    tcp_close
        0x000044ec:    7e01        .~      LDRB     r1,[r0,#0x18]
        0x000044ee:    2901        .)      CMP      r1,#1
        0x000044f0:    d003        ..      BEQ      0x44fa ; tcp_close + 14
        0x000044f2:    7f81        ..      LDRB     r1,[r0,#0x1e]
        0x000044f4:    f0410110    A...    ORR      r1,r1,#0x10
        0x000044f8:    7781        .w      STRB     r1,[r0,#0x1e]
        0x000044fa:    2101        .!      MOVS     r1,#1
        0x000044fc:    e65d        ].      B        tcp_close_shutdown ; 0x41ba
    tcp_update_rcv_ann_wnd
        0x000044fe:    b570        p.      PUSH     {r4-r6,lr}
        0x00004500:    4604        .F      MOV      r4,r0
        0x00004502:    f8b0c02c    ..,.    LDRH     r12,[r0,#0x2c]
        0x00004506:    6a82        .j      LDR      r2,[r0,#0x28]
        0x00004508:    8ee5        ..      LDRH     r5,[r4,#0x36]
        0x0000450a:    6b00        .k      LDR      r0,[r0,#0x30]
        0x0000450c:    f44f63fa    O..c    MOV      r3,#0x7d0
        0x00004510:    eb02010c    ....    ADD      r1,r2,r12
        0x00004514:    429d        .B      CMP      r5,r3
        0x00004516:    d800        ..      BHI      0x451a ; tcp_update_rcv_ann_wnd + 28
        0x00004518:    462b        +F      MOV      r3,r5
        0x0000451a:    4403        .D      ADD      r3,r3,r0
        0x0000451c:    1acb        ..      SUBS     r3,r1,r3
        0x0000451e:    d403        ..      BMI      0x4528 ; tcp_update_rcv_ann_wnd + 42
        0x00004520:    f8a4c02e    ....    STRH     r12,[r4,#0x2e]
        0x00004524:    1a08        ..      SUBS     r0,r1,r0
        0x00004526:    bd70        p.      POP      {r4-r6,pc}
        0x00004528:    1a11        ..      SUBS     r1,r2,r0
        0x0000452a:    2900        .)      CMP      r1,#0
        0x0000452c:    dd02        ..      BLE      0x4534 ; tcp_update_rcv_ann_wnd + 54
        0x0000452e:    2000        .       MOVS     r0,#0
        0x00004530:    85e0        ..      STRH     r0,[r4,#0x2e]
        0x00004532:    e00d        ..      B        0x4550 ; tcp_update_rcv_ann_wnd + 82
        0x00004534:    1a85        ..      SUBS     r5,r0,r2
        0x00004536:    f5b53f80    ...?    CMP      r5,#0x10000
        0x0000453a:    d308        ..      BCC      0x454e ; tcp_update_rcv_ann_wnd + 80
        0x0000453c:    f2af3350    ..P3    ADR      r3,{pc}-0x34c ; 0x41f0
        0x00004540:    f2402253    @.S"    MOV      r2,#0x253
        0x00004544:    a1ad        ..      ADR      r1,{pc}+0x2b8 ; 0x47fc
        0x00004546:    f2af20fc    ...     ADR      r0,{pc}-0x2fa ; 0x424c
        0x0000454a:    f005f925    ..%.    BL       __0printf$5 ; 0x9798
        0x0000454e:    85e5        ..      STRH     r5,[r4,#0x2e]
        0x00004550:    2000        .       MOVS     r0,#0
        0x00004552:    bd70        p.      POP      {r4-r6,pc}
    tcp_recved
        0x00004554:    b570        p.      PUSH     {r4-r6,lr}
        0x00004556:    4604        .F      MOV      r4,r0
        0x00004558:    7e00        .~      LDRB     r0,[r0,#0x18]
        0x0000455a:    460d        .F      MOV      r5,r1
        0x0000455c:    2801        .(      CMP      r0,#1
        0x0000455e:    d108        ..      BNE      0x4572 ; tcp_recved + 30
        0x00004560:    f2af3374    ..t3    ADR      r3,{pc}-0x370 ; 0x41f0
        0x00004564:    f44f721a    O..r    MOV      r2,#0x268
        0x00004568:    a1ab        ..      ADR      r1,{pc}+0x2b0 ; 0x4818
        0x0000456a:    f2af3020    .. 0    ADR      r0,{pc}-0x31e ; 0x424c
        0x0000456e:    f005f913    ....    BL       __0printf$5 ; 0x9798
        0x00004572:    8da0        ..      LDRH     r0,[r4,#0x2c]
        0x00004574:    f64f71ff    O..q    MOV      r1,#0xffff
        0x00004578:    1a08        ..      SUBS     r0,r1,r0
        0x0000457a:    42a8        .B      CMP      r0,r5
        0x0000457c:    d208        ..      BCS      0x4590 ; tcp_recved + 60
        0x0000457e:    f2af3390    ...3    ADR      r3,{pc}-0x38e ; 0x41f0
        0x00004582:    f240226a    @.j"    MOV      r2,#0x26a
        0x00004586:    a1ae        ..      ADR      r1,{pc}+0x2ba ; 0x4840
        0x00004588:    f2af3040    ..@0    ADR      r0,{pc}-0x33c ; 0x424c
        0x0000458c:    f005f904    ....    BL       __0printf$5 ; 0x9798
        0x00004590:    8da0        ..      LDRH     r0,[r4,#0x2c]
        0x00004592:    f44f617a    O.za    MOV      r1,#0xfa0
        0x00004596:    4428        (D      ADD      r0,r0,r5
        0x00004598:    b280        ..      UXTH     r0,r0
        0x0000459a:    85a0        ..      STRH     r0,[r4,#0x2c]
        0x0000459c:    4288        .B      CMP      r0,r1
        0x0000459e:    d900        ..      BLS      0x45a2 ; tcp_recved + 78
        0x000045a0:    85a1        ..      STRH     r1,[r4,#0x2c]
        0x000045a2:    4620         F      MOV      r0,r4
        0x000045a4:    f7ffffab    ....    BL       tcp_update_rcv_ann_wnd ; 0x44fe
        0x000045a8:    f5b07f7a    ..z.    CMP      r0,#0x3e8
        0x000045ac:    db08        ..      BLT      0x45c0 ; tcp_recved + 108
        0x000045ae:    7fa0        ..      LDRB     r0,[r4,#0x1e]
        0x000045b0:    f0400002    @...    ORR      r0,r0,#2
        0x000045b4:    77a0        .w      STRB     r0,[r4,#0x1e]
        0x000045b6:    4620         F      MOV      r0,r4
        0x000045b8:    e8bd4070    ..p@    POP      {r4-r6,lr}
        0x000045bc:    f002baa1    ....    B.W      tcp_output ; 0x6b02
        0x000045c0:    bd70        p.      POP      {r4-r6,pc}
    tcp_recv_null
        0x000045c2:    b510        ..      PUSH     {r4,lr}
        0x000045c4:    4608        .F      MOV      r0,r1
        0x000045c6:    0014        ..      MOVS     r4,r2
        0x000045c8:    d006        ..      BEQ      0x45d8 ; tcp_recv_null + 22
        0x000045ca:    8921        !.      LDRH     r1,[r4,#8]
        0x000045cc:    f7ffffc2    ....    BL       tcp_recved ; 0x4554
        0x000045d0:    4620         F      MOV      r0,r4
        0x000045d2:    f7fefddb    ....    BL       pbuf_free ; 0x318c
        0x000045d6:    e000        ..      B        0x45da ; tcp_recv_null + 24
        0x000045d8:    b10b        ..      CBZ      r3,0x45de ; tcp_recv_null + 28
        0x000045da:    2000        .       MOVS     r0,#0
        0x000045dc:    bd10        ..      POP      {r4,pc}
        0x000045de:    e8bd4010    ...@    POP      {r4,lr}
        0x000045e2:    e783        ..      B        tcp_close ; 0x44ec
    tcp_process_refused_data
        0x000045e4:    e92d41f0    -..A    PUSH     {r4-r8,lr}
        0x000045e8:    6f45        Eo      LDR      r5,[r0,#0x74]
        0x000045ea:    4604        .F      MOV      r4,r0
        0x000045ec:    2000        .       MOVS     r0,#0
        0x000045ee:    7b6e        n{      LDRB     r6,[r5,#0xd]
        0x000045f0:    6760        `g      STR      r0,[r4,#0x74]
        0x000045f2:    6fe7        .o      LDR      r7,[r4,#0x7c]
        0x000045f4:    b12f        /.      CBZ      r7,0x4602 ; tcp_process_refused_data + 30
        0x000045f6:    2300        .#      MOVS     r3,#0
        0x000045f8:    462a        *F      MOV      r2,r5
        0x000045fa:    4621        !F      MOV      r1,r4
        0x000045fc:    6920         i      LDR      r0,[r4,#0x10]
        0x000045fe:    47b8        .G      BLX      r7
        0x00004600:    e005        ..      B        0x460e ; tcp_process_refused_data + 42
        0x00004602:    2300        .#      MOVS     r3,#0
        0x00004604:    462a        *F      MOV      r2,r5
        0x00004606:    4621        !F      MOV      r1,r4
        0x00004608:    4618        .F      MOV      r0,r3
        0x0000460a:    f7ffffda    ....    BL       tcp_recv_null ; 0x45c2
        0x0000460e:    f06f0709    o...    MVN      r7,#9
        0x00004612:    b128        (.      CBZ      r0,0x4620 ; tcp_process_refused_data + 60
        0x00004614:    300a        .0      ADDS     r0,r0,#0xa
        0x00004616:    d014        ..      BEQ      0x4642 ; tcp_process_refused_data + 94
        0x00004618:    6765        eg      STR      r5,[r4,#0x74]
        0x0000461a:    2000        .       MOVS     r0,#0
        0x0000461c:    e8bd81f0    ....    POP      {r4-r8,pc}
        0x00004620:    06b1        ..      LSLS     r1,r6,#26
        0x00004622:    d5fa        ..      BPL      0x461a ; tcp_process_refused_data + 54
        0x00004624:    8da1        ..      LDRH     r1,[r4,#0x2c]
        0x00004626:    f5b16f7a    ..zo    CMP      r1,#0xfa0
        0x0000462a:    d001        ..      BEQ      0x4630 ; tcp_process_refused_data + 76
        0x0000462c:    1c49        I.      ADDS     r1,r1,#1
        0x0000462e:    85a1        ..      STRH     r1,[r4,#0x2c]
        0x00004630:    6fe5        .o      LDR      r5,[r4,#0x7c]
        0x00004632:    b125        %.      CBZ      r5,0x463e ; tcp_process_refused_data + 90
        0x00004634:    2300        .#      MOVS     r3,#0
        0x00004636:    461a        .F      MOV      r2,r3
        0x00004638:    4621        !F      MOV      r1,r4
        0x0000463a:    6920         i      LDR      r0,[r4,#0x10]
        0x0000463c:    47a8        .G      BLX      r5
        0x0000463e:    300a        .0      ADDS     r0,r0,#0xa
        0x00004640:    d1eb        ..      BNE      0x461a ; tcp_process_refused_data + 54
        0x00004642:    4638        8F      MOV      r0,r7
        0x00004644:    e7ea        ..      B        0x461c ; tcp_process_refused_data + 56
    tcp_fasttmr
        0x00004646:    e92d41f0    -..A    PUSH     {r4-r8,lr}
        0x0000464a:    4e6b        kN      LDR      r6,[pc,#428] ; [0x47f8] = 0x20000094
        0x0000464c:    3e14        .>      SUBS     r6,r6,#0x14
        0x0000464e:    78b0        .x      LDRB     r0,[r6,#2]
        0x00004650:    1c40        @.      ADDS     r0,r0,#1
        0x00004652:    70b0        .p      STRB     r0,[r6,#2]
        0x00004654:    2700        .'      MOVS     r7,#0
        0x00004656:    69b4        .i      LDR      r4,[r6,#0x18]
        0x00004658:    e01e        ..      B        0x4698 ; tcp_fasttmr + 82
        0x0000465a:    f8941021    ..!.    LDRB     r1,[r4,#0x21]
        0x0000465e:    78b0        .x      LDRB     r0,[r6,#2]
        0x00004660:    4281        .B      CMP      r1,r0
        0x00004662:    d019        ..      BEQ      0x4698 ; tcp_fasttmr + 82
        0x00004664:    f8840021    ..!.    STRB     r0,[r4,#0x21]
        0x00004668:    7fa0        ..      LDRB     r0,[r4,#0x1e]
        0x0000466a:    07c1        ..      LSLS     r1,r0,#31
        0x0000466c:    d009        ..      BEQ      0x4682 ; tcp_fasttmr + 60
        0x0000466e:    f0400002    @...    ORR      r0,r0,#2
        0x00004672:    77a0        .w      STRB     r0,[r4,#0x1e]
        0x00004674:    4620         F      MOV      r0,r4
        0x00004676:    f002fa44    ..D.    BL       tcp_output ; 0x6b02
        0x0000467a:    7fa0        ..      LDRB     r0,[r4,#0x1e]
        0x0000467c:    f0200003     ...    BIC      r0,r0,#3
        0x00004680:    77a0        .w      STRB     r0,[r4,#0x1e]
        0x00004682:    68e5        .h      LDR      r5,[r4,#0xc]
        0x00004684:    6f60        `o      LDR      r0,[r4,#0x74]
        0x00004686:    b130        0.      CBZ      r0,0x4696 ; tcp_fasttmr + 80
        0x00004688:    7037        7p      STRB     r7,[r6,#0]
        0x0000468a:    4620         F      MOV      r0,r4
        0x0000468c:    f7ffffaa    ....    BL       tcp_process_refused_data ; 0x45e4
        0x00004690:    7830        0x      LDRB     r0,[r6,#0]
        0x00004692:    2800        .(      CMP      r0,#0
        0x00004694:    d1de        ..      BNE      0x4654 ; tcp_fasttmr + 14
        0x00004696:    462c        ,F      MOV      r4,r5
        0x00004698:    2c00        .,      CMP      r4,#0
        0x0000469a:    d1de        ..      BNE      0x465a ; tcp_fasttmr + 20
        0x0000469c:    e7be        ..      B        0x461c ; tcp_process_refused_data + 56
    tcp_tmr
        0x0000469e:    b510        ..      PUSH     {r4,lr}
        0x000046a0:    f7ffffd1    ....    BL       tcp_fasttmr ; 0x4646
        0x000046a4:    4954        TI      LDR      r1,[pc,#336] ; [0x47f8] = 0x20000094
        0x000046a6:    3914        .9      SUBS     r1,r1,#0x14
        0x000046a8:    7848        Hx      LDRB     r0,[r1,#1]
        0x000046aa:    1c40        @.      ADDS     r0,r0,#1
        0x000046ac:    7048        Hp      STRB     r0,[r1,#1]
        0x000046ae:    07c0        ..      LSLS     r0,r0,#31
        0x000046b0:    d003        ..      BEQ      0x46ba ; tcp_tmr + 28
        0x000046b2:    e8bd4010    ...@    POP      {r4,lr}
        0x000046b6:    f7ffbbca    ....    B        tcp_slowtmr ; 0x3e4e
        0x000046ba:    bd10        ..      POP      {r4,pc}
    tcp_shutdown
        0x000046bc:    b510        ..      PUSH     {r4,lr}
        0x000046be:    4604        .F      MOV      r4,r0
        0x000046c0:    7e00        .~      LDRB     r0,[r0,#0x18]
        0x000046c2:    f06f030c    o...    MVN      r3,#0xc
        0x000046c6:    2801        .(      CMP      r0,#1
        0x000046c8:    d015        ..      BEQ      0x46f6 ; tcp_shutdown + 58
        0x000046ca:    b169        i.      CBZ      r1,0x46e8 ; tcp_shutdown + 44
        0x000046cc:    7fa0        ..      LDRB     r0,[r4,#0x1e]
        0x000046ce:    f0400010    @...    ORR      r0,r0,#0x10
        0x000046d2:    77a0        .w      STRB     r0,[r4,#0x1e]
        0x000046d4:    b10a        ..      CBZ      r2,0x46da ; tcp_shutdown + 30
        0x000046d6:    2101        .!      MOVS     r1,#1
        0x000046d8:    e010        ..      B        0x46fc ; tcp_shutdown + 64
        0x000046da:    6f60        `o      LDR      r0,[r4,#0x74]
        0x000046dc:    b190        ..      CBZ      r0,0x4704 ; tcp_shutdown + 72
        0x000046de:    f7fefd55    ..U.    BL       pbuf_free ; 0x318c
        0x000046e2:    2000        .       MOVS     r0,#0
        0x000046e4:    6760        `g      STR      r0,[r4,#0x74]
        0x000046e6:    e00d        ..      B        0x4704 ; tcp_shutdown + 72
        0x000046e8:    b162        b.      CBZ      r2,0x4704 ; tcp_shutdown + 72
        0x000046ea:    2803        .(      CMP      r0,#3
        0x000046ec:    d005        ..      BEQ      0x46fa ; tcp_shutdown + 62
        0x000046ee:    2804        .(      CMP      r0,#4
        0x000046f0:    d003        ..      BEQ      0x46fa ; tcp_shutdown + 62
        0x000046f2:    2807        .(      CMP      r0,#7
        0x000046f4:    d001        ..      BEQ      0x46fa ; tcp_shutdown + 62
        0x000046f6:    4618        .F      MOV      r0,r3
        0x000046f8:    bd10        ..      POP      {r4,pc}
        0x000046fa:    b2c9        ..      UXTB     r1,r1
        0x000046fc:    4620         F      MOV      r0,r4
        0x000046fe:    e8bd4010    ...@    POP      {r4,lr}
        0x00004702:    e55a        Z.      B        tcp_close_shutdown ; 0x41ba
        0x00004704:    2000        .       MOVS     r0,#0
        0x00004706:    bd10        ..      POP      {r4,pc}
    tcp_abandon
        0x00004708:    e92d47fc    -..G    PUSH     {r2-r10,lr}
        0x0000470c:    4604        .F      MOV      r4,r0
        0x0000470e:    7e00        .~      LDRB     r0,[r0,#0x18]
        0x00004710:    460e        .F      MOV      r6,r1
        0x00004712:    2801        .(      CMP      r0,#1
        0x00004714:    d108        ..      BNE      0x4728 ; tcp_abandon + 32
        0x00004716:    f2af5328    ..(S    ADR      r3,{pc}-0x526 ; 0x41f0
        0x0000471a:    f44f72b7    O..r    MOV      r2,#0x16e
        0x0000471e:    a151        Q.      ADR      r1,{pc}+0x146 ; 0x4864
        0x00004720:    f2af40d8    ...@    ADR      r0,{pc}-0x4d4 ; 0x424c
        0x00004724:    f005f838    ..8.    BL       __0printf$5 ; 0x9798
        0x00004728:    7e20         ~      LDRB     r0,[r4,#0x18]
        0x0000472a:    280a        .(      CMP      r0,#0xa
        0x0000472c:    d030        0.      BEQ      0x4790 ; tcp_abandon + 136
        0x0000472e:    4832        2H      LDR      r0,[pc,#200] ; [0x47f8] = 0x20000094
        0x00004730:    4621        !F      MOV      r1,r4
        0x00004732:    1d00        ..      ADDS     r0,r0,#4
        0x00004734:    f8d49050    ..P.    LDR      r9,[r4,#0x50]
        0x00004738:    f8d48010    ....    LDR      r8,[r4,#0x10]
        0x0000473c:    6aa7        .j      LDR      r7,[r4,#0x28]
        0x0000473e:    f8d45088    ...P    LDR      r5,[r4,#0x88]
        0x00004742:    f7fffcfb    ....    BL       tcp_pcb_remove ; 0x413c
        0x00004746:    492c        ,I      LDR      r1,[pc,#176] ; [0x47f8] = 0x20000094
        0x00004748:    2001        .       MOVS     r0,#1
        0x0000474a:    3914        .9      SUBS     r1,r1,#0x14
        0x0000474c:    7008        .p      STRB     r0,[r1,#0]
        0x0000474e:    6f20         o      LDR      r0,[r4,#0x70]
        0x00004750:    b108        ..      CBZ      r0,0x4756 ; tcp_abandon + 78
        0x00004752:    f7fffb56    ..V.    BL       tcp_segs_free ; 0x3e02
        0x00004756:    6ee0        .n      LDR      r0,[r4,#0x6c]
        0x00004758:    b108        ..      CBZ      r0,0x475e ; tcp_abandon + 86
        0x0000475a:    f7fffb52    ..R.    BL       tcp_segs_free ; 0x3e02
        0x0000475e:    b14e        N.      CBZ      r6,0x4774 ; tcp_abandon + 108
        0x00004760:    8ba3        ..      LDRH     r3,[r4,#0x1c]
        0x00004762:    8b62        b.      LDRH     r2,[r4,#0x1a]
        0x00004764:    e9cd2300    ...#    STRD     r2,r3,[sp,#0]
        0x00004768:    1d23        #.      ADDS     r3,r4,#4
        0x0000476a:    4622        "F      MOV      r2,r4
        0x0000476c:    4639        9F      MOV      r1,r7
        0x0000476e:    4648        HF      MOV      r0,r9
        0x00004770:    f002faa2    ....    BL       tcp_rst ; 0x6cb8
        0x00004774:    4621        !F      MOV      r1,r4
        0x00004776:    2001        .       MOVS     r0,#1
        0x00004778:    f7fefb52    ..R.    BL       memp_free ; 0x2e20
        0x0000477c:    2d00        .-      CMP      r5,#0
        0x0000477e:    d012        ..      BEQ      0x47a6 ; tcp_abandon + 158
        0x00004780:    b002        ..      ADD      sp,sp,#8
        0x00004782:    4640        @F      MOV      r0,r8
        0x00004784:    46ac        .F      MOV      r12,r5
        0x00004786:    e8bd47f0    ...G    POP      {r4-r10,lr}
        0x0000478a:    f06f0109    o...    MVN      r1,#9
        0x0000478e:    4760        `G      BX       r12
        0x00004790:    4819        .H      LDR      r0,[pc,#100] ; [0x47f8] = 0x20000094
        0x00004792:    4621        !F      MOV      r1,r4
        0x00004794:    3008        .0      ADDS     r0,r0,#8
        0x00004796:    f7fffcd1    ....    BL       tcp_pcb_remove ; 0x413c
        0x0000479a:    4621        !F      MOV      r1,r4
        0x0000479c:    e8bd47fc    ...G    POP      {r2-r10,lr}
        0x000047a0:    2001        .       MOVS     r0,#1
        0x000047a2:    f7febb3d    ..=.    B        memp_free ; 0x2e20
        0x000047a6:    e4c7        ..      B        0x4138 ; tcp_slowtmr + 746
    tcp_abort
        0x000047a8:    2101        .!      MOVS     r1,#1
        0x000047aa:    e7ad        ..      B        tcp_abandon ; 0x4708
    tcp_new_port
        0x000047ac:    b5f0        ..      PUSH     {r4-r7,lr}
        0x000047ae:    4e12        .N      LDR      r6,[pc,#72] ; [0x47f8] = 0x20000094
        0x000047b0:    2400        .$      MOVS     r4,#0
        0x000047b2:    4d39        9M      LDR      r5,[pc,#228] ; [0x4898] = 0x9ba8
        0x000047b4:    f64f77ff    O..w    MOV      r7,#0xffff
        0x000047b8:    f44f4c40    O.@L    MOV      r12,#0xc000
        0x000047bc:    3e14        .>      SUBS     r6,r6,#0x14
        0x000047be:    f44f4e80    O..N    MOV      lr,#0x4000
        0x000047c2:    88b0        ..      LDRH     r0,[r6,#4]
        0x000047c4:    1c41        A.      ADDS     r1,r0,#1
        0x000047c6:    80b1        ..      STRH     r1,[r6,#4]
        0x000047c8:    42b8        .B      CMP      r0,r7
        0x000047ca:    d101        ..      BNE      0x47d0 ; tcp_new_port + 36
        0x000047cc:    f8a6c004    ....    STRH     r12,[r6,#4]
        0x000047d0:    88b2        ..      LDRH     r2,[r6,#4]
        0x000047d2:    2100        .!      MOVS     r1,#0
        0x000047d4:    f8550021    U.!.    LDR      r0,[r5,r1,LSL #2]
        0x000047d8:    6800        .h      LDR      r0,[r0,#0]
        0x000047da:    e069        i.      B        0x48b0 ; tcp_new_port + 260
    $d
        0x000047dc:    2d626370    pcb-    DCD    761422704
        0x000047e0:    616c663e    >fla    DCD    1634494014
        0x000047e4:    26207367    gs &    DCD    639660903
        0x000047e8:    5f465420     TF_    DCD    1598444576
        0x000047ec:    4c435852    RXCL    DCD    1279481938
        0x000047f0:    4445534f    OSED    DCD    1145393999
        0x000047f4:    00000000    ....    DCD    0
        0x000047f8:    20000094    ...     DCD    536871060
        0x000047fc:    5f77656e    new_    DCD    1601660270
        0x00004800:    5f766372    rcv_    DCD    1601594226
        0x00004804:    5f6e6e61    ann_    DCD    1601072737
        0x00004808:    20646e77    wnd     DCD    543452791
        0x0000480c:    30203d3c    <= 0    DCD    807419196
        0x00004810:    66666678    xfff    DCD    1717986936
        0x00004814:    00000066    f...    DCD    102
        0x00004818:    276e6f64    don'    DCD    661548900
        0x0000481c:    61632074    t ca    DCD    1633886324
        0x00004820:    74206c6c    ll t    DCD    1948281964
        0x00004824:    725f7063    cp_r    DCD    1918857315
        0x00004828:    65766365    ecve    DCD    1702257509
        0x0000482c:    6f662064    d fo    DCD    1868963940
        0x00004830:    696c2072    r li    DCD    1768693874
        0x00004834:    6e657473    sten    DCD    1852142707
        0x00004838:    6263702d    -pcb    DCD    1650683949
        0x0000483c:    00000073    s...    DCD    115
        0x00004840:    5f706374    tcp_    DCD    1601201012
        0x00004844:    76636572    recv    DCD    1986225522
        0x00004848:    203a6465    ed:     DCD    540697701
        0x0000484c:    206e656c    len     DCD    544105836
        0x00004850:    6c756f77    woul    DCD    1819635575
        0x00004854:    72772064    d wr    DCD    1920409700
        0x00004858:    72207061    ap r    DCD    1914728545
        0x0000485c:    775f7663    cv_w    DCD    2002744931
        0x00004860:    000a646e    nd..    DCD    681070
        0x00004864:    276e6f64    don'    DCD    661548900
        0x00004868:    61632074    t ca    DCD    1633886324
        0x0000486c:    74206c6c    ll t    DCD    1948281964
        0x00004870:    615f7063    cp_a    DCD    1633644643
        0x00004874:    74726f62    bort    DCD    1953656674
        0x00004878:    7063742f    /tcp    DCD    1885565999
        0x0000487c:    6162615f    _aba    DCD    1633837407
        0x00004880:    6e6f646e    ndon    DCD    1852793966
        0x00004884:    726f6620     for    DCD    1919903264
        0x00004888:    73696c20     lis    DCD    1936288800
        0x0000488c:    2d6e6574    ten-    DCD    762209652
        0x00004890:    73626370    pcbs    DCD    1935827824
        0x00004894:    00000000    ....    DCD    0
        0x00004898:    00009ba8    ....    DCD    39848
    $t
        0x0000489c:    8b43        C.      LDRH     r3,[r0,#0x1a]
        0x0000489e:    4293        .B      CMP      r3,r2
        0x000048a0:    d105        ..      BNE      0x48ae ; tcp_new_port + 258
        0x000048a2:    1c64        d.      ADDS     r4,r4,#1
        0x000048a4:    b2a4        ..      UXTH     r4,r4
        0x000048a6:    4574        tE      CMP      r4,lr
        0x000048a8:    d38b        ..      BCC      0x47c2 ; tcp_new_port + 22
        0x000048aa:    2000        .       MOVS     r0,#0
        0x000048ac:    bdf0        ..      POP      {r4-r7,pc}
        0x000048ae:    68c0        .h      LDR      r0,[r0,#0xc]
        0x000048b0:    2800        .(      CMP      r0,#0
        0x000048b2:    d1f3        ..      BNE      0x489c ; tcp_new_port + 240
        0x000048b4:    1c49        I.      ADDS     r1,r1,#1
        0x000048b6:    b2c9        ..      UXTB     r1,r1
        0x000048b8:    2904        .)      CMP      r1,#4
        0x000048ba:    d38b        ..      BCC      0x47d4 ; tcp_new_port + 40
        0x000048bc:    b290        ..      UXTH     r0,r2
        0x000048be:    bdf0        ..      POP      {r4-r7,pc}
    tcp_bind
        0x000048c0:    e92d41f0    -..A    PUSH     {r4-r8,lr}
        0x000048c4:    4605        .F      MOV      r5,r0
        0x000048c6:    7e00        .~      LDRB     r0,[r0,#0x18]
        0x000048c8:    460c        .F      MOV      r4,r1
        0x000048ca:    2604        .&      MOVS     r6,#4
        0x000048cc:    b158        X.      CBZ      r0,0x48e6 ; tcp_bind + 38
        0x000048ce:    f2af63e0    ...c    ADR      r3,{pc}-0x6de ; 0x41f0
        0x000048d2:    f24012b7    @...    MOV      r2,#0x1b7
        0x000048d6:    a1f6        ..      ADR      r1,{pc}+0x3da ; 0x4cb0
        0x000048d8:    f2af6090    ...`    ADR      r0,{pc}-0x68c ; 0x424c
        0x000048dc:    f004ff5c    ..\.    BL       __0printf$5 ; 0x9798
        0x000048e0:    f06f0005    o...    MVN      r0,#5
        0x000048e4:    e69a        ..      B        0x461c ; tcp_process_refused_data + 56
        0x000048e6:    b91a        ..      CBNZ     r2,0x48f0 ; tcp_bind + 48
        0x000048e8:    f7ffff60    ..`.    BL       tcp_new_port ; 0x47ac
        0x000048ec:    0002        ..      MOVS     r2,r0
        0x000048ee:    d005        ..      BEQ      0x48fc ; tcp_bind + 60
        0x000048f0:    4ff9        .O      LDR      r7,[pc,#996] ; [0x4cd8] = 0x9ba8
        0x000048f2:    2100        .!      MOVS     r1,#0
        0x000048f4:    f8570021    W.!.    LDR      r0,[r7,r1,LSL #2]
        0x000048f8:    6800        .h      LDR      r0,[r0,#0]
        0x000048fa:    e014        ..      B        0x4926 ; tcp_bind + 102
        0x000048fc:    f06f0001    o...    MVN      r0,#1
        0x00004900:    e68c        ..      B        0x461c ; tcp_process_refused_data + 56
        0x00004902:    8b43        C.      LDRH     r3,[r0,#0x1a]
        0x00004904:    4293        .B      CMP      r3,r2
        0x00004906:    d10d        ..      BNE      0x4924 ; tcp_bind + 100
        0x00004908:    b148        H.      CBZ      r0,0x491e ; tcp_bind + 94
        0x0000490a:    f8d0c000    ....    LDR      r12,[r0,#0]
        0x0000490e:    f1bc0f00    ....    CMP      r12,#0
        0x00004912:    d004        ..      BEQ      0x491e ; tcp_bind + 94
        0x00004914:    b11c        ..      CBZ      r4,0x491e ; tcp_bind + 94
        0x00004916:    6823        #h      LDR      r3,[r4,#0]
        0x00004918:    b10b        ..      CBZ      r3,0x491e ; tcp_bind + 94
        0x0000491a:    459c        .E      CMP      r12,r3
        0x0000491c:    d102        ..      BNE      0x4924 ; tcp_bind + 100
        0x0000491e:    f06f0007    o...    MVN      r0,#7
        0x00004922:    e67b        {.      B        0x461c ; tcp_process_refused_data + 56
        0x00004924:    68c0        .h      LDR      r0,[r0,#0xc]
        0x00004926:    2800        .(      CMP      r0,#0
        0x00004928:    d1eb        ..      BNE      0x4902 ; tcp_bind + 66
        0x0000492a:    1c49        I.      ADDS     r1,r1,#1
        0x0000492c:    42b1        .B      CMP      r1,r6
        0x0000492e:    dbe1        ..      BLT      0x48f4 ; tcp_bind + 52
        0x00004930:    b114        ..      CBZ      r4,0x4938 ; tcp_bind + 120
        0x00004932:    6820         h      LDR      r0,[r4,#0]
        0x00004934:    b100        ..      CBZ      r0,0x4938 ; tcp_bind + 120
        0x00004936:    6028        (`      STR      r0,[r5,#0]
        0x00004938:    48e8        .H      LDR      r0,[pc,#928] ; [0x4cdc] = 0x20000080
        0x0000493a:    836a        j.      STRH     r2,[r5,#0x1a]
        0x0000493c:    6901        .i      LDR      r1,[r0,#0x10]
        0x0000493e:    60e9        .`      STR      r1,[r5,#0xc]
        0x00004940:    6105        .a      STR      r5,[r0,#0x10]
        0x00004942:    f002fb14    ....    BL       tcp_timer_needed ; 0x6f6e
        0x00004946:    2000        .       MOVS     r0,#0
        0x00004948:    e668        h.      B        0x461c ; tcp_process_refused_data + 56
    tcp_accept_null
        0x0000494a:    f06f0009    o...    MVN      r0,#9
        0x0000494e:    4770        pG      BX       lr
    tcp_listen_with_backlog
        0x00004950:    b570        p.      PUSH     {r4-r6,lr}
        0x00004952:    4604        .F      MOV      r4,r0
        0x00004954:    7e00        .~      LDRB     r0,[r0,#0x18]
        0x00004956:    b150        P.      CBZ      r0,0x496e ; tcp_listen_with_backlog + 30
        0x00004958:    f2af736c    ..ls    ADR      r3,{pc}-0x768 ; 0x41f0
        0x0000495c:    f44f7203    O..r    MOV      r2,#0x20c
        0x00004960:    a1df        ..      ADR      r1,{pc}+0x380 ; 0x4ce0
        0x00004962:    f2af7018    ...p    ADR      r0,{pc}-0x716 ; 0x424c
        0x00004966:    f004ff17    ....    BL       __0printf$5 ; 0x9798
        0x0000496a:    2000        .       MOVS     r0,#0
        0x0000496c:    bd70        p.      POP      {r4-r6,pc}
        0x0000496e:    2002        .       MOVS     r0,#2
        0x00004970:    f7fefa37    ..7.    BL       memp_malloc ; 0x2de2
        0x00004974:    0005        ..      MOVS     r5,r0
        0x00004976:    d0f9        ..      BEQ      0x496c ; tcp_listen_with_backlog + 28
        0x00004978:    6920         i      LDR      r0,[r4,#0x10]
        0x0000497a:    6128        (a      STR      r0,[r5,#0x10]
        0x0000497c:    8b60        `.      LDRH     r0,[r4,#0x1a]
        0x0000497e:    8368        h.      STRH     r0,[r5,#0x1a]
        0x00004980:    2001        .       MOVS     r0,#1
        0x00004982:    7628        (v      STRB     r0,[r5,#0x18]
        0x00004984:    7e60        `~      LDRB     r0,[r4,#0x19]
        0x00004986:    7668        hv      STRB     r0,[r5,#0x19]
        0x00004988:    7a20         z      LDRB     r0,[r4,#8]
        0x0000498a:    f0400002    @...    ORR      r0,r0,#2
        0x0000498e:    7228        (r      STRB     r0,[r5,#8]
        0x00004990:    7aa0        .z      LDRB     r0,[r4,#0xa]
        0x00004992:    72a8        .r      STRB     r0,[r5,#0xa]
        0x00004994:    7a60        `z      LDRB     r0,[r4,#9]
        0x00004996:    7268        hr      STRB     r0,[r5,#9]
        0x00004998:    6820         h      LDR      r0,[r4,#0]
        0x0000499a:    6028        (`      STR      r0,[r5,#0]
        0x0000499c:    8b60        `.      LDRH     r0,[r4,#0x1a]
        0x0000499e:    b180        ..      CBZ      r0,0x49c2 ; tcp_listen_with_backlog + 114
        0x000049a0:    49ce        .I      LDR      r1,[pc,#824] ; [0x4cdc] = 0x20000080
        0x000049a2:    6908        .i      LDR      r0,[r1,#0x10]
        0x000049a4:    42a0        .B      CMP      r0,r4
        0x000049a6:    d102        ..      BNE      0x49ae ; tcp_listen_with_backlog + 94
        0x000049a8:    68c0        .h      LDR      r0,[r0,#0xc]
        0x000049aa:    6108        .a      STR      r0,[r1,#0x10]
        0x000049ac:    e007        ..      B        0x49be ; tcp_listen_with_backlog + 110
        0x000049ae:    6208        .b      STR      r0,[r1,#0x20]
        0x000049b0:    b128        (.      CBZ      r0,0x49be ; tcp_listen_with_backlog + 110
        0x000049b2:    68c0        .h      LDR      r0,[r0,#0xc]
        0x000049b4:    42a0        .B      CMP      r0,r4
        0x000049b6:    d1fa        ..      BNE      0x49ae ; tcp_listen_with_backlog + 94
        0x000049b8:    6a09        .j      LDR      r1,[r1,#0x20]
        0x000049ba:    68e0        .h      LDR      r0,[r4,#0xc]
        0x000049bc:    60c8        .`      STR      r0,[r1,#0xc]
        0x000049be:    2000        .       MOVS     r0,#0
        0x000049c0:    60e0        .`      STR      r0,[r4,#0xc]
        0x000049c2:    4621        !F      MOV      r1,r4
        0x000049c4:    2001        .       MOVS     r0,#1
        0x000049c6:    f7fefa2b    ..+.    BL       memp_free ; 0x2e20
        0x000049ca:    48ce        .H      LDR      r0,[pc,#824] ; [0x4d04] = 0x494b
        0x000049cc:    6168        ha      STR      r0,[r5,#0x14]
        0x000049ce:    48c3        .H      LDR      r0,[pc,#780] ; [0x4cdc] = 0x20000080
        0x000049d0:    3014        .0      ADDS     r0,r0,#0x14
        0x000049d2:    6801        .h      LDR      r1,[r0,#0]
        0x000049d4:    60e9        .`      STR      r1,[r5,#0xc]
        0x000049d6:    6005        .`      STR      r5,[r0,#0]
        0x000049d8:    f002fac9    ....    BL       tcp_timer_needed ; 0x6f6e
        0x000049dc:    4628        (F      MOV      r0,r5
        0x000049de:    bd70        p.      POP      {r4-r6,pc}
    tcp_eff_send_mss
        0x000049e0:    b510        ..      PUSH     {r4,lr}
        0x000049e2:    4604        .F      MOV      r4,r0
        0x000049e4:    4608        .F      MOV      r0,r1
        0x000049e6:    f003f803    ....    BL       ip_route ; 0x79f0
        0x000049ea:    b130        0.      CBZ      r0,0x49fa ; tcp_eff_send_mss + 26
        0x000049ec:    8c80        ..      LDRH     r0,[r0,#0x24]
        0x000049ee:    b120         .      CBZ      r0,0x49fa ; tcp_eff_send_mss + 26
        0x000049f0:    3828        (8      SUBS     r0,r0,#0x28
        0x000049f2:    b280        ..      UXTH     r0,r0
        0x000049f4:    4284        .B      CMP      r4,r0
        0x000049f6:    d300        ..      BCC      0x49fa ; tcp_eff_send_mss + 26
        0x000049f8:    4604        .F      MOV      r4,r0
        0x000049fa:    4620         F      MOV      r0,r4
        0x000049fc:    bd10        ..      POP      {r4,pc}
    tcp_next_iss
        0x000049fe:    49b7        .I      LDR      r1,[pc,#732] ; [0x4cdc] = 0x20000080
        0x00004a00:    e9d10202    ....    LDRD     r0,r2,[r1,#8]
        0x00004a04:    4410        .D      ADD      r0,r0,r2
        0x00004a06:    6088        .`      STR      r0,[r1,#8]
        0x00004a08:    4770        pG      BX       lr
    tcp_connect
        0x00004a0a:    e92d47f0    -..G    PUSH     {r4-r10,lr}
        0x00004a0e:    4604        .F      MOV      r4,r0
        0x00004a10:    7e00        .~      LDRB     r0,[r0,#0x18]
        0x00004a12:    460e        .F      MOV      r6,r1
        0x00004a14:    4698        .F      MOV      r8,r3
        0x00004a16:    b160        `.      CBZ      r0,0x4a32 ; tcp_connect + 40
        0x00004a18:    f6af032c    ..,.    ADR      r3,{pc}-0x828 ; 0x41f0
        0x00004a1c:    f24022b3    @.."    MOV      r2,#0x2b3
        0x00004a20:    a1b9        ..      ADR      r1,{pc}+0x2e8 ; 0x4d08
        0x00004a22:    f2af70d8    ...p    ADR      r0,{pc}-0x7d6 ; 0x424c
        0x00004a26:    f004feb7    ....    BL       __0printf$5 ; 0x9798
        0x00004a2a:    f06f0008    o...    MVN      r0,#8
        0x00004a2e:    e8bd87f0    ....    POP      {r4-r10,pc}
        0x00004a32:    b136        6.      CBZ      r6,0x4a42 ; tcp_connect + 56
        0x00004a34:    6830        0h      LDR      r0,[r6,#0]
        0x00004a36:    6060        ``      STR      r0,[r4,#4]
        0x00004a38:    83a2        ..      STRH     r2,[r4,#0x1c]
        0x00004a3a:    b12c        ,.      CBZ      r4,0x4a48 ; tcp_connect + 62
        0x00004a3c:    6820         h      LDR      r0,[r4,#0]
        0x00004a3e:    b118        ..      CBZ      r0,0x4a48 ; tcp_connect + 62
        0x00004a40:    e008        ..      B        0x4a54 ; tcp_connect + 74
        0x00004a42:    f06f0005    o...    MVN      r0,#5
        0x00004a46:    e7f2        ..      B        0x4a2e ; tcp_connect + 36
        0x00004a48:    1d20         .      ADDS     r0,r4,#4
        0x00004a4a:    f002ffd1    ....    BL       ip_route ; 0x79f0
        0x00004a4e:    b120         .      CBZ      r0,0x4a5a ; tcp_connect + 80
        0x00004a50:    6840        @h      LDR      r0,[r0,#4]
        0x00004a52:    6020         `      STR      r0,[r4,#0]
        0x00004a54:    8b65        e.      LDRH     r5,[r4,#0x1a]
        0x00004a56:    b11d        ..      CBZ      r5,0x4a60 ; tcp_connect + 86
        0x00004a58:    e006        ..      B        0x4a68 ; tcp_connect + 94
        0x00004a5a:    f06f0003    o...    MVN      r0,#3
        0x00004a5e:    e7e6        ..      B        0x4a2e ; tcp_connect + 36
        0x00004a60:    f7fffea4    ....    BL       tcp_new_port ; 0x47ac
        0x00004a64:    8360        `.      STRH     r0,[r4,#0x1a]
        0x00004a66:    b338        8.      CBZ      r0,0x4ab8 ; tcp_connect + 174
        0x00004a68:    f7ffffc9    ....    BL       tcp_next_iss ; 0x49fe
        0x00004a6c:    2700        .'      MOVS     r7,#0
        0x00004a6e:    62a7        .b      STR      r7,[r4,#0x28]
        0x00004a70:    6520         e      STR      r0,[r4,#0x50]
        0x00004a72:    1e40        @.      SUBS     r0,r0,#1
        0x00004a74:    64a0        .d      STR      r0,[r4,#0x48]
        0x00004a76:    65e0        .e      STR      r0,[r4,#0x5c]
        0x00004a78:    f44f607a    O.z`    MOV      r0,#0xfa0
        0x00004a7c:    85a0        ..      STRH     r0,[r4,#0x2c]
        0x00004a7e:    85e0        ..      STRH     r0,[r4,#0x2e]
        0x00004a80:    6327        'c      STR      r7,[r4,#0x30]
        0x00004a82:    f8a40060    ..`.    STRH     r0,[r4,#0x60]
        0x00004a86:    f44f7006    O..p    MOV      r0,#0x218
        0x00004a8a:    86e0        ..      STRH     r0,[r4,#0x36]
        0x00004a8c:    4631        1F      MOV      r1,r6
        0x00004a8e:    f7ffffa7    ....    BL       tcp_eff_send_mss ; 0x49e0
        0x00004a92:    86e0        ..      STRH     r0,[r4,#0x36]
        0x00004a94:    f04f0901    O...    MOV      r9,#1
        0x00004a98:    eb000080    ....    ADD      r0,r0,r0,LSL #2
        0x00004a9c:    f8a4904c    ..L.    STRH     r9,[r4,#0x4c]
        0x00004aa0:    0040        @.      LSLS     r0,r0,#1
        0x00004aa2:    f8a4004e    ..N.    STRH     r0,[r4,#0x4e]
        0x00004aa6:    2102        .!      MOVS     r1,#2
        0x00004aa8:    4620         F      MOV      r0,r4
        0x00004aaa:    f8c48080    ....    STR      r8,[r4,#0x80]
        0x00004aae:    f001fac7    ....    BL       tcp_enqueue_flags ; 0x6040
        0x00004ab2:    0006        ..      MOVS     r6,r0
        0x00004ab4:    d003        ..      BEQ      0x4abe ; tcp_connect + 180
        0x00004ab6:    e026        &.      B        0x4b06 ; tcp_connect + 252
        0x00004ab8:    f06f0001    o...    MVN      r0,#1
        0x00004abc:    e7b7        ..      B        0x4a2e ; tcp_connect + 36
        0x00004abe:    2002        .       MOVS     r0,#2
        0x00004ac0:    f8df8218    ....    LDR      r8,[pc,#536] ; [0x4cdc] = 0x20000080
        0x00004ac4:    7620         v      STRB     r0,[r4,#0x18]
        0x00004ac6:    b195        ..      CBZ      r5,0x4aee ; tcp_connect + 228
        0x00004ac8:    f8d80010    ....    LDR      r0,[r8,#0x10]
        0x00004acc:    42a0        .B      CMP      r0,r4
        0x00004ace:    d103        ..      BNE      0x4ad8 ; tcp_connect + 206
        0x00004ad0:    68c0        .h      LDR      r0,[r0,#0xc]
        0x00004ad2:    f8c80010    ....    STR      r0,[r8,#0x10]
        0x00004ad6:    e009        ..      B        0x4aec ; tcp_connect + 226
        0x00004ad8:    f8c80020    .. .    STR      r0,[r8,#0x20]
        0x00004adc:    b130        0.      CBZ      r0,0x4aec ; tcp_connect + 226
        0x00004ade:    68c0        .h      LDR      r0,[r0,#0xc]
        0x00004ae0:    42a0        .B      CMP      r0,r4
        0x00004ae2:    d1f9        ..      BNE      0x4ad8 ; tcp_connect + 206
        0x00004ae4:    f8d81020    .. .    LDR      r1,[r8,#0x20]
        0x00004ae8:    68e0        .h      LDR      r0,[r4,#0xc]
        0x00004aea:    60c8        .`      STR      r0,[r1,#0xc]
        0x00004aec:    60e7        .`      STR      r7,[r4,#0xc]
        0x00004aee:    f8d80018    ....    LDR      r0,[r8,#0x18]
        0x00004af2:    60e0        .`      STR      r0,[r4,#0xc]
        0x00004af4:    f8c84018    ...@    STR      r4,[r8,#0x18]
        0x00004af8:    f002fa39    ..9.    BL       tcp_timer_needed ; 0x6f6e
        0x00004afc:    f8889000    ....    STRB     r9,[r8,#0]
        0x00004b00:    4620         F      MOV      r0,r4
        0x00004b02:    f001fffe    ....    BL       tcp_output ; 0x6b02
        0x00004b06:    4630        0F      MOV      r0,r6
        0x00004b08:    e791        ..      B        0x4a2e ; tcp_connect + 36
    tcp_setprio
        0x00004b0a:    7641        Av      STRB     r1,[r0,#0x19]
        0x00004b0c:    4770        pG      BX       lr
    tcp_alloc
        0x00004b0e:    e92d41f0    -..A    PUSH     {r4-r8,lr}
        0x00004b12:    4605        .F      MOV      r5,r0
        0x00004b14:    2001        .       MOVS     r0,#1
        0x00004b16:    f7fef964    ..d.    BL       memp_malloc ; 0x2de2
        0x00004b1a:    4f70        pO      LDR      r7,[pc,#448] ; [0x4cdc] = 0x20000080
        0x00004b1c:    0004        ..      MOVS     r4,r0
        0x00004b1e:    d137        7.      BNE      0x4b90 ; tcp_alloc + 130
        0x00004b20:    2300        .#      MOVS     r3,#0
        0x00004b22:    461a        .F      MOV      r2,r3
        0x00004b24:    68fc        .h      LDR      r4,[r7,#0xc]
        0x00004b26:    69f8        .i      LDR      r0,[r7,#0x1c]
        0x00004b28:    e006        ..      B        0x4b38 ; tcp_alloc + 42
        0x00004b2a:    6a41        Aj      LDR      r1,[r0,#0x24]
        0x00004b2c:    1a61        a.      SUBS     r1,r4,r1
        0x00004b2e:    4299        .B      CMP      r1,r3
        0x00004b30:    d301        ..      BCC      0x4b36 ; tcp_alloc + 40
        0x00004b32:    460b        .F      MOV      r3,r1
        0x00004b34:    4602        .F      MOV      r2,r0
        0x00004b36:    68c0        .h      LDR      r0,[r0,#0xc]
        0x00004b38:    2800        .(      CMP      r0,#0
        0x00004b3a:    d1f6        ..      BNE      0x4b2a ; tcp_alloc + 28
        0x00004b3c:    b11a        ..      CBZ      r2,0x4b46 ; tcp_alloc + 56
        0x00004b3e:    2101        .!      MOVS     r1,#1
        0x00004b40:    4610        .F      MOV      r0,r2
        0x00004b42:    f7fffde1    ....    BL       tcp_abandon ; 0x4708
        0x00004b46:    2001        .       MOVS     r0,#1
        0x00004b48:    f7fef94b    ..K.    BL       memp_malloc ; 0x2de2
        0x00004b4c:    0004        ..      MOVS     r4,r0
        0x00004b4e:    d11f        ..      BNE      0x4b90 ; tcp_alloc + 130
        0x00004b50:    267f        .&      MOVS     r6,#0x7f
        0x00004b52:    4623        #F      MOV      r3,r4
        0x00004b54:    f8d7c00c    ....    LDR      r12,[r7,#0xc]
        0x00004b58:    69b8        .i      LDR      r0,[r7,#0x18]
        0x00004b5a:    e00d        ..      B        0x4b78 ; tcp_alloc + 106
        0x00004b5c:    7e41        A~      LDRB     r1,[r0,#0x19]
        0x00004b5e:    42a9        .B      CMP      r1,r5
        0x00004b60:    d809        ..      BHI      0x4b76 ; tcp_alloc + 104
        0x00004b62:    42b1        .B      CMP      r1,r6
        0x00004b64:    d807        ..      BHI      0x4b76 ; tcp_alloc + 104
        0x00004b66:    6a42        Bj      LDR      r2,[r0,#0x24]
        0x00004b68:    ebac0202    ....    SUB      r2,r12,r2
        0x00004b6c:    42a2        .B      CMP      r2,r4
        0x00004b6e:    d302        ..      BCC      0x4b76 ; tcp_alloc + 104
        0x00004b70:    4614        .F      MOV      r4,r2
        0x00004b72:    4603        .F      MOV      r3,r0
        0x00004b74:    460e        .F      MOV      r6,r1
        0x00004b76:    68c0        .h      LDR      r0,[r0,#0xc]
        0x00004b78:    2800        .(      CMP      r0,#0
        0x00004b7a:    d1ef        ..      BNE      0x4b5c ; tcp_alloc + 78
        0x00004b7c:    b11b        ..      CBZ      r3,0x4b86 ; tcp_alloc + 120
        0x00004b7e:    2101        .!      MOVS     r1,#1
        0x00004b80:    4618        .F      MOV      r0,r3
        0x00004b82:    f7fffdc1    ....    BL       tcp_abandon ; 0x4708
        0x00004b86:    2001        .       MOVS     r0,#1
        0x00004b88:    f7fef92b    ..+.    BL       memp_malloc ; 0x2de2
        0x00004b8c:    0004        ..      MOVS     r4,r0
        0x00004b8e:    d039        9.      BEQ      0x4c04 ; tcp_alloc + 246
        0x00004b90:    2194        .!      MOVS     r1,#0x94
        0x00004b92:    f004fda1    ....    BL       __aeabi_memclr ; 0x96d8
        0x00004b96:    f1040408    ....    ADD      r4,r4,#8
        0x00004b9a:    f44f60fa    O..`    MOV      r0,#0x7d0
        0x00004b9e:    7465        et      STRB     r5,[r4,#0x11]
        0x00004ba0:    f8a4005e    ..^.    STRH     r0,[r4,#0x5e]
        0x00004ba4:    f04f0300    O...    MOV      r3,#0
        0x00004ba8:    f8a43060    ..`0    STRH     r3,[r4,#0x60]
        0x00004bac:    f44f607a    O.z`    MOV      r0,#0xfa0
        0x00004bb0:    84a0        ..      STRH     r0,[r4,#0x24]
        0x00004bb2:    84e0        ..      STRH     r0,[r4,#0x26]
        0x00004bb4:    7063        cp      STRB     r3,[r4,#1]
        0x00004bb6:    f04f00ff    O...    MOV      r0,#0xff
        0x00004bba:    70a0        .p      STRB     r0,[r4,#2]
        0x00004bbc:    f44f7006    O..p    MOV      r0,#0x218
        0x00004bc0:    85e0        ..      STRH     r0,[r4,#0x2e]
        0x00004bc2:    f04f0006    O...    MOV      r0,#6
        0x00004bc6:    87a0        ..      STRH     r0,[r4,#0x3c]
        0x00004bc8:    8723        #.      STRH     r3,[r4,#0x38]
        0x00004bca:    8760        `.      STRH     r0,[r4,#0x3a]
        0x00004bcc:    f04f30ff    O..0    MOV      r0,#0xffffffff
        0x00004bd0:    85a0        ..      STRH     r0,[r4,#0x2c]
        0x00004bd2:    f04f0001    O...    MOV      r0,#1
        0x00004bd6:    f8a40044    ..D.    STRH     r0,[r4,#0x44]
        0x00004bda:    f7ffff10    ....    BL       tcp_next_iss ; 0x49fe
        0x00004bde:    6520         e      STR      r0,[r4,#0x50]
        0x00004be0:    64a0        .d      STR      r0,[r4,#0x48]
        0x00004be2:    6420         d      STR      r0,[r4,#0x40]
        0x00004be4:    6560        `e      STR      r0,[r4,#0x54]
        0x00004be6:    68f8        .h      LDR      r0,[r7,#0xc]
        0x00004be8:    61e0        .a      STR      r0,[r4,#0x1c]
        0x00004bea:    78b8        .x      LDRB     r0,[r7,#2]
        0x00004bec:    7660        `v      STRB     r0,[r4,#0x19]
        0x00004bee:    75e3        .u      STRB     r3,[r4,#0x17]
        0x00004bf0:    f2af6031    ..1`    ADR      r0,{pc}-0x62d ; 0x45c3
        0x00004bf4:    6760        `g      STR      r0,[r4,#0x74]
        0x00004bf6:    4850        PH      LDR      r0,[pc,#320] ; [0x4d38] = 0x6ddd00
        0x00004bf8:    f8c40084    ....    STR      r0,[r4,#0x84]
        0x00004bfc:    f884308a    ...0    STRB     r3,[r4,#0x8a]
        0x00004c00:    f1a40408    ....    SUB      r4,r4,#8
        0x00004c04:    4620         F      MOV      r0,r4
        0x00004c06:    e509        ..      B        0x461c ; tcp_process_refused_data + 56
    tcp_new
        0x00004c08:    2040        @       MOVS     r0,#0x40
        0x00004c0a:    e780        ..      B        tcp_alloc ; 0x4b0e
    tcp_arg
        0x00004c0c:    6101        .a      STR      r1,[r0,#0x10]
        0x00004c0e:    4770        pG      BX       lr
    tcp_recv
        0x00004c10:    b570        p.      PUSH     {r4-r6,lr}
        0x00004c12:    4604        .F      MOV      r4,r0
        0x00004c14:    7e00        .~      LDRB     r0,[r0,#0x18]
        0x00004c16:    460d        .F      MOV      r5,r1
        0x00004c18:    2801        .(      CMP      r0,#1
        0x00004c1a:    d108        ..      BNE      0x4c2e ; tcp_recv + 30
        0x00004c1c:    f6af2330    ..0#    ADR      r3,{pc}-0xa2c ; 0x41f0
        0x00004c20:    f2405272    @.rR    MOV      r2,#0x572
        0x00004c24:    a145        E.      ADR      r1,{pc}+0x118 ; 0x4d3c
        0x00004c26:    f6af10dc    ....    ADR      r0,{pc}-0x9da ; 0x424c
        0x00004c2a:    f004fdb5    ....    BL       __0printf$5 ; 0x9798
        0x00004c2e:    67e5        .g      STR      r5,[r4,#0x7c]
        0x00004c30:    bd70        p.      POP      {r4-r6,pc}
    tcp_sent
        0x00004c32:    b570        p.      PUSH     {r4-r6,lr}
        0x00004c34:    4604        .F      MOV      r4,r0
        0x00004c36:    7e00        .~      LDRB     r0,[r0,#0x18]
        0x00004c38:    460d        .F      MOV      r5,r1
        0x00004c3a:    2801        .(      CMP      r0,#1
        0x00004c3c:    d108        ..      BNE      0x4c50 ; tcp_sent + 30
        0x00004c3e:    f6af2350    ..P#    ADR      r3,{pc}-0xa4e ; 0x41f0
        0x00004c42:    f44f62b0    O..b    MOV      r2,#0x580
        0x00004c46:    a147        G.      ADR      r1,{pc}+0x11e ; 0x4d64
        0x00004c48:    f6af2000    ...     ADR      r0,{pc}-0x9fc ; 0x424c
        0x00004c4c:    f004fda4    ....    BL       __0printf$5 ; 0x9798
        0x00004c50:    67a5        .g      STR      r5,[r4,#0x78]
        0x00004c52:    bd70        p.      POP      {r4-r6,pc}
    tcp_err
        0x00004c54:    b570        p.      PUSH     {r4-r6,lr}
        0x00004c56:    4604        .F      MOV      r4,r0
        0x00004c58:    7e00        .~      LDRB     r0,[r0,#0x18]
        0x00004c5a:    460d        .F      MOV      r5,r1
        0x00004c5c:    2801        .(      CMP      r0,#1
        0x00004c5e:    d108        ..      BNE      0x4c72 ; tcp_err + 30
        0x00004c60:    f6af2374    ..t#    ADR      r3,{pc}-0xa70 ; 0x41f0
        0x00004c64:    f240528f    @..R    MOV      r2,#0x58f
        0x00004c68:    a148        H.      ADR      r1,{pc}+0x124 ; 0x4d8c
        0x00004c6a:    f6af2020    ..      ADR      r0,{pc}-0xa1e ; 0x424c
        0x00004c6e:    f004fd93    ....    BL       __0printf$5 ; 0x9798
        0x00004c72:    f8c45088    ...P    STR      r5,[r4,#0x88]
        0x00004c76:    bd70        p.      POP      {r4-r6,pc}
    tcp_accept
        0x00004c78:    6141        Aa      STR      r1,[r0,#0x14]
        0x00004c7a:    4770        pG      BX       lr
    tcp_poll
        0x00004c7c:    b570        p.      PUSH     {r4-r6,lr}
        0x00004c7e:    4604        .F      MOV      r4,r0
        0x00004c80:    7e00        .~      LDRB     r0,[r0,#0x18]
        0x00004c82:    460d        .F      MOV      r5,r1
        0x00004c84:    4616        .F      MOV      r6,r2
        0x00004c86:    2801        .(      CMP      r0,#1
        0x00004c88:    d108        ..      BNE      0x4c9c ; tcp_poll + 32
        0x00004c8a:    f6af239c    ...#    ADR      r3,{pc}-0xa9a ; 0x41f0
        0x00004c8e:    f24052ae    @..R    MOV      r2,#0x5ae
        0x00004c92:    a148        H.      ADR      r1,{pc}+0x122 ; 0x4db4
        0x00004c94:    f6af204c    ..L     ADR      r0,{pc}-0xa48 ; 0x424c
        0x00004c98:    f004fd7e    ..~.    BL       __0printf$5 ; 0x9798
        0x00004c9c:    f1040420    .. .    ADD      r4,r4,#0x20
        0x00004ca0:    6665        ef      STR      r5,[r4,#0x64]
        0x00004ca2:    7026        &p      STRB     r6,[r4,#0]
        0x00004ca4:    bd70        p.      POP      {r4-r6,pc}
    tcp_debug_state_str
        0x00004ca6:    490c        .I      LDR      r1,[pc,#48] ; [0x4cd8] = 0x9ba8
        0x00004ca8:    393c        <9      SUBS     r1,r1,#0x3c
        0x00004caa:    f8510020    Q. .    LDR      r0,[r1,r0,LSL #2]
        0x00004cae:    4770        pG      BX       lr
    $d
        0x00004cb0:    5f706374    tcp_    DCD    1601201012
        0x00004cb4:    646e6962    bind    DCD    1684957538
        0x00004cb8:    6163203a    : ca    DCD    1633886266
        0x00004cbc:    6e6f206e    n on    DCD    1852776558
        0x00004cc0:    6220796c    ly b    DCD    1646295404
        0x00004cc4:    20646e69    ind     DCD    543452777
        0x00004cc8:    73206e69    in s    DCD    1931505257
        0x00004ccc:    65746174    tate    DCD    1702125940
        0x00004cd0:    4f4c4320     CLO    DCD    1330397984
        0x00004cd4:    00444553    SED.    DCD    4474195
        0x00004cd8:    00009ba8    ....    DCD    39848
        0x00004cdc:    20000080    ...     DCD    536871040
        0x00004ce0:    5f706374    tcp_    DCD    1601201012
        0x00004ce4:    7473696c    list    DCD    1953720684
        0x00004ce8:    203a6e65    en:     DCD    540700261
        0x00004cec:    20626370    pcb     DCD    543318896
        0x00004cf0:    65726c61    alre    DCD    1701997665
        0x00004cf4:    20796461    ady     DCD    544826465
        0x00004cf8:    6e6e6f63    conn    DCD    1852731235
        0x00004cfc:    65746365    ecte    DCD    1702126437
        0x00004d00:    00000064    d...    DCD    100
        0x00004d04:    0000494b    KI..    DCD    18763
        0x00004d08:    5f706374    tcp_    DCD    1601201012
        0x00004d0c:    6e6e6f63    conn    DCD    1852731235
        0x00004d10:    3a746365    ect:    DCD    980706149
        0x00004d14:    6e616320     can    DCD    1851876128
        0x00004d18:    6c6e6f20     onl    DCD    1819176736
        0x00004d1c:    6f632079    y co    DCD    1868767353
        0x00004d20:    63656e6e    nnec    DCD    1667591790
        0x00004d24:    72662074    t fr    DCD    1919295604
        0x00004d28:    73206d6f    om s    DCD    1931505007
        0x00004d2c:    65746174    tate    DCD    1702125940
        0x00004d30:    4f4c4320     CLO    DCD    1330397984
        0x00004d34:    00444553    SED.    DCD    4474195
        0x00004d38:    006ddd00    ..m.    DCD    7200000
        0x00004d3c:    61766e69    inva    DCD    1635151465
        0x00004d40:    2064696c    lid     DCD    543451500
        0x00004d44:    6b636f73    sock    DCD    1801678707
        0x00004d48:    73207465    et s    DCD    1931506789
        0x00004d4c:    65746174    tate    DCD    1702125940
        0x00004d50:    726f6620     for    DCD    1919903264
        0x00004d54:    63657220     rec    DCD    1667592736
        0x00004d58:    61632076    v ca    DCD    1633886326
        0x00004d5c:    61626c6c    llba    DCD    1633840236
        0x00004d60:    00006b63    ck..    DCD    27491
        0x00004d64:    61766e69    inva    DCD    1635151465
        0x00004d68:    2064696c    lid     DCD    543451500
        0x00004d6c:    6b636f73    sock    DCD    1801678707
        0x00004d70:    73207465    et s    DCD    1931506789
        0x00004d74:    65746174    tate    DCD    1702125940
        0x00004d78:    726f6620     for    DCD    1919903264
        0x00004d7c:    6e657320     sen    DCD    1852142368
        0x00004d80:    61632074    t ca    DCD    1633886324
        0x00004d84:    61626c6c    llba    DCD    1633840236
        0x00004d88:    00006b63    ck..    DCD    27491
        0x00004d8c:    61766e69    inva    DCD    1635151465
        0x00004d90:    2064696c    lid     DCD    543451500
        0x00004d94:    6b636f73    sock    DCD    1801678707
        0x00004d98:    73207465    et s    DCD    1931506789
        0x00004d9c:    65746174    tate    DCD    1702125940
        0x00004da0:    726f6620     for    DCD    1919903264
        0x00004da4:    72726520     err    DCD    1920099616
        0x00004da8:    6c616320     cal    DCD    1818321696
        0x00004dac:    6361626c    lbac    DCD    1667326572
        0x00004db0:    0000006b    k...    DCD    107
        0x00004db4:    61766e69    inva    DCD    1635151465
        0x00004db8:    2064696c    lid     DCD    543451500
        0x00004dbc:    6b636f73    sock    DCD    1801678707
        0x00004dc0:    73207465    et s    DCD    1931506789
        0x00004dc4:    65746174    tate    DCD    1702125940
        0x00004dc8:    726f6620     for    DCD    1919903264
        0x00004dcc:    6c6f7020     pol    DCD    1819242528
        0x00004dd0:    0000006c    l...    DCD    108
    $t
    .text
    tcp_receive
        0x00004dd4:    e92d47f0    -..G    PUSH     {r4-r10,lr}
        0x00004dd8:    4604        .F      MOV      r4,r0
        0x00004dda:    7e00        .~      LDRB     r0,[r0,#0x18]
        0x00004ddc:    2804        .(      CMP      r0,#4
        0x00004dde:    d206        ..      BCS      0x4dee ; tcp_receive + 26
        0x00004de0:    a3de        ..      ADR      r3,{pc}+0x37c ; 0x515c
        0x00004de2:    f44f7258    O.Xr    MOV      r2,#0x360
        0x00004de6:    a1ea        ..      ADR      r1,{pc}+0x3aa ; 0x5190
        0x00004de8:    a0f0        ..      ADR      r0,{pc}+0x3c4 ; 0x51ac
        0x00004dea:    f004fcd5    ....    BL       __0printf$5 ; 0x9798
        0x00004dee:    4ef9        .N      LDR      r6,[pc,#996] ; [0x51d4] = 0x200000a4
        0x00004df0:    f04f0700    O...    MOV      r7,#0
        0x00004df4:    7830        0x      LDRB     r0,[r6,#0]
        0x00004df6:    06c0        ..      LSLS     r0,r0,#27
        0x00004df8:    d57e        ~.      BPL      0x4ef8 ; tcp_receive + 292
        0x00004dfa:    f8b45060    ..`P    LDRH     r5,[r4,#0x60]
        0x00004dfe:    6da0        .m      LDR      r0,[r4,#0x58]
        0x00004e00:    6d62        bm      LDR      r2,[r4,#0x54]
        0x00004e02:    68f1        .h      LDR      r1,[r6,#0xc]
        0x00004e04:    eb050c00    ....    ADD      r12,r5,r0
        0x00004e08:    1a53        S.      SUBS     r3,r2,r1
        0x00004e0a:    d40b        ..      BMI      0x4e24 ; tcp_receive + 80
        0x00004e0c:    428a        .B      CMP      r2,r1
        0x00004e0e:    d102        ..      BNE      0x4e16 ; tcp_receive + 66
        0x00004e10:    6932        2i      LDR      r2,[r6,#0x10]
        0x00004e12:    1a82        ..      SUBS     r2,r0,r2
        0x00004e14:    d406        ..      BMI      0x4e24 ; tcp_receive + 80
        0x00004e16:    6932        2i      LDR      r2,[r6,#0x10]
        0x00004e18:    4290        .B      CMP      r0,r2
        0x00004e1a:    d117        ..      BNE      0x4e4c ; tcp_receive + 120
        0x00004e1c:    6870        ph      LDR      r0,[r6,#4]
        0x00004e1e:    89c0        ..      LDRH     r0,[r0,#0xe]
        0x00004e20:    42a8        .B      CMP      r0,r5
        0x00004e22:    d913        ..      BLS      0x4e4c ; tcp_receive + 120
        0x00004e24:    6870        ph      LDR      r0,[r6,#4]
        0x00004e26:    89c2        ..      LDRH     r2,[r0,#0xe]
        0x00004e28:    f8a42060    ..`     STRH     r2,[r4,#0x60]
        0x00004e2c:    f8b43062    ..b0    LDRH     r3,[r4,#0x62]
        0x00004e30:    89c0        ..      LDRH     r0,[r0,#0xe]
        0x00004e32:    4283        .B      CMP      r3,r0
        0x00004e34:    d201        ..      BCS      0x4e3a ; tcp_receive + 102
        0x00004e36:    f8a40062    ..b.    STRH     r0,[r4,#0x62]
        0x00004e3a:    6561        ae      STR      r1,[r4,#0x54]
        0x00004e3c:    6930        0i      LDR      r0,[r6,#0x10]
        0x00004e3e:    65a0        .e      STR      r0,[r4,#0x58]
        0x00004e40:    f8940091    ....    LDRB     r0,[r4,#0x91]
        0x00004e44:    b162        b.      CBZ      r2,0x4e60 ; tcp_receive + 140
        0x00004e46:    b108        ..      CBZ      r0,0x4e4c ; tcp_receive + 120
        0x00004e48:    f8847091    ...p    STRB     r7,[r4,#0x91]
        0x00004e4c:    6ca2        .l      LDR      r2,[r4,#0x48]
        0x00004e4e:    6930        0i      LDR      r0,[r6,#0x10]
        0x00004e50:    1a81        ..      SUBS     r1,r0,r2
        0x00004e52:    2900        .)      CMP      r1,#0
        0x00004e54:    dc36        6.      BGT      0x4ec4 ; tcp_receive + 240
        0x00004e56:    f8a47064    ..dp    STRH     r7,[r4,#0x64]
        0x00004e5a:    8871        q.      LDRH     r1,[r6,#2]
        0x00004e5c:    b141        A.      CBZ      r1,0x4e70 ; tcp_receive + 156
        0x00004e5e:    e02e        ..      B        0x4ebe ; tcp_receive + 234
        0x00004e60:    2800        .(      CMP      r0,#0
        0x00004e62:    d1f3        ..      BNE      0x4e4c ; tcp_receive + 120
        0x00004e64:    f8847090    ...p    STRB     r7,[r4,#0x90]
        0x00004e68:    2001        .       MOVS     r0,#1
        0x00004e6a:    f8840091    ....    STRB     r0,[r4,#0x91]
        0x00004e6e:    e7ed        ..      B        0x4e4c ; tcp_receive + 120
        0x00004e70:    f8b43060    ..`0    LDRH     r3,[r4,#0x60]
        0x00004e74:    6da1        .m      LDR      r1,[r4,#0x58]
        0x00004e76:    4419        .D      ADD      r1,r1,r3
        0x00004e78:    4561        aE      CMP      r1,r12
        0x00004e7a:    d120         .      BNE      0x4ebe ; tcp_receive + 234
        0x00004e7c:    f9b41034    ..4.    LDRSH    r1,[r4,#0x34]
        0x00004e80:    2900        .)      CMP      r1,#0
        0x00004e82:    db1c        ..      BLT      0x4ebe ; tcp_receive + 234
        0x00004e84:    4282        .B      CMP      r2,r0
        0x00004e86:    d11a        ..      BNE      0x4ebe ; tcp_receive + 234
        0x00004e88:    f8940047    ..G.    LDRB     r0,[r4,#0x47]
        0x00004e8c:    1c41        A.      ADDS     r1,r0,#1
        0x00004e8e:    b2c9        ..      UXTB     r1,r1
        0x00004e90:    4281        .B      CMP      r1,r0
        0x00004e92:    d901        ..      BLS      0x4e98 ; tcp_receive + 196
        0x00004e94:    f8841047    ..G.    STRB     r1,[r4,#0x47]
        0x00004e98:    f8940047    ..G.    LDRB     r0,[r4,#0x47]
        0x00004e9c:    2803        .(      CMP      r0,#3
        0x00004e9e:    d909        ..      BLS      0x4eb4 ; tcp_receive + 224
        0x00004ea0:    f8b4104c    ..L.    LDRH     r1,[r4,#0x4c]
        0x00004ea4:    8ee0        ..      LDRH     r0,[r4,#0x36]
        0x00004ea6:    4408        .D      ADD      r0,r0,r1
        0x00004ea8:    b280        ..      UXTH     r0,r0
        0x00004eaa:    4288        .B      CMP      r0,r1
        0x00004eac:    d901        ..      BLS      0x4eb2 ; tcp_receive + 222
        0x00004eae:    f8a4004c    ..L.    STRH     r0,[r4,#0x4c]
        0x00004eb2:    e0d7        ..      B        0x5064 ; tcp_receive + 656
        0x00004eb4:    d102        ..      BNE      0x4ebc ; tcp_receive + 232
        0x00004eb6:    4620         F      MOV      r0,r4
        0x00004eb8:    f001ff90    ....    BL       tcp_rexmit_fast ; 0x6ddc
        0x00004ebc:    e0d2        ..      B        0x5064 ; tcp_receive + 656
        0x00004ebe:    f8847047    ..Gp    STRB     r7,[r4,#0x47]
        0x00004ec2:    e0cf        ..      B        0x5064 ; tcp_receive + 656
        0x00004ec4:    1e4a        J.      SUBS     r2,r1,#1
        0x00004ec6:    d47e        ~.      BMI      0x4fc6 ; tcp_receive + 498
        0x00004ec8:    6d22        "m      LDR      r2,[r4,#0x50]
        0x00004eca:    1a82        ..      SUBS     r2,r0,r2
        0x00004ecc:    2a00        .*      CMP      r2,#0
        0x00004ece:    dc7a        z.      BGT      0x4fc6 ; tcp_receive + 498
        0x00004ed0:    7fa2        ..      LDRB     r2,[r4,#0x1e]
        0x00004ed2:    0753        S.      LSLS     r3,r2,#29
        0x00004ed4:    d506        ..      BPL      0x4ee4 ; tcp_receive + 272
        0x00004ed6:    f0220204    "...    BIC      r2,r2,#4
        0x00004eda:    77a2        .w      STRB     r2,[r4,#0x1e]
        0x00004edc:    f8b4204e    ..N     LDRH     r2,[r4,#0x4e]
        0x00004ee0:    f8a4204c    ..L     STRH     r2,[r4,#0x4c]
        0x00004ee4:    f1040428    ..(.    ADD      r4,r4,#0x28
        0x00004ee8:    77a7        .w      STRB     r7,[r4,#0x1e]
        0x00004eea:    8b62        b.      LDRH     r2,[r4,#0x1a]
        0x00004eec:    f9b43018    ...0    LDRSH    r3,[r4,#0x18]
        0x00004ef0:    eb0202e3    ....    ADD      r2,r2,r3,ASR #3
        0x00004ef4:    83a2        ..      STRH     r2,[r4,#0x1c]
        0x00004ef6:    e000        ..      B        0x4efa ; tcp_receive + 294
        0x00004ef8:    e0f0        ..      B        0x50dc ; tcp_receive + 776
        0x00004efa:    87a1        ..      STRH     r1,[r4,#0x3c]
        0x00004efc:    8fe2        ..      LDRH     r2,[r4,#0x3e]
        0x00004efe:    4411        .D      ADD      r1,r1,r2
        0x00004f00:    87e1        ..      STRH     r1,[r4,#0x3e]
        0x00004f02:    77e7        .w      STRB     r7,[r4,#0x1f]
        0x00004f04:    6220         b      STR      r0,[r4,#0x20]
        0x00004f06:    f8140c10    ....    LDRB     r0,[r4,#-0x10]
        0x00004f0a:    f1a40428    ..(.    SUB      r4,r4,#0x28
        0x00004f0e:    2804        .(      CMP      r0,#4
        0x00004f10:    d34b        K.      BCC      0x4faa ; tcp_receive + 470
        0x00004f12:    f8b4004c    ..L.    LDRH     r0,[r4,#0x4c]
        0x00004f16:    f8b4104e    ..N.    LDRH     r1,[r4,#0x4e]
        0x00004f1a:    4288        .B      CMP      r0,r1
        0x00004f1c:    8ee1        ..      LDRH     r1,[r4,#0x36]
        0x00004f1e:    d204        ..      BCS      0x4f2a ; tcp_receive + 342
        0x00004f20:    4401        .D      ADD      r1,r1,r0
        0x00004f22:    b289        ..      UXTH     r1,r1
        0x00004f24:    4281        .B      CMP      r1,r0
        0x00004f26:    d807        ..      BHI      0x4f38 ; tcp_receive + 356
        0x00004f28:    e03f        ?.      B        0x4faa ; tcp_receive + 470
        0x00004f2a:    4349        IC      MULS     r1,r1,r1
        0x00004f2c:    fb91f1f0    ....    SDIV     r1,r1,r0
        0x00004f30:    4401        .D      ADD      r1,r1,r0
        0x00004f32:    b289        ..      UXTH     r1,r1
        0x00004f34:    4288        .B      CMP      r0,r1
        0x00004f36:    d238        8.      BCS      0x4faa ; tcp_receive + 470
        0x00004f38:    f8a4104c    ..L.    STRH     r1,[r4,#0x4c]
        0x00004f3c:    e035        5.      B        0x4faa ; tcp_receive + 470
        0x00004f3e:    6828        (h      LDR      r0,[r5,#0]
        0x00004f40:    6720         g      STR      r0,[r4,#0x70]
        0x00004f42:    6868        hh      LDR      r0,[r5,#4]
        0x00004f44:    f7fefc38    ..8.    BL       pbuf_clen ; 0x37b8
        0x00004f48:    f8b41068    ..h.    LDRH     r1,[r4,#0x68]
        0x00004f4c:    4288        .B      CMP      r0,r1
        0x00004f4e:    d906        ..      BLS      0x4f5e ; tcp_receive + 394
        0x00004f50:    a382        ..      ADR      r3,{pc}+0x20c ; 0x515c
        0x00004f52:    f44f727f    O..r    MOV      r2,#0x3fc
        0x00004f56:    a1a0        ..      ADR      r1,{pc}+0x282 ; 0x51d8
        0x00004f58:    a094        ..      ADR      r0,{pc}+0x254 ; 0x51ac
        0x00004f5a:    f004fc1d    ....    BL       __0printf$5 ; 0x9798
        0x00004f5e:    f8b40064    ..d.    LDRH     r0,[r4,#0x64]
        0x00004f62:    b150        P.      CBZ      r0,0x4f7a ; tcp_receive + 422
        0x00004f64:    6928        (i      LDR      r0,[r5,#0x10]
        0x00004f66:    8980        ..      LDRH     r0,[r0,#0xc]
        0x00004f68:    f7fbfef6    ....    BL       lwip_ntohs ; 0xd58
        0x00004f6c:    07c0        ..      LSLS     r0,r0,#31
        0x00004f6e:    d004        ..      BEQ      0x4f7a ; tcp_receive + 422
        0x00004f70:    f8b40064    ..d.    LDRH     r0,[r4,#0x64]
        0x00004f74:    1e40        @.      SUBS     r0,r0,#1
        0x00004f76:    f8a40064    ..d.    STRH     r0,[r4,#0x64]
        0x00004f7a:    6868        hh      LDR      r0,[r5,#4]
        0x00004f7c:    f7fefc1c    ....    BL       pbuf_clen ; 0x37b8
        0x00004f80:    f8341f68    4.h.    LDRH     r1,[r4,#0x68]!
        0x00004f84:    1a08        ..      SUBS     r0,r1,r0
        0x00004f86:    8020         .      STRH     r0,[r4,#0]
        0x00004f88:    4628        (F      MOV      r0,r5
        0x00004f8a:    f7feff2c    ..,.    BL       tcp_seg_free ; 0x3de6
        0x00004f8e:    f8340968    4.h.    LDRH     r0,[r4],#-0x68
        0x00004f92:    b150        P.      CBZ      r0,0x4faa ; tcp_receive + 470
        0x00004f94:    6f20         o      LDR      r0,[r4,#0x70]
        0x00004f96:    b950        P.      CBNZ     r0,0x4fae ; tcp_receive + 474
        0x00004f98:    6ee0        .n      LDR      r0,[r4,#0x6c]
        0x00004f9a:    bb18        ..      CBNZ     r0,0x4fe4 ; tcp_receive + 528
        0x00004f9c:    a36f        o.      ADR      r3,{pc}+0x1c0 ; 0x515c
        0x00004f9e:    f2404207    @..B    MOV      r2,#0x407
        0x00004fa2:    a197        ..      ADR      r1,{pc}+0x25e ; 0x5200
        0x00004fa4:    a081        ..      ADR      r0,{pc}+0x208 ; 0x51ac
        0x00004fa6:    f004fbf7    ....    BL       __0printf$5 ; 0x9798
        0x00004faa:    6f20         o      LDR      r0,[r4,#0x70]
        0x00004fac:    b1d0        ..      CBZ      r0,0x4fe4 ; tcp_receive + 528
        0x00004fae:    6900        .i      LDR      r0,[r0,#0x10]
        0x00004fb0:    6840        @h      LDR      r0,[r0,#4]
        0x00004fb2:    f7fbfed5    ....    BL       lwip_ntohl ; 0xd60
        0x00004fb6:    4605        .F      MOV      r5,r0
        0x00004fb8:    6f20         o      LDR      r0,[r4,#0x70]
        0x00004fba:    6900        .i      LDR      r0,[r0,#0x10]
        0x00004fbc:    8980        ..      LDRH     r0,[r0,#0xc]
        0x00004fbe:    f7fbfecb    ....    BL       lwip_ntohs ; 0xd58
        0x00004fc2:    0780        ..      LSLS     r0,r0,#30
        0x00004fc4:    e000        ..      B        0x4fc8 ; tcp_receive + 500
        0x00004fc6:    e011        ..      B        0x4fec ; tcp_receive + 536
        0x00004fc8:    d000        ..      BEQ      0x4fcc ; tcp_receive + 504
        0x00004fca:    2001        .       MOVS     r0,#1
        0x00004fcc:    4428        (D      ADD      r0,r0,r5
        0x00004fce:    6f25        %o      LDR      r5,[r4,#0x70]
        0x00004fd0:    8929        ).      LDRH     r1,[r5,#8]
        0x00004fd2:    4408        .D      ADD      r0,r0,r1
        0x00004fd4:    6931        1i      LDR      r1,[r6,#0x10]
        0x00004fd6:    1a40        @.      SUBS     r0,r0,r1
        0x00004fd8:    2800        .(      CMP      r0,#0
        0x00004fda:    ddb0        ..      BLE      0x4f3e ; tcp_receive + 362
        0x00004fdc:    b115        ..      CBZ      r5,0x4fe4 ; tcp_receive + 528
        0x00004fde:    86a7        ..      STRH     r7,[r4,#0x34]
        0x00004fe0:    77e7        .w      STRB     r7,[r4,#0x1f]
        0x00004fe2:    e03f        ?.      B        0x5064 ; tcp_receive + 656
        0x00004fe4:    f04f30ff    O..0    MOV      r0,#0xffffffff
        0x00004fe8:    86a0        ..      STRH     r0,[r4,#0x34]
        0x00004fea:    e7f9        ..      B        0x4fe0 ; tcp_receive + 524
        0x00004fec:    f8a47064    ..dp    STRH     r7,[r4,#0x64]
        0x00004ff0:    e038        8.      B        0x5064 ; tcp_receive + 656
        0x00004ff2:    6828        (h      LDR      r0,[r5,#0]
        0x00004ff4:    66e0        .f      STR      r0,[r4,#0x6c]
        0x00004ff6:    b908        ..      CBNZ     r0,0x4ffc ; tcp_receive + 552
        0x00004ff8:    f8a4706a    ..jp    STRH     r7,[r4,#0x6a]
        0x00004ffc:    6868        hh      LDR      r0,[r5,#4]
        0x00004ffe:    f7fefbdb    ....    BL       pbuf_clen ; 0x37b8
        0x00005002:    f8b41068    ..h.    LDRH     r1,[r4,#0x68]
        0x00005006:    4288        .B      CMP      r0,r1
        0x00005008:    d906        ..      BLS      0x5018 ; tcp_receive + 580
        0x0000500a:    a354        T.      ADR      r3,{pc}+0x152 ; 0x515c
        0x0000500c:    f240422e    @..B    MOV      r2,#0x42e
        0x00005010:    a171        q.      ADR      r1,{pc}+0x1c8 ; 0x51d8
        0x00005012:    a066        f.      ADR      r0,{pc}+0x19a ; 0x51ac
        0x00005014:    f004fbc0    ....    BL       __0printf$5 ; 0x9798
        0x00005018:    f8b40064    ..d.    LDRH     r0,[r4,#0x64]
        0x0000501c:    b150        P.      CBZ      r0,0x5034 ; tcp_receive + 608
        0x0000501e:    6928        (i      LDR      r0,[r5,#0x10]
        0x00005020:    8980        ..      LDRH     r0,[r0,#0xc]
        0x00005022:    f7fbfe99    ....    BL       lwip_ntohs ; 0xd58
        0x00005026:    07c0        ..      LSLS     r0,r0,#31
        0x00005028:    d004        ..      BEQ      0x5034 ; tcp_receive + 608
        0x0000502a:    f8b40064    ..d.    LDRH     r0,[r4,#0x64]
        0x0000502e:    1e40        @.      SUBS     r0,r0,#1
        0x00005030:    f8a40064    ..d.    STRH     r0,[r4,#0x64]
        0x00005034:    6868        hh      LDR      r0,[r5,#4]
        0x00005036:    f7fefbbf    ....    BL       pbuf_clen ; 0x37b8
        0x0000503a:    f8341f68    4.h.    LDRH     r1,[r4,#0x68]!
        0x0000503e:    1a08        ..      SUBS     r0,r1,r0
        0x00005040:    8020         .      STRH     r0,[r4,#0]
        0x00005042:    4628        (F      MOV      r0,r5
        0x00005044:    f7fefecf    ....    BL       tcp_seg_free ; 0x3de6
        0x00005048:    f8340968    4.h.    LDRH     r0,[r4],#-0x68
        0x0000504c:    b150        P.      CBZ      r0,0x5064 ; tcp_receive + 656
        0x0000504e:    6f20         o      LDR      r0,[r4,#0x70]
        0x00005050:    b940        @.      CBNZ     r0,0x5064 ; tcp_receive + 656
        0x00005052:    6ee0        .n      LDR      r0,[r4,#0x6c]
        0x00005054:    b940        @.      CBNZ     r0,0x5068 ; tcp_receive + 660
        0x00005056:    a341        A.      ADR      r3,{pc}+0x106 ; 0x515c
        0x00005058:    f2404237    @.7B    MOV      r2,#0x437
        0x0000505c:    a168        h.      ADR      r1,{pc}+0x1a4 ; 0x5200
        0x0000505e:    a053        S.      ADR      r0,{pc}+0x14e ; 0x51ac
        0x00005060:    f004fb9a    ....    BL       __0printf$5 ; 0x9798
        0x00005064:    6ee0        .n      LDR      r0,[r4,#0x6c]
        0x00005066:    b1b8        ..      CBZ      r0,0x5098 ; tcp_receive + 708
        0x00005068:    6900        .i      LDR      r0,[r0,#0x10]
        0x0000506a:    6840        @h      LDR      r0,[r0,#4]
        0x0000506c:    f7fbfe78    ..x.    BL       lwip_ntohl ; 0xd60
        0x00005070:    4605        .F      MOV      r5,r0
        0x00005072:    6ee0        .n      LDR      r0,[r4,#0x6c]
        0x00005074:    6900        .i      LDR      r0,[r0,#0x10]
        0x00005076:    8980        ..      LDRH     r0,[r0,#0xc]
        0x00005078:    f7fbfe6e    ..n.    BL       lwip_ntohs ; 0xd58
        0x0000507c:    0780        ..      LSLS     r0,r0,#30
        0x0000507e:    d000        ..      BEQ      0x5082 ; tcp_receive + 686
        0x00005080:    2001        .       MOVS     r0,#1
        0x00005082:    4428        (D      ADD      r0,r0,r5
        0x00005084:    6ee5        .n      LDR      r5,[r4,#0x6c]
        0x00005086:    8929        ).      LDRH     r1,[r5,#8]
        0x00005088:    4401        .D      ADD      r1,r1,r0
        0x0000508a:    6930        0i      LDR      r0,[r6,#0x10]
        0x0000508c:    1a41        A.      SUBS     r1,r0,r1
        0x0000508e:    d403        ..      BMI      0x5098 ; tcp_receive + 708
        0x00005090:    6d21        !m      LDR      r1,[r4,#0x50]
        0x00005092:    1a40        @.      SUBS     r0,r0,r1
        0x00005094:    2800        .(      CMP      r0,#0
        0x00005096:    ddac        ..      BLE      0x4ff2 ; tcp_receive + 542
        0x00005098:    6ba0        .k      LDR      r0,[r4,#0x38]
        0x0000509a:    b1f8        ..      CBZ      r0,0x50dc ; tcp_receive + 776
        0x0000509c:    6be1        .k      LDR      r1,[r4,#0x3c]
        0x0000509e:    6932        2i      LDR      r2,[r6,#0x10]
        0x000050a0:    1a89        ..      SUBS     r1,r1,r2
        0x000050a2:    d51b        ..      BPL      0x50dc ; tcp_receive + 776
        0x000050a4:    495e        ^I      LDR      r1,[pc,#376] ; [0x5220] = 0x2000008c
        0x000050a6:    6809        .h      LDR      r1,[r1,#0]
        0x000050a8:    1a08        ..      SUBS     r0,r1,r0
        0x000050aa:    f9b41040    ..@.    LDRSH    r1,[r4,#0x40]
        0x000050ae:    eba000e1    ....    SUB      r0,r0,r1,ASR #3
        0x000050b2:    b200        ..      SXTH     r0,r0
        0x000050b4:    4401        .D      ADD      r1,r1,r0
        0x000050b6:    b209        ..      SXTH     r1,r1
        0x000050b8:    f8a41040    ..@.    STRH     r1,[r4,#0x40]
        0x000050bc:    2800        .(      CMP      r0,#0
        0x000050be:    da01        ..      BGE      0x50c4 ; tcp_receive + 752
        0x000050c0:    4240        @B      RSBS     r0,r0,#0
        0x000050c2:    b200        ..      SXTH     r0,r0
        0x000050c4:    f9b42042    ..B     LDRSH    r2,[r4,#0x42]
        0x000050c8:    eba000a2    ....    SUB      r0,r0,r2,ASR #2
        0x000050cc:    4410        .D      ADD      r0,r0,r2
        0x000050ce:    f8a40042    ..B.    STRH     r0,[r4,#0x42]
        0x000050d2:    eb0000e1    ....    ADD      r0,r0,r1,ASR #3
        0x000050d6:    f8a40044    ..D.    STRH     r0,[r4,#0x44]
        0x000050da:    63a7        .c      STR      r7,[r4,#0x38]
        0x000050dc:    8872        r.      LDRH     r2,[r6,#2]
        0x000050de:    b3d2        ..      CBZ      r2,0x5156 ; tcp_receive + 898
        0x000050e0:    7e20         ~      LDRB     r0,[r4,#0x18]
        0x000050e2:    2807        .(      CMP      r0,#7
        0x000050e4:    d237        7.      BCS      0x5156 ; tcp_receive + 898
        0x000050e6:    6aa0        .j      LDR      r0,[r4,#0x28]
        0x000050e8:    68f1        .h      LDR      r1,[r6,#0xc]
        0x000050ea:    f8df8138    ..8.    LDR      r8,[pc,#312] ; [0x5224] = 0x200071d8
        0x000050ee:    eba00501    ....    SUB      r5,r0,r1
        0x000050f2:    46b1        .F      MOV      r9,r6
        0x000050f4:    1e6b        k.      SUBS     r3,r5,#1
        0x000050f6:    d42f        /.      BMI      0x5158 ; tcp_receive + 900
        0x000050f8:    440a        .D      ADD      r2,r2,r1
        0x000050fa:    1a82        ..      SUBS     r2,r0,r2
        0x000050fc:    1c52        R.      ADDS     r2,r2,#1
        0x000050fe:    2a00        .*      CMP      r2,#0
        0x00005100:    dc2a        *.      BGT      0x5158 ; tcp_receive + 900
        0x00005102:    f8d86004    ...`    LDR      r6,[r8,#4]
        0x00005106:    b936        6.      CBNZ     r6,0x5116 ; tcp_receive + 834
        0x00005108:    a314        ..      ADR      r3,{pc}+0x54 ; 0x515c
        0x0000510a:    f2404296    @..B    MOV      r2,#0x496
        0x0000510e:    a146        F.      ADR      r1,{pc}+0x11a ; 0x5228
        0x00005110:    a026        &.      ADR      r0,{pc}+0x9c ; 0x51ac
        0x00005112:    f004fb41    ..A.    BL       __0printf$5 ; 0x9798
        0x00005116:    f64770ff    G..p    MOV      r0,#0x7fff
        0x0000511a:    4285        .B      CMP      r5,r0
        0x0000511c:    db06        ..      BLT      0x512c ; tcp_receive + 856
        0x0000511e:    a30f        ..      ADR      r3,{pc}+0x3e ; 0x515c
        0x00005120:    f2404297    @..B    MOV      r2,#0x497
        0x00005124:    a144        D.      ADR      r1,{pc}+0x114 ; 0x5238
        0x00005126:    a021        !.      ADR      r0,{pc}+0x86 ; 0x51ac
        0x00005128:    f004fb36    ..6.    BL       __0printf$5 ; 0x9798
        0x0000512c:    f8d80004    ....    LDR      r0,[r8,#4]
        0x00005130:    8941        A.      LDRH     r1,[r0,#0xa]
        0x00005132:    42a9        .B      CMP      r1,r5
        0x00005134:    da11        ..      BGE      0x515a ; tcp_receive + 902
        0x00005136:    8900        ..      LDRH     r0,[r0,#8]
        0x00005138:    42a8        .B      CMP      r0,r5
        0x0000513a:    da06        ..      BGE      0x514a ; tcp_receive + 886
        0x0000513c:    a307        ..      ADR      r3,{pc}+0x20 ; 0x515c
        0x0000513e:    f2404299    @..B    MOV      r2,#0x499
        0x00005142:    a141        A.      ADR      r1,{pc}+0x106 ; 0x5248
        0x00005144:    a019        ..      ADR      r0,{pc}+0x68 ; 0x51ac
        0x00005146:    f004fb27    ..'.    BL       __0printf$5 ; 0x9798
        0x0000514a:    f8d80004    ....    LDR      r0,[r8,#4]
        0x0000514e:    8900        ..      LDRH     r0,[r0,#8]
        0x00005150:    1b40        @.      SUBS     r0,r0,r5
        0x00005152:    b281        ..      UXTH     r1,r0
        0x00005154:    e084        ..      B        0x5260 ; tcp_receive + 1164
        0x00005156:    e14c        L.      B        0x53f2 ; tcp_receive + 1566
        0x00005158:    e0b2        ..      B        0x52c0 ; tcp_receive + 1260
        0x0000515a:    e08f        ..      B        0x527c ; tcp_receive + 1192
    $d
        0x0000515c:    2e5c2e2e    ..\.    DCD    777793070
        0x00005160:    2e2e5c2e    .\..    DCD    774790190
        0x00005164:    6968545c    \Thi    DCD    1768445020
        0x00005168:    61506472    rdPa    DCD    1632658546
        0x0000516c:    5c797472    rty\    DCD    1551463538
        0x00005170:    7069776c    lwip    DCD    1885960044
        0x00005174:    342e312d    -1.4    DCD    875442477
        0x00005178:    735c312e    .1\s    DCD    1935421742
        0x0000517c:    635c6372    rc\c    DCD    1666999154
        0x00005180:    5c65726f    ore\    DCD    1550152303
        0x00005184:    5f706374    tcp_    DCD    1601201012
        0x00005188:    632e6e69    in.c    DCD    1663987305
        0x0000518c:    00000000    ....    DCD    0
        0x00005190:    5f706374    tcp_    DCD    1601201012
        0x00005194:    65636572    rece    DCD    1701012850
        0x00005198:    3a657669    ive:    DCD    979727977
        0x0000519c:    6f727720     wro    DCD    1869772576
        0x000051a0:    7320676e    ng s    DCD    1931503470
        0x000051a4:    65746174    tate    DCD    1702125940
        0x000051a8:    00000000    ....    DCD    0
        0x000051ac:    65737341    Asse    DCD    1702064961
        0x000051b0:    6f697472    rtio    DCD    1869182066
        0x000051b4:    2522206e    n "%    DCD    622993518
        0x000051b8:    66202273    s" f    DCD    1713382003
        0x000051bc:    656c6961    aile    DCD    1701603681
        0x000051c0:    74612064    d at    DCD    1952522340
        0x000051c4:    6e696c20     lin    DCD    1852402720
        0x000051c8:    64252065    e %d    DCD    1680154725
        0x000051cc:    206e6920     in     DCD    544106784
        0x000051d0:    000a7325    %s..    DCD    684837
        0x000051d4:    200000a4    ...     DCD    536871076
        0x000051d8:    2d626370    pcb-    DCD    761422704
        0x000051dc:    646e733e    >snd    DCD    1684960062
        0x000051e0:    6575715f    _que    DCD    1702195551
        0x000051e4:    656c6575    uele    DCD    1701602677
        0x000051e8:    3d3e206e    n >=    DCD    1027481710
        0x000051ec:    75627020     pbu    DCD    1969385504
        0x000051f0:    6c635f66    f_cl    DCD    1818451814
        0x000051f4:    6e286e65    en(n    DCD    1848143461
        0x000051f8:    2d747865    ext-    DCD    762607717
        0x000051fc:    0029703e    >p).    DCD    2715710
        0x00005200:    5f706374    tcp_    DCD    1601201012
        0x00005204:    65636572    rece    DCD    1701012850
        0x00005208:    3a657669    ive:    DCD    979727977
        0x0000520c:    6c617620     val    DCD    1818326560
        0x00005210:    71206469    id q    DCD    1897948265
        0x00005214:    65756575    ueue    DCD    1702192501
        0x00005218:    6e656c20     len    DCD    1852140576
        0x0000521c:    00687467    gth.    DCD    6845543
        0x00005220:    2000008c    ...     DCD    536871052
        0x00005224:    200071d8    .q.     DCD    536900056
        0x00005228:    65736e69    inse    DCD    1702063721
        0x0000522c:    20702e67    g.p     DCD    544222823
        0x00005230:    4e203d21    != N    DCD    1310735649
        0x00005234:    004c4c55    ULL.    DCD    5000277
        0x00005238:    61736e69    insa    DCD    1634954857
        0x0000523c:    6f20656e    ne o    DCD    1864394094
        0x00005240:    65736666    ffse    DCD    1702061670
        0x00005244:    00002174    t!..    DCD    8564
        0x00005248:    66756270    pbuf    DCD    1718968944
        0x0000524c:    6f6f7420     too    DCD    1869575200
        0x00005250:    6f687320     sho    DCD    1869116192
        0x00005254:    00217472    rt!.    DCD    2192498
    $t
        0x00005258:    8131        1.      STRH     r1,[r6,#8]
        0x0000525a:    8177        w.      STRH     r7,[r6,#0xa]
        0x0000525c:    6836        6h      LDR      r6,[r6,#0]
        0x0000525e:    1a2d        -.      SUBS     r5,r5,r0
        0x00005260:    8970        p.      LDRH     r0,[r6,#0xa]
        0x00005262:    42a8        .B      CMP      r0,r5
        0x00005264:    dbf8        ..      BLT      0x5258 ; tcp_receive + 1156
        0x00005266:    4268        hB      RSBS     r0,r5,#0
        0x00005268:    b201        ..      SXTH     r1,r0
        0x0000526a:    4630        0F      MOV      r0,r6
        0x0000526c:    f7fef91e    ....    BL       pbuf_header ; 0x34ac
        0x00005270:    b190        ..      CBZ      r0,0x5298 ; tcp_receive + 1220
        0x00005272:    f2af1318    ....    ADR      r3,{pc}-0x116 ; 0x515c
        0x00005276:    f24042a6    @..B    MOV      r2,#0x4a6
        0x0000527a:    e008        ..      B        0x528e ; tcp_receive + 1210
        0x0000527c:    4269        iB      RSBS     r1,r5,#0
        0x0000527e:    b209        ..      SXTH     r1,r1
        0x00005280:    f7fef914    ....    BL       pbuf_header ; 0x34ac
        0x00005284:    b140        @.      CBZ      r0,0x5298 ; tcp_receive + 1220
        0x00005286:    f2af132c    ..,.    ADR      r3,{pc}-0x12a ; 0x515c
        0x0000528a:    f24042ab    @..B    MOV      r2,#0x4ab
        0x0000528e:    a1fd        ..      ADR      r1,{pc}+0x3f6 ; 0x5684
        0x00005290:    f2af00e8    ....    ADR      r0,{pc}-0xe4 ; 0x51ac
        0x00005294:    f004fa80    ....    BL       __0printf$5 ; 0x9798
        0x00005298:    6aa0        .j      LDR      r0,[r4,#0x28]
        0x0000529a:    f8d9500c    ...P    LDR      r5,[r9,#0xc]
        0x0000529e:    f8b83008    ...0    LDRH     r3,[r8,#8]
        0x000052a2:    eba00505    ....    SUB      r5,r0,r5
        0x000052a6:    eba30305    ....    SUB      r3,r3,r5
        0x000052aa:    f8a83008    ...0    STRH     r3,[r8,#8]
        0x000052ae:    f8c9000c    ....    STR      r0,[r9,#0xc]
        0x000052b2:    f8d81010    ....    LDR      r1,[r8,#0x10]
        0x000052b6:    6048        H`      STR      r0,[r1,#4]
        0x000052b8:    6aa1        .j      LDR      r1,[r4,#0x28]
        0x000052ba:    1a40        @.      SUBS     r0,r0,r1
        0x000052bc:    d507        ..      BPL      0x52ce ; tcp_receive + 1274
        0x000052be:    e093        ..      B        0x53e8 ; tcp_receive + 1556
        0x000052c0:    1a08        ..      SUBS     r0,r1,r0
        0x000052c2:    d504        ..      BPL      0x52ce ; tcp_receive + 1274
        0x000052c4:    7fa0        ..      LDRB     r0,[r4,#0x1e]
        0x000052c6:    f0400002    @...    ORR      r0,r0,#2
        0x000052ca:    77a0        .w      STRB     r0,[r4,#0x1e]
        0x000052cc:    e08c        ..      B        0x53e8 ; tcp_receive + 1556
        0x000052ce:    8da0        ..      LDRH     r0,[r4,#0x2c]
        0x000052d0:    6aa1        .j      LDR      r1,[r4,#0x28]
        0x000052d2:    464e        NF      MOV      r6,r9
        0x000052d4:    180a        ..      ADDS     r2,r1,r0
        0x000052d6:    f8d9000c    ....    LDR      r0,[r9,#0xc]
        0x000052da:    1a82        ..      SUBS     r2,r0,r2
        0x000052dc:    1c52        R.      ADDS     r2,r2,#1
        0x000052de:    2a00        .*      CMP      r2,#0
        0x000052e0:    dc7c        |.      BGT      0x53dc ; tcp_receive + 1544
        0x000052e2:    4281        .B      CMP      r1,r0
        0x000052e4:    d17a        z.      BNE      0x53dc ; tcp_receive + 1544
        0x000052e6:    f8d80010    ....    LDR      r0,[r8,#0x10]
        0x000052ea:    4645        EF      MOV      r5,r8
        0x000052ec:    8980        ..      LDRH     r0,[r0,#0xc]
        0x000052ee:    f7fbfd33    ..3.    BL       lwip_ntohs ; 0xd58
        0x000052f2:    0780        ..      LSLS     r0,r0,#30
        0x000052f4:    d000        ..      BEQ      0x52f8 ; tcp_receive + 1316
        0x000052f6:    2001        .       MOVS     r0,#1
        0x000052f8:    8929        ).      LDRH     r1,[r5,#8]
        0x000052fa:    4408        .D      ADD      r0,r0,r1
        0x000052fc:    b280        ..      UXTH     r0,r0
        0x000052fe:    8070        p.      STRH     r0,[r6,#2]
        0x00005300:    8da1        ..      LDRH     r1,[r4,#0x2c]
        0x00005302:    4281        .B      CMP      r1,r0
        0x00005304:    d23e        >.      BCS      0x5384 ; tcp_receive + 1456
        0x00005306:    6928        (i      LDR      r0,[r5,#0x10]
        0x00005308:    8980        ..      LDRH     r0,[r0,#0xc]
        0x0000530a:    f7fbfd25    ..%.    BL       lwip_ntohs ; 0xd58
        0x0000530e:    07c0        ..      LSLS     r0,r0,#31
        0x00005310:    d00e        ..      BEQ      0x5330 ; tcp_receive + 1372
        0x00005312:    6928        (i      LDR      r0,[r5,#0x10]
        0x00005314:    8980        ..      LDRH     r0,[r0,#0xc]
        0x00005316:    f7fbfd1f    ....    BL       lwip_ntohs ; 0xd58
        0x0000531a:    f000003e    ..>.    AND      r0,r0,#0x3e
        0x0000531e:    f7fbfd19    ....    BL       lwip_htons ; 0xd54
        0x00005322:    4601        .F      MOV      r1,r0
        0x00005324:    6928        (i      LDR      r0,[r5,#0x10]
        0x00005326:    8982        ..      LDRH     r2,[r0,#0xc]
        0x00005328:    f422527c    ".|R    BIC      r2,r2,#0x3f00
        0x0000532c:    4311        .C      ORRS     r1,r1,r2
        0x0000532e:    8181        ..      STRH     r1,[r0,#0xc]
        0x00005330:    8da0        ..      LDRH     r0,[r4,#0x2c]
        0x00005332:    8128        (.      STRH     r0,[r5,#8]
        0x00005334:    6928        (i      LDR      r0,[r5,#0x10]
        0x00005336:    8980        ..      LDRH     r0,[r0,#0xc]
        0x00005338:    f7fbfd0e    ....    BL       lwip_ntohs ; 0xd58
        0x0000533c:    0780        ..      LSLS     r0,r0,#30
        0x0000533e:    d502        ..      BPL      0x5346 ; tcp_receive + 1394
        0x00005340:    8928        (.      LDRH     r0,[r5,#8]
        0x00005342:    1e40        @.      SUBS     r0,r0,#1
        0x00005344:    8128        (.      STRH     r0,[r5,#8]
        0x00005346:    8929        ).      LDRH     r1,[r5,#8]
        0x00005348:    6868        hh      LDR      r0,[r5,#4]
        0x0000534a:    f7fef851    ..Q.    BL       pbuf_realloc ; 0x33f0
        0x0000534e:    6928        (i      LDR      r0,[r5,#0x10]
        0x00005350:    8980        ..      LDRH     r0,[r0,#0xc]
        0x00005352:    f7fbfd01    ....    BL       lwip_ntohs ; 0xd58
        0x00005356:    0780        ..      LSLS     r0,r0,#30
        0x00005358:    d000        ..      BEQ      0x535c ; tcp_receive + 1416
        0x0000535a:    2001        .       MOVS     r0,#1
        0x0000535c:    8929        ).      LDRH     r1,[r5,#8]
        0x0000535e:    4408        .D      ADD      r0,r0,r1
        0x00005360:    b280        ..      UXTH     r0,r0
        0x00005362:    8070        p.      STRH     r0,[r6,#2]
        0x00005364:    8da2        ..      LDRH     r2,[r4,#0x2c]
        0x00005366:    6aa1        .j      LDR      r1,[r4,#0x28]
        0x00005368:    4411        .D      ADD      r1,r1,r2
        0x0000536a:    68f2        .h      LDR      r2,[r6,#0xc]
        0x0000536c:    4410        .D      ADD      r0,r0,r2
        0x0000536e:    1a40        @.      SUBS     r0,r0,r1
        0x00005370:    d008        ..      BEQ      0x5384 ; tcp_receive + 1456
        0x00005372:    f2af2318    ...#    ADR      r3,{pc}-0x216 ; 0x515c
        0x00005376:    f24042d7    @..B    MOV      r2,#0x4d7
        0x0000537a:    a1c7        ..      ADR      r1,{pc}+0x31e ; 0x5698
        0x0000537c:    f2af10d4    ....    ADR      r0,{pc}-0x1d0 ; 0x51ac
        0x00005380:    f004fa0a    ....    BL       __0printf$5 ; 0x9798
        0x00005384:    8870        p.      LDRH     r0,[r6,#2]
        0x00005386:    68f1        .h      LDR      r1,[r6,#0xc]
        0x00005388:    4401        .D      ADD      r1,r1,r0
        0x0000538a:    62a1        .b      STR      r1,[r4,#0x28]
        0x0000538c:    8da1        ..      LDRH     r1,[r4,#0x2c]
        0x0000538e:    4281        .B      CMP      r1,r0
        0x00005390:    d208        ..      BCS      0x53a4 ; tcp_receive + 1488
        0x00005392:    f2af2338    ..8#    ADR      r3,{pc}-0x236 ; 0x515c
        0x00005396:    f2405212    @..R    MOV      r2,#0x512
        0x0000539a:    a1cd        ..      ADR      r1,{pc}+0x336 ; 0x56d0
        0x0000539c:    f2af10f4    ....    ADR      r0,{pc}-0x1f0 ; 0x51ac
        0x000053a0:    f004f9fa    ....    BL       __0printf$5 ; 0x9798
        0x000053a4:    8da0        ..      LDRH     r0,[r4,#0x2c]
        0x000053a6:    8871        q.      LDRH     r1,[r6,#2]
        0x000053a8:    1a40        @.      SUBS     r0,r0,r1
        0x000053aa:    85a0        ..      STRH     r0,[r4,#0x2c]
        0x000053ac:    4620         F      MOV      r0,r4
        0x000053ae:    f7fff8a6    ....    BL       tcp_update_rcv_ann_wnd ; 0x44fe
        0x000053b2:    6868        hh      LDR      r0,[r5,#4]
        0x000053b4:    8901        ..      LDRH     r1,[r0,#8]
        0x000053b6:    b109        ..      CBZ      r1,0x53bc ; tcp_receive + 1512
        0x000053b8:    6170        pa      STR      r0,[r6,#0x14]
        0x000053ba:    606f        o`      STR      r7,[r5,#4]
        0x000053bc:    6928        (i      LDR      r0,[r5,#0x10]
        0x000053be:    8980        ..      LDRH     r0,[r0,#0xc]
        0x000053c0:    f7fbfcca    ....    BL       lwip_ntohs ; 0xd58
        0x000053c4:    07c0        ..      LSLS     r0,r0,#31
        0x000053c6:    d003        ..      BEQ      0x53d0 ; tcp_receive + 1532
        0x000053c8:    7870        px      LDRB     r0,[r6,#1]
        0x000053ca:    f0400020    @. .    ORR      r0,r0,#0x20
        0x000053ce:    7070        pp      STRB     r0,[r6,#1]
        0x000053d0:    7fa0        ..      LDRB     r0,[r4,#0x1e]
        0x000053d2:    07c1        ..      LSLS     r1,r0,#31
        0x000053d4:    d003        ..      BEQ      0x53de ; tcp_receive + 1546
        0x000053d6:    f0200001     ...    BIC      r0,r0,#1
        0x000053da:    e015        ..      B        0x5408 ; tcp_receive + 1588
        0x000053dc:    e004        ..      B        0x53e8 ; tcp_receive + 1556
        0x000053de:    f0400001    @...    ORR      r0,r0,#1
        0x000053e2:    77a0        .w      STRB     r0,[r4,#0x1e]
        0x000053e4:    e8bd87f0    ....    POP      {r4-r10,pc}
        0x000053e8:    4620         F      MOV      r0,r4
        0x000053ea:    e8bd47f0    ...G    POP      {r4-r10,lr}
        0x000053ee:    f001ba34    ..4.    B.W      tcp_send_empty_ack ; 0x685a
        0x000053f2:    6aa0        .j      LDR      r0,[r4,#0x28]
        0x000053f4:    68f1        .h      LDR      r1,[r6,#0xc]
        0x000053f6:    1a0a        ..      SUBS     r2,r1,r0
        0x000053f8:    d405        ..      BMI      0x5406 ; tcp_receive + 1586
        0x000053fa:    8da2        ..      LDRH     r2,[r4,#0x2c]
        0x000053fc:    4410        .D      ADD      r0,r0,r2
        0x000053fe:    1a08        ..      SUBS     r0,r1,r0
        0x00005400:    1c40        @.      ADDS     r0,r0,#1
        0x00005402:    2800        .(      CMP      r0,#0
        0x00005404:    ddee        ..      BLE      0x53e4 ; tcp_receive + 1552
        0x00005406:    7fa0        ..      LDRB     r0,[r4,#0x1e]
        0x00005408:    f0400002    @...    ORR      r0,r0,#2
        0x0000540c:    e7e9        ..      B        0x53e2 ; tcp_receive + 1550
    tcp_parseopt
        0x0000540e:    b570        p.      PUSH     {r4-r6,lr}
        0x00005410:    4eb7        .N      LDR      r6,[pc,#732] ; [0x56f0] = 0x200000a4
        0x00005412:    4605        .F      MOV      r5,r0
        0x00005414:    6870        ph      LDR      r0,[r6,#4]
        0x00005416:    f1000414    ....    ADD      r4,r0,#0x14
        0x0000541a:    8980        ..      LDRH     r0,[r0,#0xc]
        0x0000541c:    f7fbfc9c    ....    BL       lwip_ntohs ; 0xd58
        0x00005420:    2105        .!      MOVS     r1,#5
        0x00005422:    ebb13f10    ...?    CMP      r1,r0,LSR #12
        0x00005426:    d21b        ..      BCS      0x5460 ; tcp_parseopt + 82
        0x00005428:    6870        ph      LDR      r0,[r6,#4]
        0x0000542a:    8980        ..      LDRH     r0,[r0,#0xc]
        0x0000542c:    f7fbfc94    ....    BL       lwip_ntohs ; 0xd58
        0x00005430:    f06f0104    o...    MVN      r1,#4
        0x00005434:    eb013010    ...0    ADD      r0,r1,r0,LSR #12
        0x00005438:    0480        ..      LSLS     r0,r0,#18
        0x0000543a:    0c02        ..      LSRS     r2,r0,#16
        0x0000543c:    2000        .       MOVS     r0,#0
        0x0000543e:    e00d        ..      B        0x545c ; tcp_parseopt + 78
        0x00005440:    5c21        !\      LDRB     r1,[r4,r0]
        0x00005442:    2900        .)      CMP      r1,#0
        0x00005444:    d00c        ..      BEQ      0x5460 ; tcp_parseopt + 82
        0x00005446:    2901        .)      CMP      r1,#1
        0x00005448:    d00b        ..      BEQ      0x5462 ; tcp_parseopt + 84
        0x0000544a:    2902        .)      CMP      r1,#2
        0x0000544c:    eb040100    ....    ADD      r1,r4,r0
        0x00005450:    d009        ..      BEQ      0x5466 ; tcp_parseopt + 88
        0x00005452:    7849        Ix      LDRB     r1,[r1,#1]
        0x00005454:    2900        .)      CMP      r1,#0
        0x00005456:    d003        ..      BEQ      0x5460 ; tcp_parseopt + 82
        0x00005458:    4408        .D      ADD      r0,r0,r1
        0x0000545a:    b280        ..      UXTH     r0,r0
        0x0000545c:    4290        .B      CMP      r0,r2
        0x0000545e:    d3ef        ..      BCC      0x5440 ; tcp_parseopt + 50
        0x00005460:    bd70        p.      POP      {r4-r6,pc}
        0x00005462:    1c40        @.      ADDS     r0,r0,#1
        0x00005464:    e7f9        ..      B        0x545a ; tcp_parseopt + 76
        0x00005466:    784b        Kx      LDRB     r3,[r1,#1]
        0x00005468:    2b04        .+      CMP      r3,#4
        0x0000546a:    d1f9        ..      BNE      0x5460 ; tcp_parseopt + 82
        0x0000546c:    1d00        ..      ADDS     r0,r0,#4
        0x0000546e:    4290        .B      CMP      r0,r2
        0x00005470:    d8f6        ..      BHI      0x5460 ; tcp_parseopt + 82
        0x00005472:    8849        I.      LDRH     r1,[r1,#2]
        0x00005474:    f44f737a    O.zs    MOV      r3,#0x3e8
        0x00005478:    ba49        I.      REV16    r1,r1
        0x0000547a:    4299        .B      CMP      r1,r3
        0x0000547c:    d801        ..      BHI      0x5482 ; tcp_parseopt + 116
        0x0000547e:    b101        ..      CBZ      r1,0x5482 ; tcp_parseopt + 116
        0x00005480:    460b        .F      MOV      r3,r1
        0x00005482:    86eb        ..      STRH     r3,[r5,#0x36]
        0x00005484:    e7e9        ..      B        0x545a ; tcp_parseopt + 76
    tcp_process
        0x00005486:    e92d5ffc    -.._    PUSH     {r2-r12,lr}
        0x0000548a:    4d99        .M      LDR      r5,[pc,#612] ; [0x56f0] = 0x200000a4
        0x0000548c:    4604        .F      MOV      r4,r0
        0x0000548e:    f04f0800    O...    MOV      r8,#0
        0x00005492:    7828        (x      LDRB     r0,[r5,#0]
        0x00005494:    0741        A.      LSLS     r1,r0,#29
        0x00005496:    d527        '.      BPL      0x54e8 ; tcp_process + 98
        0x00005498:    7e22        "~      LDRB     r2,[r4,#0x18]
        0x0000549a:    2a02        .*      CMP      r2,#2
        0x0000549c:    d00a        ..      BEQ      0x54b4 ; tcp_process + 46
        0x0000549e:    6aa0        .j      LDR      r0,[r4,#0x28]
        0x000054a0:    68e9        .h      LDR      r1,[r5,#0xc]
        0x000054a2:    1a0b        ..      SUBS     r3,r1,r0
        0x000054a4:    d40a        ..      BMI      0x54bc ; tcp_process + 54
        0x000054a6:    8da3        ..      LDRH     r3,[r4,#0x2c]
        0x000054a8:    4418        .D      ADD      r0,r0,r3
        0x000054aa:    1a08        ..      SUBS     r0,r1,r0
        0x000054ac:    2800        .(      CMP      r0,#0
        0x000054ae:    dc05        ..      BGT      0x54bc ; tcp_process + 54
        0x000054b0:    b12a        *.      CBZ      r2,0x54be ; tcp_process + 56
        0x000054b2:    e00d        ..      B        0x54d0 ; tcp_process + 74
        0x000054b4:    6d20         m      LDR      r0,[r4,#0x50]
        0x000054b6:    6929        )i      LDR      r1,[r5,#0x10]
        0x000054b8:    4288        .B      CMP      r0,r1
        0x000054ba:    d009        ..      BEQ      0x54d0 ; tcp_process + 74
        0x000054bc:    e20c        ..      B        0x58d8 ; tcp_process + 1106
        0x000054be:    f2af3364    ..d3    ADR      r3,{pc}-0x362 ; 0x515c
        0x000054c2:    f2402257    @.W"    MOV      r2,#0x257
        0x000054c6:    a18b        ..      ADR      r1,{pc}+0x22e ; 0x56f4
        0x000054c8:    f2af3020    .. 0    ADR      r0,{pc}-0x31c ; 0x51ac
        0x000054cc:    f004f964    ..d.    BL       __0printf$5 ; 0x9798
        0x000054d0:    7868        hx      LDRB     r0,[r5,#1]
        0x000054d2:    f0400008    @...    ORR      r0,r0,#8
        0x000054d6:    7068        hp      STRB     r0,[r5,#1]
        0x000054d8:    7fa0        ..      LDRB     r0,[r4,#0x1e]
        0x000054da:    f0200001     ...    BIC      r0,r0,#1
        0x000054de:    77a0        .w      STRB     r0,[r4,#0x1e]
        0x000054e0:    f06f000a    o...    MVN      r0,#0xa
        0x000054e4:    e8bd9ffc    ....    POP      {r2-r12,pc}
        0x000054e8:    0780        ..      LSLS     r0,r0,#30
        0x000054ea:    d509        ..      BPL      0x5500 ; tcp_process + 122
        0x000054ec:    7e20         ~      LDRB     r0,[r4,#0x18]
        0x000054ee:    2802        .(      CMP      r0,#2
        0x000054f0:    d006        ..      BEQ      0x5500 ; tcp_process + 122
        0x000054f2:    2803        .(      CMP      r0,#3
        0x000054f4:    d004        ..      BEQ      0x5500 ; tcp_process + 122
        0x000054f6:    7fa0        ..      LDRB     r0,[r4,#0x1e]
        0x000054f8:    f0400002    @...    ORR      r0,r0,#2
        0x000054fc:    77a0        .w      STRB     r0,[r4,#0x1e]
        0x000054fe:    e1eb        ..      B        0x58d8 ; tcp_process + 1106
        0x00005500:    7fa0        ..      LDRB     r0,[r4,#0x1e]
        0x00005502:    06c0        ..      LSLS     r0,r0,#27
        0x00005504:    d402        ..      BMI      0x550c ; tcp_process + 134
        0x00005506:    4883        .H      LDR      r0,[pc,#524] ; [0x5714] = 0x2000008c
        0x00005508:    6800        .h      LDR      r0,[r0,#0]
        0x0000550a:    6260        `b      STR      r0,[r4,#0x24]
        0x0000550c:    2000        .       MOVS     r0,#0
        0x0000550e:    f8840092    ....    STRB     r0,[r4,#0x92]
        0x00005512:    4620         F      MOV      r0,r4
        0x00005514:    f7ffff7b    ..{.    BL       tcp_parseopt ; 0x540e
        0x00005518:    7e20         ~      LDRB     r0,[r4,#0x18]
        0x0000551a:    f8dfb1fc    ....    LDR      r11,[pc,#508] ; [0x5718] = 0x20000080
        0x0000551e:    1e80        ..      SUBS     r0,r0,#2
        0x00005520:    f8df91f8    ....    LDR      r9,[pc,#504] ; [0x571c] = 0x2000009c
        0x00005524:    4f7e        ~O      LDR      r7,[pc,#504] ; [0x5720] = 0x20000098
        0x00005526:    4e7f        .N      LDR      r6,[pc,#508] ; [0x5724] = 0x200000a0
        0x00005528:    f04f0a01    O...    MOV      r10,#1
        0x0000552c:    2808        .(      CMP      r0,#8
        0x0000552e:    d27b        {.      BCS      0x5628 ; tcp_process + 418
        0x00005530:    e8dff000    ....    TBB      [pc,r0]
    $d
        0x00005534:    a5a67b04    .{..    DCD    2779151108
        0x00005538:    a2a3a6a4    ....    DCD    2728634020
    $t
        0x0000553c:    7828        (x      LDRB     r0,[r5,#0]
        0x0000553e:    06c1        ..      LSLS     r1,r0,#27
        0x00005540:    d572        r.      BPL      0x5628 ; tcp_process + 418
        0x00005542:    0780        ..      LSLS     r0,r0,#30
        0x00005544:    d564        d.      BPL      0x5610 ; tcp_process + 394
        0x00005546:    6f20         o      LDR      r0,[r4,#0x70]
        0x00005548:    6900        .i      LDR      r0,[r0,#0x10]
        0x0000554a:    6840        @h      LDR      r0,[r0,#4]
        0x0000554c:    f7fbfc08    ....    BL       lwip_ntohl ; 0xd60
        0x00005550:    6929        )i      LDR      r1,[r5,#0x10]
        0x00005552:    1c40        @.      ADDS     r0,r0,#1
        0x00005554:    4288        .B      CMP      r0,r1
        0x00005556:    d158        X.      BNE      0x560a ; tcp_process + 388
        0x00005558:    f1040428    ..(.    ADD      r4,r4,#0x28
        0x0000555c:    8fe0        ..      LDRH     r0,[r4,#0x3e]
        0x0000555e:    f1000001    ....    ADD      r0,r0,#1
        0x00005562:    87e0        ..      STRH     r0,[r4,#0x3e]
        0x00005564:    68e8        .h      LDR      r0,[r5,#0xc]
        0x00005566:    4602        .F      MOV      r2,r0
        0x00005568:    f1000001    ....    ADD      r0,r0,#1
        0x0000556c:    6020         `      STR      r0,[r4,#0]
        0x0000556e:    6221        !b      STR      r1,[r4,#0x20]
        0x00005570:    60a0        .`      STR      r0,[r4,#8]
        0x00005572:    6868        hh      LDR      r0,[r5,#4]
        0x00005574:    f1a20201    ....    SUB      r2,r2,#1
        0x00005578:    89c1        ..      LDRH     r1,[r0,#0xe]
        0x0000557a:    8721        !.      STRH     r1,[r4,#0x38]
        0x0000557c:    89c0        ..      LDRH     r0,[r0,#0xe]
        0x0000557e:    8760        `.      STRH     r0,[r4,#0x3a]
        0x00005580:    f04f0004    O...    MOV      r0,#4
        0x00005584:    62e2        .b      STR      r2,[r4,#0x2c]
        0x00005586:    f8040c10    ....    STRB     r0,[r4,#-0x10]
        0x0000558a:    89e0        ..      LDRH     r0,[r4,#0xe]
        0x0000558c:    f1a40428    ..(.    SUB      r4,r4,#0x28
        0x00005590:    f1040104    ....    ADD      r1,r4,#4
        0x00005594:    f7fffa24    ..$.    BL       tcp_eff_send_mss ; 0x49e0
        0x00005598:    eb000180    ....    ADD      r1,r0,r0,LSL #2
        0x0000559c:    86e0        ..      STRH     r0,[r4,#0x36]
        0x0000559e:    0049        I.      LSLS     r1,r1,#1
        0x000055a0:    f8a4104e    ..N.    STRH     r1,[r4,#0x4e]
        0x000055a4:    f8b4104c    ..L.    LDRH     r1,[r4,#0x4c]
        0x000055a8:    2901        .)      CMP      r1,#1
        0x000055aa:    d100        ..      BNE      0x55ae ; tcp_process + 296
        0x000055ac:    0040        @.      LSLS     r0,r0,#1
        0x000055ae:    f8a4004c    ..L.    STRH     r0,[r4,#0x4c]
        0x000055b2:    f8b40068    ..h.    LDRH     r0,[r4,#0x68]
        0x000055b6:    b940        @.      CBNZ     r0,0x55ca ; tcp_process + 324
        0x000055b8:    f2af4360    ..`C    ADR      r3,{pc}-0x45c ; 0x515c
        0x000055bc:    f44f7223    O.#r    MOV      r2,#0x28c
        0x000055c0:    a159        Y.      ADR      r1,{pc}+0x168 ; 0x5728
        0x000055c2:    f2af4018    ...@    ADR      r0,{pc}-0x416 ; 0x51ac
        0x000055c6:    f004f8e7    ....    BL       __0printf$5 ; 0x9798
        0x000055ca:    f8b40068    ..h.    LDRH     r0,[r4,#0x68]
        0x000055ce:    1e40        @.      SUBS     r0,r0,#1
        0x000055d0:    f8a40068    ..h.    STRH     r0,[r4,#0x68]
        0x000055d4:    6f20         o      LDR      r0,[r4,#0x70]
        0x000055d6:    6801        .h      LDR      r1,[r0,#0]
        0x000055d8:    6721        !g      STR      r1,[r4,#0x70]
        0x000055da:    f7fefc04    ....    BL       tcp_seg_free ; 0x3de6
        0x000055de:    6f20         o      LDR      r0,[r4,#0x70]
        0x000055e0:    b178        x.      CBZ      r0,0x5602 ; tcp_process + 380
        0x000055e2:    2000        .       MOVS     r0,#0
        0x000055e4:    86a0        ..      STRH     r0,[r4,#0x34]
        0x000055e6:    f8840046    ..F.    STRB     r0,[r4,#0x46]
        0x000055ea:    f8d43080    ...0    LDR      r3,[r4,#0x80]
        0x000055ee:    b123        #.      CBZ      r3,0x55fa ; tcp_process + 372
        0x000055f0:    2200        ."      MOVS     r2,#0
        0x000055f2:    4621        !F      MOV      r1,r4
        0x000055f4:    6920         i      LDR      r0,[r4,#0x10]
        0x000055f6:    4798        .G      BLX      r3
        0x000055f8:    4680        .F      MOV      r8,r0
        0x000055fa:    f118080a    ....    ADDS     r8,r8,#0xa
        0x000055fe:    d039        9.      BEQ      0x5674 ; tcp_process + 494
        0x00005600:    e779        y.      B        0x54f6 ; tcp_process + 112
        0x00005602:    f04f30ff    O..0    MOV      r0,#0xffffffff
        0x00005606:    86a0        ..      STRH     r0,[r4,#0x34]
        0x00005608:    e7ef        ..      B        0x55ea ; tcp_process + 356
        0x0000560a:    7828        (x      LDRB     r0,[r5,#0]
        0x0000560c:    06c0        ..      LSLS     r0,r0,#27
        0x0000560e:    d50b        ..      BPL      0x5628 ; tcp_process + 418
        0x00005610:    6868        hh      LDR      r0,[r5,#4]
        0x00005612:    8803        ..      LDRH     r3,[r0,#0]
        0x00005614:    8842        B.      LDRH     r2,[r0,#2]
        0x00005616:    e9cd2300    ...#    STRD     r2,r3,[sp,#0]
        0x0000561a:    8869        i.      LDRH     r1,[r5,#2]
        0x0000561c:    68e8        .h      LDR      r0,[r5,#0xc]
        0x0000561e:    4b48        HK      LDR      r3,[pc,#288] ; [0x5740] = 0x200000d4
        0x00005620:    4401        .D      ADD      r1,r1,r0
        0x00005622:    4a48        HJ      LDR      r2,[pc,#288] ; [0x5744] = 0x200000d8
        0x00005624:    6928        (i      LDR      r0,[r5,#0x10]
        0x00005626:    e0c8        ..      B        0x57ba ; tcp_process + 820
        0x00005628:    e0c9        ..      B        0x57be ; tcp_process + 824
        0x0000562a:    7828        (x      LDRB     r0,[r5,#0]
        0x0000562c:    06c1        ..      LSLS     r1,r0,#27
        0x0000562e:    d522        ".      BPL      0x5676 ; tcp_process + 496
        0x00005630:    6ca1        .l      LDR      r1,[r4,#0x48]
        0x00005632:    6928        (i      LDR      r0,[r5,#0x10]
        0x00005634:    eba00101    ....    SUB      r1,r0,r1
        0x00005638:    1e49        I.      SUBS     r1,r1,#1
        0x0000563a:    d422        ".      BMI      0x5682 ; tcp_process + 508
        0x0000563c:    6d21        !m      LDR      r1,[r4,#0x50]
        0x0000563e:    1a41        A.      SUBS     r1,r0,r1
        0x00005640:    2900        .)      CMP      r1,#0
        0x00005642:    dc1e        ..      BGT      0x5682 ; tcp_process + 508
        0x00005644:    2004        .       MOVS     r0,#4
        0x00005646:    7620         v      STRB     r0,[r4,#0x18]
        0x00005648:    6960        `i      LDR      r0,[r4,#0x14]
        0x0000564a:    b950        P.      CBNZ     r0,0x5662 ; tcp_process + 476
        0x0000564c:    f2af43f4    ...C    ADR      r3,{pc}-0x4f0 ; 0x515c
        0x00005650:    f24022b3    @.."    MOV      r2,#0x2b3
        0x00005654:    a13c        <.      ADR      r1,{pc}+0xf4 ; 0x5748
        0x00005656:    f2af40ac    ...@    ADR      r0,{pc}-0x4aa ; 0x51ac
        0x0000565a:    f004f89d    ....    BL       __0printf$5 ; 0x9798
        0x0000565e:    6960        `i      LDR      r0,[r4,#0x14]
        0x00005660:    b130        0.      CBZ      r0,0x5670 ; tcp_process + 490
        0x00005662:    e9d40304    ....    LDRD     r0,r3,[r4,#0x10]
        0x00005666:    2200        ."      MOVS     r2,#0
        0x00005668:    4621        !F      MOV      r1,r4
        0x0000566a:    4798        .G      BLX      r3
        0x0000566c:    b908        ..      CBNZ     r0,0x5672 ; tcp_process + 492
        0x0000566e:    e07f        ..      B        0x5770 ; tcp_process + 746
        0x00005670:    e074        t.      B        0x575c ; tcp_process + 726
        0x00005672:    e075        u.      B        0x5760 ; tcp_process + 730
        0x00005674:    e079        y.      B        0x576a ; tcp_process + 740
        0x00005676:    e0a3        ..      B        0x57c0 ; tcp_process + 826
        0x00005678:    e120         .      B        0x58bc ; tcp_process + 1078
        0x0000567a:    e0fb        ..      B        0x5874 ; tcp_process + 1006
        0x0000567c:    e0e4        ..      B        0x5848 ; tcp_process + 962
        0x0000567e:    e0ae        ..      B        0x57de ; tcp_process + 856
        0x00005680:    e0a9        ..      B        0x57d6 ; tcp_process + 848
        0x00005682:    e090        ..      B        0x57a6 ; tcp_process + 800
    $d
        0x00005684:    66756270    pbuf    DCD    1718968944
        0x00005688:    6165685f    _hea    DCD    1634035807
        0x0000568c:    20726564    der     DCD    544367972
        0x00005690:    6c696166    fail    DCD    1818845542
        0x00005694:    00006465    ed..    DCD    25701
        0x00005698:    5f706374    tcp_    DCD    1601201012
        0x0000569c:    65636572    rece    DCD    1701012850
        0x000056a0:    3a657669    ive:    DCD    979727977
        0x000056a4:    67657320     seg    DCD    1734701856
        0x000056a8:    746e656d    ment    DCD    1953391981
        0x000056ac:    746f6e20     not    DCD    1953459744
        0x000056b0:    69727420     tri    DCD    1769108512
        0x000056b4:    64656d6d    mmed    DCD    1684368749
        0x000056b8:    726f6320     cor    DCD    1919902496
        0x000056bc:    74636572    rect    DCD    1952671090
        0x000056c0:    7420796c    ly t    DCD    1948285292
        0x000056c4:    6372206f    o rc    DCD    1668423791
        0x000056c8:    6e775f76    v_wn    DCD    1853316982
        0x000056cc:    00000a64    d...    DCD    2660
        0x000056d0:    5f706374    tcp_    DCD    1601201012
        0x000056d4:    65636572    rece    DCD    1701012850
        0x000056d8:    3a657669    ive:    DCD    979727977
        0x000056dc:    70637420     tcp    DCD    1885565984
        0x000056e0:    206e656c    len     DCD    544105836
        0x000056e4:    6372203e    > rc    DCD    1668423742
        0x000056e8:    6e775f76    v_wn    DCD    1853316982
        0x000056ec:    00000a64    d...    DCD    2660
        0x000056f0:    200000a4    ...     DCD    536871076
        0x000056f4:    5f706374    tcp_    DCD    1601201012
        0x000056f8:    75706e69    inpu    DCD    1970302569
        0x000056fc:    70203a74    t: p    DCD    1881160308
        0x00005700:    3e2d6263    cb->    DCD    1043161699
        0x00005704:    74617473    stat    DCD    1952543859
        0x00005708:    3d212065    e !=    DCD    1025581157
        0x0000570c:    4f4c4320     CLO    DCD    1330397984
        0x00005710:    00444553    SED.    DCD    4474195
        0x00005714:    2000008c    ...     DCD    536871052
        0x00005718:    20000080    ...     DCD    536871040
        0x0000571c:    2000009c    ...     DCD    536871068
        0x00005720:    20000098    ...     DCD    536871064
        0x00005724:    200000a0    ...     DCD    536871072
        0x00005728:    2d626370    pcb-    DCD    761422704
        0x0000572c:    646e733e    >snd    DCD    1684960062
        0x00005730:    6575715f    _que    DCD    1702195551
        0x00005734:    656c6575    uele    DCD    1701602677
        0x00005738:    203e206e    n >     DCD    540942446
        0x0000573c:    00000030    0...    DCD    48
        0x00005740:    200000d4    ...     DCD    536871124
        0x00005744:    200000d8    ...     DCD    536871128
        0x00005748:    2d626370    pcb-    DCD    761422704
        0x0000574c:    6363613e    >acc    DCD    1667457342
        0x00005750:    20747065    ept     DCD    544501861
        0x00005754:    4e203d21    != N    DCD    1310735649
        0x00005758:    004c4c55    ULL.    DCD    5000277
    $t
        0x0000575c:    f06f000d    o...    MVN      r0,#0xd
        0x00005760:    300a        .0      ADDS     r0,r0,#0xa
        0x00005762:    d002        ..      BEQ      0x576a ; tcp_process + 740
        0x00005764:    4620         F      MOV      r0,r4
        0x00005766:    f7fff81f    ....    BL       tcp_abort ; 0x47a8
        0x0000576a:    f06f0009    o...    MVN      r0,#9
        0x0000576e:    e6b9        ..      B        0x54e4 ; tcp_process + 94
        0x00005770:    f8b4604c    ..L`    LDRH     r6,[r4,#0x4c]
        0x00005774:    4620         F      MOV      r0,r4
        0x00005776:    f7fffb2d    ..-.    BL       tcp_receive ; 0x4dd4
        0x0000577a:    f8b40064    ..d.    LDRH     r0,[r4,#0x64]
        0x0000577e:    b110        ..      CBZ      r0,0x5786 ; tcp_process + 768
        0x00005780:    1e40        @.      SUBS     r0,r0,#1
        0x00005782:    f8a40064    ..d.    STRH     r0,[r4,#0x64]
        0x00005786:    8ee0        ..      LDRH     r0,[r4,#0x36]
        0x00005788:    2e01        ..      CMP      r6,#1
        0x0000578a:    d101        ..      BNE      0x5790 ; tcp_process + 778
        0x0000578c:    ea4f0040    O.@.    LSL      r0,r0,#1
        0x00005790:    f8a4004c    ..L.    STRH     r0,[r4,#0x4c]
        0x00005794:    7868        hx      LDRB     r0,[r5,#1]
        0x00005796:    0680        ..      LSLS     r0,r0,#26
        0x00005798:    d511        ..      BPL      0x57be ; tcp_process + 824
        0x0000579a:    7fa0        ..      LDRB     r0,[r4,#0x1e]
        0x0000579c:    f0400002    @...    ORR      r0,r0,#2
        0x000057a0:    77a0        .w      STRB     r0,[r4,#0x1e]
        0x000057a2:    2007        .       MOVS     r0,#7
        0x000057a4:    e04e        N.      B        0x5844 ; tcp_process + 958
        0x000057a6:    6869        ih      LDR      r1,[r5,#4]
        0x000057a8:    880b        ..      LDRH     r3,[r1,#0]
        0x000057aa:    884a        J.      LDRH     r2,[r1,#2]
        0x000057ac:    e9cd2300    ...#    STRD     r2,r3,[sp,#0]
        0x000057b0:    886a        j.      LDRH     r2,[r5,#2]
        0x000057b2:    68e9        .h      LDR      r1,[r5,#0xc]
        0x000057b4:    4bf9        .K      LDR      r3,[pc,#996] ; [0x5b9c] = 0x200000d4
        0x000057b6:    4411        .D      ADD      r1,r1,r2
        0x000057b8:    4af9        .J      LDR      r2,[pc,#996] ; [0x5ba0] = 0x200000d8
        0x000057ba:    f001fa7d    ..}.    BL       tcp_rst ; 0x6cb8
        0x000057be:    e08b        ..      B        0x58d8 ; tcp_process + 1106
        0x000057c0:    0780        ..      LSLS     r0,r0,#30
        0x000057c2:    d507        ..      BPL      0x57d4 ; tcp_process + 846
        0x000057c4:    6aa0        .j      LDR      r0,[r4,#0x28]
        0x000057c6:    68e9        .h      LDR      r1,[r5,#0xc]
        0x000057c8:    1e40        @.      SUBS     r0,r0,#1
        0x000057ca:    4288        .B      CMP      r0,r1
        0x000057cc:    d102        ..      BNE      0x57d4 ; tcp_process + 846
        0x000057ce:    4620         F      MOV      r0,r4
        0x000057d0:    f001fada    ....    BL       tcp_rexmit ; 0x6d88
        0x000057d4:    e080        ..      B        0x58d8 ; tcp_process + 1106
        0x000057d6:    4620         F      MOV      r0,r4
        0x000057d8:    f7fffafc    ....    BL       tcp_receive ; 0x4dd4
        0x000057dc:    e7da        ..      B        0x5794 ; tcp_process + 782
        0x000057de:    4620         F      MOV      r0,r4
        0x000057e0:    f7fffaf8    ....    BL       tcp_receive ; 0x4dd4
        0x000057e4:    7868        hx      LDRB     r0,[r5,#1]
        0x000057e6:    0680        ..      LSLS     r0,r0,#26
        0x000057e8:    2800        .(      CMP      r0,#0
        0x000057ea:    7828        (x      LDRB     r0,[r5,#0]
        0x000057ec:    ea4f60c0    O..`    LSL      r0,r0,#27
        0x000057f0:    da21        !.      BGE      0x5836 ; tcp_process + 944
        0x000057f2:    2800        .(      CMP      r0,#0
        0x000057f4:    da19        ..      BGE      0x582a ; tcp_process + 932
        0x000057f6:    6d20         m      LDR      r0,[r4,#0x50]
        0x000057f8:    6929        )i      LDR      r1,[r5,#0x10]
        0x000057fa:    4288        .B      CMP      r0,r1
        0x000057fc:    d115        ..      BNE      0x582a ; tcp_process + 932
        0x000057fe:    7fa0        ..      LDRB     r0,[r4,#0x1e]
        0x00005800:    f0400002    @...    ORR      r0,r0,#2
        0x00005804:    77a0        .w      STRB     r0,[r4,#0x1e]
        0x00005806:    4620         F      MOV      r0,r4
        0x00005808:    f7fefb04    ....    BL       tcp_pcb_purge ; 0x3e14
        0x0000580c:    6838        8h      LDR      r0,[r7,#0]
        0x0000580e:    42a0        .B      CMP      r0,r4
        0x00005810:    d102        ..      BNE      0x5818 ; tcp_process + 914
        0x00005812:    68c0        .h      LDR      r0,[r0,#0xc]
        0x00005814:    6038        8`      STR      r0,[r7,#0]
        0x00005816:    e045        E.      B        0x58a4 ; tcp_process + 1054
        0x00005818:    6030        0`      STR      r0,[r6,#0]
        0x0000581a:    b3f0        ..      CBZ      r0,0x589a ; tcp_process + 1044
        0x0000581c:    68c0        .h      LDR      r0,[r0,#0xc]
        0x0000581e:    42a0        .B      CMP      r0,r4
        0x00005820:    d1fa        ..      BNE      0x5818 ; tcp_process + 914
        0x00005822:    6831        1h      LDR      r1,[r6,#0]
        0x00005824:    68e0        .h      LDR      r0,[r4,#0xc]
        0x00005826:    60c8        .`      STR      r0,[r1,#0xc]
        0x00005828:    e03c        <.      B        0x58a4 ; tcp_process + 1054
        0x0000582a:    7fa0        ..      LDRB     r0,[r4,#0x1e]
        0x0000582c:    f0400002    @...    ORR      r0,r0,#2
        0x00005830:    77a0        .w      STRB     r0,[r4,#0x1e]
        0x00005832:    2008        .       MOVS     r0,#8
        0x00005834:    e006        ..      B        0x5844 ; tcp_process + 958
        0x00005836:    2800        .(      CMP      r0,#0
        0x00005838:    da4e        N.      BGE      0x58d8 ; tcp_process + 1106
        0x0000583a:    6d20         m      LDR      r0,[r4,#0x50]
        0x0000583c:    6929        )i      LDR      r1,[r5,#0x10]
        0x0000583e:    4288        .B      CMP      r0,r1
        0x00005840:    d14a        J.      BNE      0x58d8 ; tcp_process + 1106
        0x00005842:    2006        .       MOVS     r0,#6
        0x00005844:    7620         v      STRB     r0,[r4,#0x18]
        0x00005846:    e047        G.      B        0x58d8 ; tcp_process + 1106
        0x00005848:    4620         F      MOV      r0,r4
        0x0000584a:    f7fffac3    ....    BL       tcp_receive ; 0x4dd4
        0x0000584e:    7868        hx      LDRB     r0,[r5,#1]
        0x00005850:    0680        ..      LSLS     r0,r0,#26
        0x00005852:    d541        A.      BPL      0x58d8 ; tcp_process + 1106
        0x00005854:    7fa0        ..      LDRB     r0,[r4,#0x1e]
        0x00005856:    f0400002    @...    ORR      r0,r0,#2
        0x0000585a:    77a0        .w      STRB     r0,[r4,#0x1e]
        0x0000585c:    4620         F      MOV      r0,r4
        0x0000585e:    f7fefad9    ....    BL       tcp_pcb_purge ; 0x3e14
        0x00005862:    6838        8h      LDR      r0,[r7,#0]
        0x00005864:    42a0        .B      CMP      r0,r4
        0x00005866:    d0d4        ..      BEQ      0x5812 ; tcp_process + 908
        0x00005868:    6030        0`      STR      r0,[r6,#0]
        0x0000586a:    b1b0        ..      CBZ      r0,0x589a ; tcp_process + 1044
        0x0000586c:    68c0        .h      LDR      r0,[r0,#0xc]
        0x0000586e:    42a0        .B      CMP      r0,r4
        0x00005870:    d1fa        ..      BNE      0x5868 ; tcp_process + 994
        0x00005872:    e7d6        ..      B        0x5822 ; tcp_process + 924
        0x00005874:    4620         F      MOV      r0,r4
        0x00005876:    f7fffaad    ....    BL       tcp_receive ; 0x4dd4
        0x0000587a:    7828        (x      LDRB     r0,[r5,#0]
        0x0000587c:    06c0        ..      LSLS     r0,r0,#27
        0x0000587e:    d52b        +.      BPL      0x58d8 ; tcp_process + 1106
        0x00005880:    6d20         m      LDR      r0,[r4,#0x50]
        0x00005882:    6929        )i      LDR      r1,[r5,#0x10]
        0x00005884:    4288        .B      CMP      r0,r1
        0x00005886:    d127        '.      BNE      0x58d8 ; tcp_process + 1106
        0x00005888:    4620         F      MOV      r0,r4
        0x0000588a:    f7fefac3    ....    BL       tcp_pcb_purge ; 0x3e14
        0x0000588e:    6838        8h      LDR      r0,[r7,#0]
        0x00005890:    42a0        .B      CMP      r0,r4
        0x00005892:    d0be        ..      BEQ      0x5812 ; tcp_process + 908
        0x00005894:    6030        0`      STR      r0,[r6,#0]
        0x00005896:    b100        ..      CBZ      r0,0x589a ; tcp_process + 1044
        0x00005898:    e000        ..      B        0x589c ; tcp_process + 1046
        0x0000589a:    e003        ..      B        0x58a4 ; tcp_process + 1054
        0x0000589c:    68c0        .h      LDR      r0,[r0,#0xc]
        0x0000589e:    42a0        .B      CMP      r0,r4
        0x000058a0:    d1f8        ..      BNE      0x5894 ; tcp_process + 1038
        0x000058a2:    e7be        ..      B        0x5822 ; tcp_process + 924
        0x000058a4:    f88ba000    ....    STRB     r10,[r11,#0]
        0x000058a8:    200a        .       MOVS     r0,#0xa
        0x000058aa:    7620         v      STRB     r0,[r4,#0x18]
        0x000058ac:    f8d91000    ....    LDR      r1,[r9,#0]
        0x000058b0:    60e1        .`      STR      r1,[r4,#0xc]
        0x000058b2:    f8c94000    ...@    STR      r4,[r9,#0]
        0x000058b6:    f001fb5a    ..Z.    BL       tcp_timer_needed ; 0x6f6e
        0x000058ba:    e00d        ..      B        0x58d8 ; tcp_process + 1106
        0x000058bc:    4620         F      MOV      r0,r4
        0x000058be:    f7fffa89    ....    BL       tcp_receive ; 0x4dd4
        0x000058c2:    7828        (x      LDRB     r0,[r5,#0]
        0x000058c4:    06c0        ..      LSLS     r0,r0,#27
        0x000058c6:    d507        ..      BPL      0x58d8 ; tcp_process + 1106
        0x000058c8:    6d20         m      LDR      r0,[r4,#0x50]
        0x000058ca:    6929        )i      LDR      r1,[r5,#0x10]
        0x000058cc:    4288        .B      CMP      r0,r1
        0x000058ce:    d103        ..      BNE      0x58d8 ; tcp_process + 1106
        0x000058d0:    7868        hx      LDRB     r0,[r5,#1]
        0x000058d2:    f0400010    @...    ORR      r0,r0,#0x10
        0x000058d6:    7068        hp      STRB     r0,[r5,#1]
        0x000058d8:    2000        .       MOVS     r0,#0
        0x000058da:    e603        ..      B        0x54e4 ; tcp_process + 94
    tcp_listen_input
        0x000058dc:    b57c        |.      PUSH     {r2-r6,lr}
        0x000058de:    4eb1        .N      LDR      r6,[pc,#708] ; [0x5ba4] = 0x200000a4
        0x000058e0:    4605        .F      MOV      r5,r0
        0x000058e2:    7830        0x      LDRB     r0,[r6,#0]
        0x000058e4:    0741        A.      LSLS     r1,r0,#29
        0x000058e6:    d45f        _.      BMI      0x59a8 ; tcp_listen_input + 204
        0x000058e8:    06c1        ..      LSLS     r1,r0,#27
        0x000058ea:    d50d        ..      BPL      0x5908 ; tcp_listen_input + 44
        0x000058ec:    6870        ph      LDR      r0,[r6,#4]
        0x000058ee:    8803        ..      LDRH     r3,[r0,#0]
        0x000058f0:    8842        B.      LDRH     r2,[r0,#2]
        0x000058f2:    e9cd2300    ...#    STRD     r2,r3,[sp,#0]
        0x000058f6:    8871        q.      LDRH     r1,[r6,#2]
        0x000058f8:    68f0        .h      LDR      r0,[r6,#0xc]
        0x000058fa:    4ba8        .K      LDR      r3,[pc,#672] ; [0x5b9c] = 0x200000d4
        0x000058fc:    4401        .D      ADD      r1,r1,r0
        0x000058fe:    4aa8        .J      LDR      r2,[pc,#672] ; [0x5ba0] = 0x200000d8
        0x00005900:    6930        0i      LDR      r0,[r6,#0x10]
        0x00005902:    f001f9d9    ....    BL       tcp_rst ; 0x6cb8
        0x00005906:    e04f        O.      B        0x59a8 ; tcp_listen_input + 204
        0x00005908:    0780        ..      LSLS     r0,r0,#30
        0x0000590a:    d54d        M.      BPL      0x59a8 ; tcp_listen_input + 204
        0x0000590c:    7e68        h~      LDRB     r0,[r5,#0x19]
        0x0000590e:    f7fff8fe    ....    BL       tcp_alloc ; 0x4b0e
        0x00005912:    0004        ..      MOVS     r4,r0
        0x00005914:    d040        @.      BEQ      0x5998 ; tcp_listen_input + 188
        0x00005916:    48a2        .H      LDR      r0,[pc,#648] ; [0x5ba0] = 0x200000d8
        0x00005918:    6800        .h      LDR      r0,[r0,#0]
        0x0000591a:    6020         `      STR      r0,[r4,#0]
        0x0000591c:    8b68        h.      LDRH     r0,[r5,#0x1a]
        0x0000591e:    8360        `.      STRH     r0,[r4,#0x1a]
        0x00005920:    489e        .H      LDR      r0,[pc,#632] ; [0x5b9c] = 0x200000d4
        0x00005922:    6800        .h      LDR      r0,[r0,#0]
        0x00005924:    6060        ``      STR      r0,[r4,#4]
        0x00005926:    6870        ph      LDR      r0,[r6,#4]
        0x00005928:    8801        ..      LDRH     r1,[r0,#0]
        0x0000592a:    83a1        ..      STRH     r1,[r4,#0x1c]
        0x0000592c:    2103        .!      MOVS     r1,#3
        0x0000592e:    7621        !v      STRB     r1,[r4,#0x18]
        0x00005930:    68f1        .h      LDR      r1,[r6,#0xc]
        0x00005932:    460a        .F      MOV      r2,r1
        0x00005934:    1c49        I.      ADDS     r1,r1,#1
        0x00005936:    62a1        .b      STR      r1,[r4,#0x28]
        0x00005938:    6321        !c      STR      r1,[r4,#0x30]
        0x0000593a:    89c1        ..      LDRH     r1,[r0,#0xe]
        0x0000593c:    f8a41060    ..`.    STRH     r1,[r4,#0x60]
        0x00005940:    89c0        ..      LDRH     r0,[r0,#0xe]
        0x00005942:    f8a40062    ..b.    STRH     r0,[r4,#0x62]
        0x00005946:    f8a4104e    ..N.    STRH     r1,[r4,#0x4e]
        0x0000594a:    1e52        R.      SUBS     r2,r2,#1
        0x0000594c:    6562        be      STR      r2,[r4,#0x54]
        0x0000594e:    6928        (i      LDR      r0,[r5,#0x10]
        0x00005950:    6120         a      STR      r0,[r4,#0x10]
        0x00005952:    6968        hi      LDR      r0,[r5,#0x14]
        0x00005954:    6160        `a      STR      r0,[r4,#0x14]
        0x00005956:    7a28        (z      LDRB     r0,[r5,#8]
        0x00005958:    f000008c    ....    AND      r0,r0,#0x8c
        0x0000595c:    7220         r      STRB     r0,[r4,#8]
        0x0000595e:    4892        .H      LDR      r0,[pc,#584] ; [0x5ba8] = 0x20000098
        0x00005960:    6801        .h      LDR      r1,[r0,#0]
        0x00005962:    60e1        .`      STR      r1,[r4,#0xc]
        0x00005964:    6004        .`      STR      r4,[r0,#0]
        0x00005966:    f001fb02    ....    BL       tcp_timer_needed ; 0x6f6e
        0x0000596a:    4990        .I      LDR      r1,[pc,#576] ; [0x5bac] = 0x20000080
        0x0000596c:    2001        .       MOVS     r0,#1
        0x0000596e:    7008        .p      STRB     r0,[r1,#0]
        0x00005970:    4620         F      MOV      r0,r4
        0x00005972:    f7fffd4c    ..L.    BL       tcp_parseopt ; 0x540e
        0x00005976:    8ee0        ..      LDRH     r0,[r4,#0x36]
        0x00005978:    1d21        !.      ADDS     r1,r4,#4
        0x0000597a:    f7fff831    ..1.    BL       tcp_eff_send_mss ; 0x49e0
        0x0000597e:    86e0        ..      STRH     r0,[r4,#0x36]
        0x00005980:    2112        .!      MOVS     r1,#0x12
        0x00005982:    4620         F      MOV      r0,r4
        0x00005984:    f000fb5c    ..\.    BL       tcp_enqueue_flags ; 0x6040
        0x00005988:    0005        ..      MOVS     r5,r0
        0x0000598a:    d008        ..      BEQ      0x599e ; tcp_listen_input + 194
        0x0000598c:    2100        .!      MOVS     r1,#0
        0x0000598e:    4620         F      MOV      r0,r4
        0x00005990:    f7fefeba    ....    BL       tcp_abandon ; 0x4708
        0x00005994:    4628        (F      MOV      r0,r5
        0x00005996:    bd7c        |.      POP      {r2-r6,pc}
        0x00005998:    f04f30ff    O..0    MOV      r0,#0xffffffff
        0x0000599c:    bd7c        |.      POP      {r2-r6,pc}
        0x0000599e:    4620         F      MOV      r0,r4
        0x000059a0:    e8bd407c    ..|@    POP      {r2-r6,lr}
        0x000059a4:    f001b8ad    ....    B.W      tcp_output ; 0x6b02
        0x000059a8:    2000        .       MOVS     r0,#0
        0x000059aa:    bd7c        |.      POP      {r2-r6,pc}
    tcp_input
        0x000059ac:    e92d5ffc    -.._    PUSH     {r2-r12,lr}
        0x000059b0:    4605        .F      MOV      r5,r0
        0x000059b2:    f8df81f0    ....    LDR      r8,[pc,#496] ; [0x5ba4] = 0x200000a4
        0x000059b6:    6840        @h      LDR      r0,[r0,#4]
        0x000059b8:    460c        .F      MOV      r4,r1
        0x000059ba:    f8c80008    ....    STR      r0,[r8,#8]
        0x000059be:    7801        .x      LDRB     r1,[r0,#0]
        0x000059c0:    f001010f    ....    AND      r1,r1,#0xf
        0x000059c4:    eb000081    ....    ADD      r0,r0,r1,LSL #2
        0x000059c8:    f8c80004    ....    STR      r0,[r8,#4]
        0x000059cc:    0088        ..      LSLS     r0,r1,#2
        0x000059ce:    4241        AB      RSBS     r1,r0,#0
        0x000059d0:    4628        (F      MOV      r0,r5
        0x000059d2:    f7fdfd6b    ..k.    BL       pbuf_header ; 0x34ac
        0x000059d6:    bbe8        ..      CBNZ     r0,0x5a54 ; tcp_input + 168
        0x000059d8:    8928        (.      LDRH     r0,[r5,#8]
        0x000059da:    2814        .(      CMP      r0,#0x14
        0x000059dc:    d33a        :.      BCC      0x5a54 ; tcp_input + 168
        0x000059de:    4f70        pO      LDR      r7,[pc,#448] ; [0x5ba0] = 0x200000d8
        0x000059e0:    4621        !F      MOV      r1,r4
        0x000059e2:    6838        8h      LDR      r0,[r7,#0]
        0x000059e4:    f002f9c0    ....    BL       ip4_addr_isbroadcast ; 0x7d68
        0x000059e8:    bba0        ..      CBNZ     r0,0x5a54 ; tcp_input + 168
        0x000059ea:    6838        8h      LDR      r0,[r7,#0]
        0x000059ec:    f3c01003    ....    UBFX     r0,r0,#4,#4
        0x000059f0:    280e        .(      CMP      r0,#0xe
        0x000059f2:    d02f        /.      BEQ      0x5a54 ; tcp_input + 168
        0x000059f4:    892b        +.      LDRH     r3,[r5,#8]
        0x000059f6:    9300        ..      STR      r3,[sp,#0]
        0x000059f8:    2306        .#      MOVS     r3,#6
        0x000059fa:    463a        :F      MOV      r2,r7
        0x000059fc:    4967        gI      LDR      r1,[pc,#412] ; [0x5b9c] = 0x200000d4
        0x000059fe:    4628        (F      MOV      r0,r5
        0x00005a00:    f001fef5    ....    BL       inet_chksum_pseudo ; 0x77ee
        0x00005a04:    bb30        0.      CBNZ     r0,0x5a54 ; tcp_input + 168
        0x00005a06:    f8d80004    ....    LDR      r0,[r8,#4]
        0x00005a0a:    8980        ..      LDRH     r0,[r0,#0xc]
        0x00005a0c:    f7fbf9a4    ....    BL       lwip_ntohs ; 0xd58
        0x00005a10:    0b00        ..      LSRS     r0,r0,#12
        0x00005a12:    0080        ..      LSLS     r0,r0,#2
        0x00005a14:    4241        AB      RSBS     r1,r0,#0
        0x00005a16:    4628        (F      MOV      r0,r5
        0x00005a18:    f7fdfd48    ..H.    BL       pbuf_header ; 0x34ac
        0x00005a1c:    b9d0        ..      CBNZ     r0,0x5a54 ; tcp_input + 168
        0x00005a1e:    f8d80004    ....    LDR      r0,[r8,#4]
        0x00005a22:    8800        ..      LDRH     r0,[r0,#0]
        0x00005a24:    f7fbf998    ....    BL       lwip_ntohs ; 0xd58
        0x00005a28:    4601        .F      MOV      r1,r0
        0x00005a2a:    f8d80004    ....    LDR      r0,[r8,#4]
        0x00005a2e:    8001        ..      STRH     r1,[r0,#0]
        0x00005a30:    8840        @.      LDRH     r0,[r0,#2]
        0x00005a32:    f7fbf991    ....    BL       lwip_ntohs ; 0xd58
        0x00005a36:    4601        .F      MOV      r1,r0
        0x00005a38:    f8d80004    ....    LDR      r0,[r8,#4]
        0x00005a3c:    8041        A.      STRH     r1,[r0,#2]
        0x00005a3e:    6840        @h      LDR      r0,[r0,#4]
        0x00005a40:    f7fbf98e    ....    BL       lwip_ntohl ; 0xd60
        0x00005a44:    4601        .F      MOV      r1,r0
        0x00005a46:    f8d80004    ....    LDR      r0,[r8,#4]
        0x00005a4a:    6041        A`      STR      r1,[r0,#4]
        0x00005a4c:    f8c8100c    ....    STR      r1,[r8,#0xc]
        0x00005a50:    6880        .h      LDR      r0,[r0,#8]
        0x00005a52:    e000        ..      B        0x5a56 ; tcp_input + 170
        0x00005a54:    e216        ..      B        0x5e84 ; tcp_input + 1240
        0x00005a56:    f7fbf983    ....    BL       lwip_ntohl ; 0xd60
        0x00005a5a:    f8d81004    ....    LDR      r1,[r8,#4]
        0x00005a5e:    6088        .`      STR      r0,[r1,#8]
        0x00005a60:    f8c80010    ....    STR      r0,[r8,#0x10]
        0x00005a64:    89c8        ..      LDRH     r0,[r1,#0xe]
        0x00005a66:    f7fbf977    ..w.    BL       lwip_ntohs ; 0xd58
        0x00005a6a:    4601        .F      MOV      r1,r0
        0x00005a6c:    f8d80004    ....    LDR      r0,[r8,#4]
        0x00005a70:    81c1        ..      STRH     r1,[r0,#0xe]
        0x00005a72:    8980        ..      LDRH     r0,[r0,#0xc]
        0x00005a74:    f7fbf970    ..p.    BL       lwip_ntohs ; 0xd58
        0x00005a78:    f000003f    ..?.    AND      r0,r0,#0x3f
        0x00005a7c:    f8880000    ....    STRB     r0,[r8,#0]
        0x00005a80:    8929        ).      LDRH     r1,[r5,#8]
        0x00005a82:    0780        ..      LSLS     r0,r0,#30
        0x00005a84:    d000        ..      BEQ      0x5a88 ; tcp_input + 220
        0x00005a86:    2001        .       MOVS     r0,#1
        0x00005a88:    f8dfb11c    ....    LDR      r11,[pc,#284] ; [0x5ba8] = 0x20000098
        0x00005a8c:    4408        .D      ADD      r0,r0,r1
        0x00005a8e:    f8a80002    ....    STRH     r0,[r8,#2]
        0x00005a92:    2600        .&      MOVS     r6,#0
        0x00005a94:    f8dfa104    ....    LDR      r10,[pc,#260] ; [0x5b9c] = 0x200000d4
        0x00005a98:    46c1        .F      MOV      r9,r8
        0x00005a9a:    f8db4000    ...@    LDR      r4,[r11,#0]
        0x00005a9e:    e054        T.      B        0x5b4a ; tcp_input + 414
        0x00005aa0:    7e20         ~      LDRB     r0,[r4,#0x18]
        0x00005aa2:    b938        8.      CBNZ     r0,0x5ab4 ; tcp_input + 264
        0x00005aa4:    f6af134c    ..L.    ADR      r3,{pc}-0x948 ; 0x515c
        0x00005aa8:    22ab        ."      MOVS     r2,#0xab
        0x00005aaa:    a141        A.      ADR      r1,{pc}+0x106 ; 0x5bb0
        0x00005aac:    f6af1004    ....    ADR      r0,{pc}-0x900 ; 0x51ac
        0x00005ab0:    f003fe72    ..r.    BL       __0printf$5 ; 0x9798
        0x00005ab4:    7e20         ~      LDRB     r0,[r4,#0x18]
        0x00005ab6:    280a        .(      CMP      r0,#0xa
        0x00005ab8:    d107        ..      BNE      0x5aca ; tcp_input + 286
        0x00005aba:    f6af1360    ..`.    ADR      r3,{pc}-0x95e ; 0x515c
        0x00005abe:    22ac        ."      MOVS     r2,#0xac
        0x00005ac0:    a145        E.      ADR      r1,{pc}+0x118 ; 0x5bd8
        0x00005ac2:    f6af1018    ....    ADR      r0,{pc}-0x916 ; 0x51ac
        0x00005ac6:    f003fe67    ..g.    BL       __0printf$5 ; 0x9798
        0x00005aca:    7e20         ~      LDRB     r0,[r4,#0x18]
        0x00005acc:    2801        .(      CMP      r0,#1
        0x00005ace:    d107        ..      BNE      0x5ae0 ; tcp_input + 308
        0x00005ad0:    f6af1378    ..x.    ADR      r3,{pc}-0x974 ; 0x515c
        0x00005ad4:    22ad        ."      MOVS     r2,#0xad
        0x00005ad6:    a14b        K.      ADR      r1,{pc}+0x12e ; 0x5c04
        0x00005ad8:    f6af1030    ..0.    ADR      r0,{pc}-0x92c ; 0x51ac
        0x00005adc:    f003fe5c    ..\.    BL       __0printf$5 ; 0x9798
        0x00005ae0:    f8d90004    ....    LDR      r0,[r9,#4]
        0x00005ae4:    8ba1        ..      LDRH     r1,[r4,#0x1c]
        0x00005ae6:    8802        ..      LDRH     r2,[r0,#0]
        0x00005ae8:    4291        .B      CMP      r1,r2
        0x00005aea:    d12c        ,.      BNE      0x5b46 ; tcp_input + 410
        0x00005aec:    8b61        a.      LDRH     r1,[r4,#0x1a]
        0x00005aee:    8840        @.      LDRH     r0,[r0,#2]
        0x00005af0:    4281        .B      CMP      r1,r0
        0x00005af2:    d128        (.      BNE      0x5b46 ; tcp_input + 410
        0x00005af4:    6861        ah      LDR      r1,[r4,#4]
        0x00005af6:    f8da0000    ....    LDR      r0,[r10,#0]
        0x00005afa:    4281        .B      CMP      r1,r0
        0x00005afc:    d123        #.      BNE      0x5b46 ; tcp_input + 410
        0x00005afe:    6820         h      LDR      r0,[r4,#0]
        0x00005b00:    6839        9h      LDR      r1,[r7,#0]
        0x00005b02:    4288        .B      CMP      r0,r1
        0x00005b04:    d11f        ..      BNE      0x5b46 ; tcp_input + 410
        0x00005b06:    68e0        .h      LDR      r0,[r4,#0xc]
        0x00005b08:    42a0        .B      CMP      r0,r4
        0x00005b0a:    d107        ..      BNE      0x5b1c ; tcp_input + 368
        0x00005b0c:    f6af13b4    ....    ADR      r3,{pc}-0x9b0 ; 0x515c
        0x00005b10:    22b6        ."      MOVS     r2,#0xb6
        0x00005b12:    a146        F.      ADR      r1,{pc}+0x11a ; 0x5c2c
        0x00005b14:    f6af106c    ..l.    ADR      r0,{pc}-0x968 ; 0x51ac
        0x00005b18:    f003fe3e    ..>.    BL       __0printf$5 ; 0x9798
        0x00005b1c:    b136        6.      CBZ      r6,0x5b2c ; tcp_input + 384
        0x00005b1e:    68e0        .h      LDR      r0,[r4,#0xc]
        0x00005b20:    60f0        .`      STR      r0,[r6,#0xc]
        0x00005b22:    f8db1000    ....    LDR      r1,[r11,#0]
        0x00005b26:    60e1        .`      STR      r1,[r4,#0xc]
        0x00005b28:    f8cb4000    ...@    STR      r4,[r11,#0]
        0x00005b2c:    68e0        .h      LDR      r0,[r4,#0xc]
        0x00005b2e:    42a0        .B      CMP      r0,r4
        0x00005b30:    d107        ..      BNE      0x5b42 ; tcp_input + 406
        0x00005b32:    f6af13d8    ....    ADR      r3,{pc}-0x9d6 ; 0x515c
        0x00005b36:    22bc        ."      MOVS     r2,#0xbc
        0x00005b38:    a147        G.      ADR      r1,{pc}+0x120 ; 0x5c58
        0x00005b3a:    f6af1090    ....    ADR      r0,{pc}-0x98e ; 0x51ac
        0x00005b3e:    f003fe2b    ..+.    BL       __0printf$5 ; 0x9798
        0x00005b42:    b124        $.      CBZ      r4,0x5b4e ; tcp_input + 418
        0x00005b44:    e0e0        ..      B        0x5d08 ; tcp_input + 860
        0x00005b46:    4626        &F      MOV      r6,r4
        0x00005b48:    68e4        .h      LDR      r4,[r4,#0xc]
        0x00005b4a:    2c00        .,      CMP      r4,#0
        0x00005b4c:    d1a8        ..      BNE      0x5aa0 ; tcp_input + 244
        0x00005b4e:    484d        MH      LDR      r0,[pc,#308] ; [0x5c84] = 0x2000009c
        0x00005b50:    464e        NF      MOV      r6,r9
        0x00005b52:    6804        .h      LDR      r4,[r0,#0]
        0x00005b54:    e0b1        ..      B        0x5cba ; tcp_input + 782
        0x00005b56:    7e20         ~      LDRB     r0,[r4,#0x18]
        0x00005b58:    280a        .(      CMP      r0,#0xa
        0x00005b5a:    d007        ..      BEQ      0x5b6c ; tcp_input + 448
        0x00005b5c:    f6af2304    ...#    ADR      r3,{pc}-0xa00 ; 0x515c
        0x00005b60:    22c6        ."      MOVS     r2,#0xc6
        0x00005b62:    a149        I.      ADR      r1,{pc}+0x126 ; 0x5c88
        0x00005b64:    f6af10bc    ....    ADR      r0,{pc}-0x9b8 ; 0x51ac
        0x00005b68:    f003fe16    ....    BL       __0printf$5 ; 0x9798
        0x00005b6c:    6870        ph      LDR      r0,[r6,#4]
        0x00005b6e:    8ba1        ..      LDRH     r1,[r4,#0x1c]
        0x00005b70:    8802        ..      LDRH     r2,[r0,#0]
        0x00005b72:    4291        .B      CMP      r1,r2
        0x00005b74:    d110        ..      BNE      0x5b98 ; tcp_input + 492
        0x00005b76:    8b61        a.      LDRH     r1,[r4,#0x1a]
        0x00005b78:    8840        @.      LDRH     r0,[r0,#2]
        0x00005b7a:    4281        .B      CMP      r1,r0
        0x00005b7c:    d10c        ..      BNE      0x5b98 ; tcp_input + 492
        0x00005b7e:    6861        ah      LDR      r1,[r4,#4]
        0x00005b80:    f8da0000    ....    LDR      r0,[r10,#0]
        0x00005b84:    4281        .B      CMP      r1,r0
        0x00005b86:    d107        ..      BNE      0x5b98 ; tcp_input + 492
        0x00005b88:    6820         h      LDR      r0,[r4,#0]
        0x00005b8a:    6839        9h      LDR      r1,[r7,#0]
        0x00005b8c:    4288        .B      CMP      r0,r1
        0x00005b8e:    d103        ..      BNE      0x5b98 ; tcp_input + 492
        0x00005b90:    4620         F      MOV      r0,r4
        0x00005b92:    f000f97c    ..|.    BL       tcp_timewait_input ; 0x5e8e
        0x00005b96:    e175        u.      B        0x5e84 ; tcp_input + 1240
        0x00005b98:    e08e        ..      B        0x5cb8 ; tcp_input + 780
    $d
        0x00005b9a:    0000        ..      DCW    0
        0x00005b9c:    200000d4    ...     DCD    536871124
        0x00005ba0:    200000d8    ...     DCD    536871128
        0x00005ba4:    200000a4    ...     DCD    536871076
        0x00005ba8:    20000098    ...     DCD    536871064
        0x00005bac:    20000080    ...     DCD    536871040
        0x00005bb0:    5f706374    tcp_    DCD    1601201012
        0x00005bb4:    75706e69    inpu    DCD    1970302569
        0x00005bb8:    61203a74    t: a    DCD    1629502068
        0x00005bbc:    76697463    ctiv    DCD    1986622563
        0x00005bc0:    63702065    e pc    DCD    1668292709
        0x00005bc4:    733e2d62    b->s    DCD    1933454690
        0x00005bc8:    65746174    tate    DCD    1702125940
        0x00005bcc:    203d2120     !=     DCD    540877088
        0x00005bd0:    534f4c43    CLOS    DCD    1397705795
        0x00005bd4:    00004445    ED..    DCD    17477
        0x00005bd8:    5f706374    tcp_    DCD    1601201012
        0x00005bdc:    75706e69    inpu    DCD    1970302569
        0x00005be0:    61203a74    t: a    DCD    1629502068
        0x00005be4:    76697463    ctiv    DCD    1986622563
        0x00005be8:    63702065    e pc    DCD    1668292709
        0x00005bec:    733e2d62    b->s    DCD    1933454690
        0x00005bf0:    65746174    tate    DCD    1702125940
        0x00005bf4:    203d2120     !=     DCD    540877088
        0x00005bf8:    454d4954    TIME    DCD    1162692948
        0x00005bfc:    4941572d    -WAI    DCD    1229018925
        0x00005c00:    00000054    T...    DCD    84
        0x00005c04:    5f706374    tcp_    DCD    1601201012
        0x00005c08:    75706e69    inpu    DCD    1970302569
        0x00005c0c:    61203a74    t: a    DCD    1629502068
        0x00005c10:    76697463    ctiv    DCD    1986622563
        0x00005c14:    63702065    e pc    DCD    1668292709
        0x00005c18:    733e2d62    b->s    DCD    1933454690
        0x00005c1c:    65746174    tate    DCD    1702125940
        0x00005c20:    203d2120     !=     DCD    540877088
        0x00005c24:    5453494c    LIST    DCD    1414744396
        0x00005c28:    00004e45    EN..    DCD    20037
        0x00005c2c:    5f706374    tcp_    DCD    1601201012
        0x00005c30:    75706e69    inpu    DCD    1970302569
        0x00005c34:    70203a74    t: p    DCD    1881160308
        0x00005c38:    3e2d6263    cb->    DCD    1043161699
        0x00005c3c:    7478656e    next    DCD    1954047342
        0x00005c40:    203d2120     !=     DCD    540877088
        0x00005c44:    20626370    pcb     DCD    543318896
        0x00005c48:    66656228    (bef    DCD    1717920296
        0x00005c4c:    2065726f    ore     DCD    543519343
        0x00005c50:    68636163    cach    DCD    1751343459
        0x00005c54:    00002965    e)..    DCD    10597
        0x00005c58:    5f706374    tcp_    DCD    1601201012
        0x00005c5c:    75706e69    inpu    DCD    1970302569
        0x00005c60:    70203a74    t: p    DCD    1881160308
        0x00005c64:    3e2d6263    cb->    DCD    1043161699
        0x00005c68:    7478656e    next    DCD    1954047342
        0x00005c6c:    203d2120     !=     DCD    540877088
        0x00005c70:    20626370    pcb     DCD    543318896
        0x00005c74:    74666128    (aft    DCD    1952866600
        0x00005c78:    63207265    er c    DCD    1663070821
        0x00005c7c:    65686361    ache    DCD    1701340001
        0x00005c80:    00000029    )...    DCD    41
        0x00005c84:    2000009c    ...     DCD    536871068
        0x00005c88:    5f706374    tcp_    DCD    1601201012
        0x00005c8c:    75706e69    inpu    DCD    1970302569
        0x00005c90:    54203a74    t: T    DCD    1411398260
        0x00005c94:    2d454d49    IME-    DCD    759516489
        0x00005c98:    54494157    WAIT    DCD    1414086999
        0x00005c9c:    62637020     pcb    DCD    1650683936
        0x00005ca0:    74733e2d    ->st    DCD    1953709613
        0x00005ca4:    20657461    ate     DCD    543519841
        0x00005ca8:    54203d3d    == T    DCD    1411398973
        0x00005cac:    2d454d49    IME-    DCD    759516489
        0x00005cb0:    54494157    WAIT    DCD    1414086999
        0x00005cb4:    00000000    ....    DCD    0
    $t
        0x00005cb8:    68e4        .h      LDR      r4,[r4,#0xc]
        0x00005cba:    2c00        .,      CMP      r4,#0
        0x00005cbc:    f47faf4b    ..K.    BNE      0x5b56 ; tcp_input + 426
        0x00005cc0:    f8dfa228    ..(.    LDR      r10,[pc,#552] ; [0x5eec] = 0x20000094
        0x00005cc4:    2200        ."      MOVS     r2,#0
        0x00005cc6:    6873        sh      LDR      r3,[r6,#4]
        0x00005cc8:    f8da0000    ....    LDR      r0,[r10,#0]
        0x00005ccc:    683f        ?h      LDR      r7,[r7,#0]
        0x00005cce:    4680        .F      MOV      r8,r0
        0x00005cd0:    e00b        ..      B        0x5cea ; tcp_input + 830
        0x00005cd2:    8b41        A.      LDRH     r1,[r0,#0x1a]
        0x00005cd4:    f8b3c002    ....    LDRH     r12,[r3,#2]
        0x00005cd8:    4561        aE      CMP      r1,r12
        0x00005cda:    d104        ..      BNE      0x5ce6 ; tcp_input + 826
        0x00005cdc:    6801        .h      LDR      r1,[r0,#0]
        0x00005cde:    42b9        .B      CMP      r1,r7
        0x00005ce0:    d006        ..      BEQ      0x5cf0 ; tcp_input + 836
        0x00005ce2:    b180        ..      CBZ      r0,0x5d06 ; tcp_input + 858
        0x00005ce4:    b129        ).      CBZ      r1,0x5cf2 ; tcp_input + 838
        0x00005ce6:    4602        .F      MOV      r2,r0
        0x00005ce8:    68c0        .h      LDR      r0,[r0,#0xc]
        0x00005cea:    2800        .(      CMP      r0,#0
        0x00005cec:    d1f1        ..      BNE      0x5cd2 ; tcp_input + 806
        0x00005cee:    e00a        ..      B        0x5d06 ; tcp_input + 858
        0x00005cf0:    b148        H.      CBZ      r0,0x5d06 ; tcp_input + 858
        0x00005cf2:    b12a        *.      CBZ      r2,0x5d00 ; tcp_input + 852
        0x00005cf4:    68c1        .h      LDR      r1,[r0,#0xc]
        0x00005cf6:    60d1        .`      STR      r1,[r2,#0xc]
        0x00005cf8:    f8c0800c    ....    STR      r8,[r0,#0xc]
        0x00005cfc:    f8ca0000    ....    STR      r0,[r10,#0]
        0x00005d00:    f7fffdec    ....    BL       tcp_listen_input ; 0x58dc
        0x00005d04:    e0be        ..      B        0x5e84 ; tcp_input + 1240
        0x00005d06:    b3ac        ..      CBZ      r4,0x5d74 ; tcp_input + 968
        0x00005d08:    f8df81e4    ....    LDR      r8,[pc,#484] ; [0x5ef0] = 0x200071d8
        0x00005d0c:    2700        .'      MOVS     r7,#0
        0x00005d0e:    464e        NF      MOV      r6,r9
        0x00005d10:    f8c87000    ...p    STR      r7,[r8,#0]
        0x00005d14:    8929        ).      LDRH     r1,[r5,#8]
        0x00005d16:    f8a81008    ....    STRH     r1,[r8,#8]
        0x00005d1a:    f8c85004    ...P    STR      r5,[r8,#4]
        0x00005d1e:    f8d91004    ....    LDR      r1,[r9,#4]
        0x00005d22:    f8c81010    ....    STR      r1,[r8,#0x10]
        0x00005d26:    f8c97014    ...p    STR      r7,[r9,#0x14]
        0x00005d2a:    f8897001    ...p    STRB     r7,[r9,#1]
        0x00005d2e:    f8990000    ....    LDRB     r0,[r9,#0]
        0x00005d32:    0700        ..      LSLS     r0,r0,#28
        0x00005d34:    d503        ..      BPL      0x5d3e ; tcp_input + 914
        0x00005d36:    7b68        h{      LDRB     r0,[r5,#0xd]
        0x00005d38:    f0400001    @...    ORR      r0,r0,#1
        0x00005d3c:    7368        hs      STRB     r0,[r5,#0xd]
        0x00005d3e:    6f60        `o      LDR      r0,[r4,#0x74]
        0x00005d40:    b140        @.      CBZ      r0,0x5d54 ; tcp_input + 936
        0x00005d42:    4620         F      MOV      r0,r4
        0x00005d44:    f7fefc4e    ..N.    BL       tcp_process_refused_data ; 0x45e4
        0x00005d48:    300a        .0      ADDS     r0,r0,#0xa
        0x00005d4a:    d07e        ~.      BEQ      0x5e4a ; tcp_input + 1182
        0x00005d4c:    6f60        `o      LDR      r0,[r4,#0x74]
        0x00005d4e:    b108        ..      CBZ      r0,0x5d54 ; tcp_input + 936
        0x00005d50:    8870        p.      LDRH     r0,[r6,#2]
        0x00005d52:    bb20         .      CBNZ     r0,0x5d9e ; tcp_input + 1010
        0x00005d54:    4620         F      MOV      r0,r4
        0x00005d56:    61b4        .a      STR      r4,[r6,#0x18]
        0x00005d58:    f7fffb95    ....    BL       tcp_process ; 0x5486
        0x00005d5c:    300a        .0      ADDS     r0,r0,#0xa
        0x00005d5e:    d074        t.      BEQ      0x5e4a ; tcp_input + 1182
        0x00005d60:    7870        px      LDRB     r0,[r6,#1]
        0x00005d62:    0701        ..      LSLS     r1,r0,#28
        0x00005d64:    d507        ..      BPL      0x5d76 ; tcp_input + 970
        0x00005d66:    f8d42088    ...     LDR      r2,[r4,#0x88]
        0x00005d6a:    b182        ..      CBZ      r2,0x5d8e ; tcp_input + 994
        0x00005d6c:    f06f010a    o...    MVN      r1,#0xa
        0x00005d70:    6920         i      LDR      r0,[r4,#0x10]
        0x00005d72:    e00b        ..      B        0x5d8c ; tcp_input + 992
        0x00005d74:    e074        t.      B        0x5e60 ; tcp_input + 1204
        0x00005d76:    06c0        ..      LSLS     r0,r0,#27
        0x00005d78:    d512        ..      BPL      0x5da0 ; tcp_input + 1012
        0x00005d7a:    7fa0        ..      LDRB     r0,[r4,#0x1e]
        0x00005d7c:    06c0        ..      LSLS     r0,r0,#27
        0x00005d7e:    d406        ..      BMI      0x5d8e ; tcp_input + 994
        0x00005d80:    f8d42088    ...     LDR      r2,[r4,#0x88]
        0x00005d84:    b11a        ..      CBZ      r2,0x5d8e ; tcp_input + 994
        0x00005d86:    f06f010b    o...    MVN      r1,#0xb
        0x00005d8a:    6920         i      LDR      r0,[r4,#0x10]
        0x00005d8c:    4790        .G      BLX      r2
        0x00005d8e:    4621        !F      MOV      r1,r4
        0x00005d90:    4858        XH      LDR      r0,[pc,#352] ; [0x5ef4] = 0x20000098
        0x00005d92:    f7fef9d3    ....    BL       tcp_pcb_remove ; 0x413c
        0x00005d96:    4621        !F      MOV      r1,r4
        0x00005d98:    2001        .       MOVS     r0,#1
        0x00005d9a:    f7fdf841    ..A.    BL       memp_free ; 0x2e20
        0x00005d9e:    e054        T.      B        0x5e4a ; tcp_input + 1182
        0x00005da0:    f8b42064    ..d     LDRH     r2,[r4,#0x64]
        0x00005da4:    2000        .       MOVS     r0,#0
        0x00005da6:    b132        2.      CBZ      r2,0x5db6 ; tcp_input + 1034
        0x00005da8:    6fa3        .o      LDR      r3,[r4,#0x78]
        0x00005daa:    b113        ..      CBZ      r3,0x5db2 ; tcp_input + 1030
        0x00005dac:    4621        !F      MOV      r1,r4
        0x00005dae:    6920         i      LDR      r0,[r4,#0x10]
        0x00005db0:    4798        .G      BLX      r3
        0x00005db2:    300a        .0      ADDS     r0,r0,#0xa
        0x00005db4:    d049        I.      BEQ      0x5e4a ; tcp_input + 1182
        0x00005db6:    6970        pi      LDR      r0,[r6,#0x14]
        0x00005db8:    b340        @.      CBZ      r0,0x5e0c ; tcp_input + 1120
        0x00005dba:    6f60        `o      LDR      r0,[r4,#0x74]
        0x00005dbc:    b140        @.      CBZ      r0,0x5dd0 ; tcp_input + 1060
        0x00005dbe:    f6af4364    ..dC    ADR      r3,{pc}-0xc62 ; 0x515c
        0x00005dc2:    f44f72aa    O..r    MOV      r2,#0x154
        0x00005dc6:    a14c        L.      ADR      r1,{pc}+0x132 ; 0x5ef8
        0x00005dc8:    f6af4020    .. @    ADR      r0,{pc}-0xc1c ; 0x51ac
        0x00005dcc:    f003fce4    ....    BL       __0printf$5 ; 0x9798
        0x00005dd0:    7fa0        ..      LDRB     r0,[r4,#0x1e]
        0x00005dd2:    06c0        ..      LSLS     r0,r0,#27
        0x00005dd4:    d506        ..      BPL      0x5de4 ; tcp_input + 1080
        0x00005dd6:    6970        pi      LDR      r0,[r6,#0x14]
        0x00005dd8:    f7fdf9d8    ....    BL       pbuf_free ; 0x318c
        0x00005ddc:    4620         F      MOV      r0,r4
        0x00005dde:    f7fefce3    ....    BL       tcp_abort ; 0x47a8
        0x00005de2:    e032        2.      B        0x5e4a ; tcp_input + 1182
        0x00005de4:    6fe5        .o      LDR      r5,[r4,#0x7c]
        0x00005de6:    b12d        -.      CBZ      r5,0x5df4 ; tcp_input + 1096
        0x00005de8:    2300        .#      MOVS     r3,#0
        0x00005dea:    6920         i      LDR      r0,[r4,#0x10]
        0x00005dec:    4621        !F      MOV      r1,r4
        0x00005dee:    6972        ri      LDR      r2,[r6,#0x14]
        0x00005df0:    47a8        .G      BLX      r5
        0x00005df2:    e005        ..      B        0x5e00 ; tcp_input + 1108
        0x00005df4:    2300        .#      MOVS     r3,#0
        0x00005df6:    4621        !F      MOV      r1,r4
        0x00005df8:    4618        .F      MOV      r0,r3
        0x00005dfa:    6972        ri      LDR      r2,[r6,#0x14]
        0x00005dfc:    f7fefbe1    ....    BL       tcp_recv_null ; 0x45c2
        0x00005e00:    f110010a    ....    ADDS     r1,r0,#0xa
        0x00005e04:    d021        !.      BEQ      0x5e4a ; tcp_input + 1182
        0x00005e06:    b108        ..      CBZ      r0,0x5e0c ; tcp_input + 1120
        0x00005e08:    6970        pi      LDR      r0,[r6,#0x14]
        0x00005e0a:    6760        `g      STR      r0,[r4,#0x74]
        0x00005e0c:    7870        px      LDRB     r0,[r6,#1]
        0x00005e0e:    0680        ..      LSLS     r0,r0,#26
        0x00005e10:    d517        ..      BPL      0x5e42 ; tcp_input + 1174
        0x00005e12:    6f60        `o      LDR      r0,[r4,#0x74]
        0x00005e14:    b120         .      CBZ      r0,0x5e20 ; tcp_input + 1140
        0x00005e16:    7b41        A{      LDRB     r1,[r0,#0xd]
        0x00005e18:    f0410120    A. .    ORR      r1,r1,#0x20
        0x00005e1c:    7341        As      STRB     r1,[r0,#0xd]
        0x00005e1e:    e010        ..      B        0x5e42 ; tcp_input + 1174
        0x00005e20:    8da0        ..      LDRH     r0,[r4,#0x2c]
        0x00005e22:    f5b06f7a    ..zo    CMP      r0,#0xfa0
        0x00005e26:    d001        ..      BEQ      0x5e2c ; tcp_input + 1152
        0x00005e28:    1c40        @.      ADDS     r0,r0,#1
        0x00005e2a:    85a0        ..      STRH     r0,[r4,#0x2c]
        0x00005e2c:    6fe5        .o      LDR      r5,[r4,#0x7c]
        0x00005e2e:    b12d        -.      CBZ      r5,0x5e3c ; tcp_input + 1168
        0x00005e30:    2300        .#      MOVS     r3,#0
        0x00005e32:    461a        .F      MOV      r2,r3
        0x00005e34:    4621        !F      MOV      r1,r4
        0x00005e36:    6920         i      LDR      r0,[r4,#0x10]
        0x00005e38:    47a8        .G      BLX      r5
        0x00005e3a:    e000        ..      B        0x5e3e ; tcp_input + 1170
        0x00005e3c:    2000        .       MOVS     r0,#0
        0x00005e3e:    300a        .0      ADDS     r0,r0,#0xa
        0x00005e40:    d003        ..      BEQ      0x5e4a ; tcp_input + 1182
        0x00005e42:    4620         F      MOV      r0,r4
        0x00005e44:    61b7        .a      STR      r7,[r6,#0x18]
        0x00005e46:    f000fe5c    ..\.    BL       tcp_output ; 0x6b02
        0x00005e4a:    61b7        .a      STR      r7,[r6,#0x18]
        0x00005e4c:    6177        wa      STR      r7,[r6,#0x14]
        0x00005e4e:    f8d80004    ....    LDR      r0,[r8,#4]
        0x00005e52:    4644        DF      MOV      r4,r8
        0x00005e54:    2800        .(      CMP      r0,#0
        0x00005e56:    d002        ..      BEQ      0x5e5e ; tcp_input + 1202
        0x00005e58:    f7fdf998    ....    BL       pbuf_free ; 0x318c
        0x00005e5c:    6067        g`      STR      r7,[r4,#4]
        0x00005e5e:    e486        ..      B        0x576e ; tcp_process + 744
        0x00005e60:    8998        ..      LDRH     r0,[r3,#0xc]
        0x00005e62:    f7faff79    ..y.    BL       lwip_ntohs ; 0xd58
        0x00005e66:    0740        @.      LSLS     r0,r0,#29
        0x00005e68:    d40c        ..      BMI      0x5e84 ; tcp_input + 1240
        0x00005e6a:    6870        ph      LDR      r0,[r6,#4]
        0x00005e6c:    8803        ..      LDRH     r3,[r0,#0]
        0x00005e6e:    8842        B.      LDRH     r2,[r0,#2]
        0x00005e70:    e9cd2300    ...#    STRD     r2,r3,[sp,#0]
        0x00005e74:    8871        q.      LDRH     r1,[r6,#2]
        0x00005e76:    68f0        .h      LDR      r0,[r6,#0xc]
        0x00005e78:    4b26        &K      LDR      r3,[pc,#152] ; [0x5f14] = 0x200000d4
        0x00005e7a:    4401        .D      ADD      r1,r1,r0
        0x00005e7c:    4a26        &J      LDR      r2,[pc,#152] ; [0x5f18] = 0x200000d8
        0x00005e7e:    6930        0i      LDR      r0,[r6,#0x10]
        0x00005e80:    f000ff1a    ....    BL       tcp_rst ; 0x6cb8
        0x00005e84:    4628        (F      MOV      r0,r5
        0x00005e86:    e8bd5ffc    ..._    POP      {r2-r12,lr}
        0x00005e8a:    f7fdb97f    ....    B        pbuf_free ; 0x318c
    tcp_timewait_input
        0x00005e8e:    b57c        |.      PUSH     {r2-r6,lr}
        0x00005e90:    4d22        "M      LDR      r5,[pc,#136] ; [0x5f1c] = 0x200000a4
        0x00005e92:    782a        *x      LDRB     r2,[r5,#0]
        0x00005e94:    0751        Q.      LSLS     r1,r2,#29
        0x00005e96:    d426        &.      BMI      0x5ee6 ; tcp_timewait_input + 88
        0x00005e98:    4629        )F      MOV      r1,r5
        0x00005e9a:    0793        ..      LSLS     r3,r2,#30
        0x00005e9c:    8849        I.      LDRH     r1,[r1,#2]
        0x00005e9e:    d514        ..      BPL      0x5eca ; tcp_timewait_input + 60
        0x00005ea0:    6a82        .j      LDR      r2,[r0,#0x28]
        0x00005ea2:    68ec        .h      LDR      r4,[r5,#0xc]
        0x00005ea4:    1aa3        ..      SUBS     r3,r4,r2
        0x00005ea6:    d415        ..      BMI      0x5ed4 ; tcp_timewait_input + 70
        0x00005ea8:    8d83        ..      LDRH     r3,[r0,#0x2c]
        0x00005eaa:    441a        .D      ADD      r2,r2,r3
        0x00005eac:    1aa2        ..      SUBS     r2,r4,r2
        0x00005eae:    2a00        .*      CMP      r2,#0
        0x00005eb0:    dc10        ..      BGT      0x5ed4 ; tcp_timewait_input + 70
        0x00005eb2:    6868        hh      LDR      r0,[r5,#4]
        0x00005eb4:    4421        !D      ADD      r1,r1,r4
        0x00005eb6:    8803        ..      LDRH     r3,[r0,#0]
        0x00005eb8:    8842        B.      LDRH     r2,[r0,#2]
        0x00005eba:    e9cd2300    ...#    STRD     r2,r3,[sp,#0]
        0x00005ebe:    4b15        .K      LDR      r3,[pc,#84] ; [0x5f14] = 0x200000d4
        0x00005ec0:    4a15        .J      LDR      r2,[pc,#84] ; [0x5f18] = 0x200000d8
        0x00005ec2:    6928        (i      LDR      r0,[r5,#0x10]
        0x00005ec4:    f000fef8    ....    BL       tcp_rst ; 0x6cb8
        0x00005ec8:    e00d        ..      B        0x5ee6 ; tcp_timewait_input + 88
        0x00005eca:    07d2        ..      LSLS     r2,r2,#31
        0x00005ecc:    d002        ..      BEQ      0x5ed4 ; tcp_timewait_input + 70
        0x00005ece:    4a14        .J      LDR      r2,[pc,#80] ; [0x5f20] = 0x2000008c
        0x00005ed0:    6812        .h      LDR      r2,[r2,#0]
        0x00005ed2:    6242        Bb      STR      r2,[r0,#0x24]
        0x00005ed4:    b139        9.      CBZ      r1,0x5ee6 ; tcp_timewait_input + 88
        0x00005ed6:    7f81        ..      LDRB     r1,[r0,#0x1e]
        0x00005ed8:    f0410102    A...    ORR      r1,r1,#2
        0x00005edc:    7781        .w      STRB     r1,[r0,#0x1e]
        0x00005ede:    e8bd407c    ..|@    POP      {r2-r6,lr}
        0x00005ee2:    f000be0e    ....    B.W      tcp_output ; 0x6b02
        0x00005ee6:    2000        .       MOVS     r0,#0
        0x00005ee8:    bd7c        |.      POP      {r2-r6,pc}
    $d
        0x00005eea:    0000        ..      DCW    0
        0x00005eec:    20000094    ...     DCD    536871060
        0x00005ef0:    200071d8    .q.     DCD    536900056
        0x00005ef4:    20000098    ...     DCD    536871064
        0x00005ef8:    2d626370    pcb-    DCD    761422704
        0x00005efc:    6665723e    >ref    DCD    1717924414
        0x00005f00:    64657375    used    DCD    1684370293
        0x00005f04:    7461645f    _dat    DCD    1952539743
        0x00005f08:    3d3d2061    a ==    DCD    1027416161
        0x00005f0c:    4c554e20     NUL    DCD    1280658976
        0x00005f10:    0000004c    L...    DCD    76
        0x00005f14:    200000d4    ...     DCD    536871124
        0x00005f18:    200000d8    ...     DCD    536871128
        0x00005f1c:    200000a4    ...     DCD    536871076
        0x00005f20:    2000008c    ...     DCD    536871052
    $t
    .text
    tcp_output_alloc_header
        0x00005f24:    e92d41f0    -..A    PUSH     {r4-r8,lr}
        0x00005f28:    4605        .F      MOV      r5,r0
        0x00005f2a:    1888        ..      ADDS     r0,r1,r2
        0x00005f2c:    460f        .F      MOV      r7,r1
        0x00005f2e:    3014        .0      ADDS     r0,r0,#0x14
        0x00005f30:    b281        ..      UXTH     r1,r0
        0x00005f32:    4698        .F      MOV      r8,r3
        0x00005f34:    2200        ."      MOVS     r2,#0
        0x00005f36:    2001        .       MOVS     r0,#1
        0x00005f38:    f7fdf970    ..p.    BL       pbuf_alloc ; 0x321c
        0x00005f3c:    0006        ..      MOVS     r6,r0
        0x00005f3e:    d02e        ..      BEQ      0x5f9e ; tcp_output_alloc_header + 122
        0x00005f40:    8971        q.      LDRH     r1,[r6,#0xa]
        0x00005f42:    f1070014    ....    ADD      r0,r7,#0x14
        0x00005f46:    4281        .B      CMP      r1,r0
        0x00005f48:    d205        ..      BCS      0x5f56 ; tcp_output_alloc_header + 50
        0x00005f4a:    a3e3        ..      ADR      r3,{pc}+0x38e ; 0x62d8
        0x00005f4c:    2264        d"      MOVS     r2,#0x64
        0x00005f4e:    a1ef        ..      ADR      r1,{pc}+0x3be ; 0x630c
        0x00005f50:    a0fa        ..      ADR      r0,{pc}+0x3ec ; 0x633c
        0x00005f52:    f003fc21    ..!.    BL       __0printf$5 ; 0x9798
        0x00005f56:    8b68        h.      LDRH     r0,[r5,#0x1a]
        0x00005f58:    6874        th      LDR      r4,[r6,#4]
        0x00005f5a:    f7fafefb    ....    BL       lwip_htons ; 0xd54
        0x00005f5e:    8020         .      STRH     r0,[r4,#0]
        0x00005f60:    8ba8        ..      LDRH     r0,[r5,#0x1c]
        0x00005f62:    f7fafef7    ....    BL       lwip_htons ; 0xd54
        0x00005f66:    8060        `.      STRH     r0,[r4,#2]
        0x00005f68:    f8c48004    ....    STR      r8,[r4,#4]
        0x00005f6c:    6aa8        .j      LDR      r0,[r5,#0x28]
        0x00005f6e:    f7fafef5    ....    BL       lwip_htonl ; 0xd5c
        0x00005f72:    60a0        .`      STR      r0,[r4,#8]
        0x00005f74:    08b8        ..      LSRS     r0,r7,#2
        0x00005f76:    0300        ..      LSLS     r0,r0,#12
        0x00005f78:    f50040a0    ...@    ADD      r0,r0,#0x5000
        0x00005f7c:    b280        ..      UXTH     r0,r0
        0x00005f7e:    f0400010    @...    ORR      r0,r0,#0x10
        0x00005f82:    f7fafee7    ....    BL       lwip_htons ; 0xd54
        0x00005f86:    81a0        ..      STRH     r0,[r4,#0xc]
        0x00005f88:    8de8        ..      LDRH     r0,[r5,#0x2e]
        0x00005f8a:    f7fafee3    ....    BL       lwip_htons ; 0xd54
        0x00005f8e:    81e0        ..      STRH     r0,[r4,#0xe]
        0x00005f90:    2000        .       MOVS     r0,#0
        0x00005f92:    8220         .      STRH     r0,[r4,#0x10]
        0x00005f94:    8260        `.      STRH     r0,[r4,#0x12]
        0x00005f96:    8de9        ..      LDRH     r1,[r5,#0x2e]
        0x00005f98:    6aa8        .j      LDR      r0,[r5,#0x28]
        0x00005f9a:    4408        .D      ADD      r0,r0,r1
        0x00005f9c:    6328        (c      STR      r0,[r5,#0x30]
        0x00005f9e:    4630        0F      MOV      r0,r6
        0x00005fa0:    e8bd81f0    ....    POP      {r4-r8,pc}
    tcp_create_segment
        0x00005fa4:    e92d47f0    -..G    PUSH     {r4-r10,lr}
        0x00005fa8:    4680        .F      MOV      r8,r0
        0x00005faa:    9d08        ..      LDR      r5,[sp,#0x20]
        0x00005fac:    460f        .F      MOV      r7,r1
        0x00005fae:    4691        .F      MOV      r9,r2
        0x00005fb0:    469a        .F      MOV      r10,r3
        0x00005fb2:    07e8        ..      LSLS     r0,r5,#31
        0x00005fb4:    d000        ..      BEQ      0x5fb8 ; tcp_create_segment + 20
        0x00005fb6:    2004        .       MOVS     r0,#4
        0x00005fb8:    210c        .!      MOVS     r1,#0xc
        0x00005fba:    07aa        ..      LSLS     r2,r5,#30
        0x00005fbc:    d400        ..      BMI      0x5fc0 ; tcp_create_segment + 28
        0x00005fbe:    2100        .!      MOVS     r1,#0
        0x00005fc0:    1846        F.      ADDS     r6,r0,r1
        0x00005fc2:    2003        .       MOVS     r0,#3
        0x00005fc4:    f7fcff0d    ....    BL       memp_malloc ; 0x2de2
        0x00005fc8:    0004        ..      MOVS     r4,r0
        0x00005fca:    d012        ..      BEQ      0x5ff2 ; tcp_create_segment + 78
        0x00005fcc:    7325        %s      STRB     r5,[r4,#0xc]
        0x00005fce:    2500        .%      MOVS     r5,#0
        0x00005fd0:    e9c45700    ...W    STRD     r5,r7,[r4,#0]
        0x00005fd4:    8938        8.      LDRH     r0,[r7,#8]
        0x00005fd6:    2114        .!      MOVS     r1,#0x14
        0x00005fd8:    1b80        ..      SUBS     r0,r0,r6
        0x00005fda:    8120         .      STRH     r0,[r4,#8]
        0x00005fdc:    8165        e.      STRH     r5,[r4,#0xa]
        0x00005fde:    4638        8F      MOV      r0,r7
        0x00005fe0:    f7fdfa64    ..d.    BL       pbuf_header ; 0x34ac
        0x00005fe4:    b148        H.      CBZ      r0,0x5ffa ; tcp_create_segment + 86
        0x00005fe6:    4620         F      MOV      r0,r4
        0x00005fe8:    f7fdfefd    ....    BL       tcp_seg_free ; 0x3de6
        0x00005fec:    2000        .       MOVS     r0,#0
        0x00005fee:    e8bd87f0    ....    POP      {r4-r10,pc}
        0x00005ff2:    4638        8F      MOV      r0,r7
        0x00005ff4:    f7fdf8ca    ....    BL       pbuf_free ; 0x318c
        0x00005ff8:    e7f8        ..      B        0x5fec ; tcp_create_segment + 72
        0x00005ffa:    6860        `h      LDR      r0,[r4,#4]
        0x00005ffc:    6840        @h      LDR      r0,[r0,#4]
        0x00005ffe:    6120         a      STR      r0,[r4,#0x10]
        0x00006000:    f8b8001a    ....    LDRH     r0,[r8,#0x1a]
        0x00006004:    f7fafea6    ....    BL       lwip_htons ; 0xd54
        0x00006008:    6921        !i      LDR      r1,[r4,#0x10]
        0x0000600a:    8008        ..      STRH     r0,[r1,#0]
        0x0000600c:    f8b8001c    ....    LDRH     r0,[r8,#0x1c]
        0x00006010:    f7fafea0    ....    BL       lwip_htons ; 0xd54
        0x00006014:    6921        !i      LDR      r1,[r4,#0x10]
        0x00006016:    8048        H.      STRH     r0,[r1,#2]
        0x00006018:    4650        PF      MOV      r0,r10
        0x0000601a:    f7fafe9f    ....    BL       lwip_htonl ; 0xd5c
        0x0000601e:    6921        !i      LDR      r1,[r4,#0x10]
        0x00006020:    6048        H`      STR      r0,[r1,#4]
        0x00006022:    08b0        ..      LSRS     r0,r6,#2
        0x00006024:    0300        ..      LSLS     r0,r0,#12
        0x00006026:    f50040a0    ...@    ADD      r0,r0,#0x5000
        0x0000602a:    ea400009    @...    ORR      r0,r0,r9
        0x0000602e:    b280        ..      UXTH     r0,r0
        0x00006030:    f7fafe90    ....    BL       lwip_htons ; 0xd54
        0x00006034:    6921        !i      LDR      r1,[r4,#0x10]
        0x00006036:    8188        ..      STRH     r0,[r1,#0xc]
        0x00006038:    6920         i      LDR      r0,[r4,#0x10]
        0x0000603a:    8245        E.      STRH     r5,[r0,#0x12]
        0x0000603c:    4620         F      MOV      r0,r4
        0x0000603e:    e7d6        ..      B        0x5fee ; tcp_create_segment + 74
    tcp_enqueue_flags
        0x00006040:    e92d43f8    -..C    PUSH     {r3-r9,lr}
        0x00006044:    4604        .F      MOV      r4,r0
        0x00006046:    2500        .%      MOVS     r5,#0
        0x00006048:    460e        .F      MOV      r6,r1
        0x0000604a:    0788        ..      LSLS     r0,r1,#30
        0x0000604c:    d106        ..      BNE      0x605c ; tcp_enqueue_flags + 28
        0x0000604e:    a3a2        ..      ADR      r3,{pc}+0x28a ; 0x62d8
        0x00006050:    f24022db    @.."    MOV      r2,#0x2db
        0x00006054:    49c3        .I      LDR      r1,[pc,#780] ; [0x6364] = 0x9bb8
        0x00006056:    a0b9        ..      ADR      r0,{pc}+0x2e6 ; 0x633c
        0x00006058:    f003fb9e    ....    BL       __0printf$5 ; 0x9798
        0x0000605c:    f8b40068    ..h.    LDRH     r0,[r4,#0x68]
        0x00006060:    f04f39ff    O..9    MOV      r9,#0xffffffff
        0x00006064:    2808        .(      CMP      r0,#8
        0x00006066:    d304        ..      BCC      0x6072 ; tcp_enqueue_flags + 50
        0x00006068:    7fa0        ..      LDRB     r0,[r4,#0x1e]
        0x0000606a:    f0400080    @...    ORR      r0,r0,#0x80
        0x0000606e:    77a0        .w      STRB     r0,[r4,#0x1e]
        0x00006070:    e03f        ?.      B        0x60f2 ; tcp_enqueue_flags + 178
        0x00006072:    07b0        ..      LSLS     r0,r6,#30
        0x00006074:    d500        ..      BPL      0x6078 ; tcp_enqueue_flags + 56
        0x00006076:    2501        .%      MOVS     r5,#1
        0x00006078:    07e8        ..      LSLS     r0,r5,#31
        0x0000607a:    d000        ..      BEQ      0x607e ; tcp_enqueue_flags + 62
        0x0000607c:    2004        .       MOVS     r0,#4
        0x0000607e:    210c        .!      MOVS     r1,#0xc
        0x00006080:    07aa        ..      LSLS     r2,r5,#30
        0x00006082:    d400        ..      BMI      0x6086 ; tcp_enqueue_flags + 70
        0x00006084:    2100        .!      MOVS     r1,#0
        0x00006086:    eb000801    ....    ADD      r8,r0,r1
        0x0000608a:    f8b40066    ..f.    LDRH     r0,[r4,#0x66]
        0x0000608e:    b378        x.      CBZ      r0,0x60f0 ; tcp_enqueue_flags + 176
        0x00006090:    2200        ."      MOVS     r2,#0
        0x00006092:    4641        AF      MOV      r1,r8
        0x00006094:    4610        .F      MOV      r0,r2
        0x00006096:    f7fdf8c1    ....    BL       pbuf_alloc ; 0x321c
        0x0000609a:    0007        ..      MOVS     r7,r0
        0x0000609c:    d0e4        ..      BEQ      0x6068 ; tcp_enqueue_flags + 40
        0x0000609e:    8978        x.      LDRH     r0,[r7,#0xa]
        0x000060a0:    4540        @E      CMP      r0,r8
        0x000060a2:    d206        ..      BCS      0x60b2 ; tcp_enqueue_flags + 114
        0x000060a4:    a38c        ..      ADR      r3,{pc}+0x234 ; 0x62d8
        0x000060a6:    f2403201    @..2    MOV      r2,#0x301
        0x000060aa:    a1af        ..      ADR      r1,{pc}+0x2be ; 0x6368
        0x000060ac:    a0a3        ..      ADR      r0,{pc}+0x290 ; 0x633c
        0x000060ae:    f003fb73    ..s.    BL       __0printf$5 ; 0x9798
        0x000060b2:    9500        ..      STR      r5,[sp,#0]
        0x000060b4:    4632        2F      MOV      r2,r6
        0x000060b6:    4639        9F      MOV      r1,r7
        0x000060b8:    4620         F      MOV      r0,r4
        0x000060ba:    6de3        .m      LDR      r3,[r4,#0x5c]
        0x000060bc:    f7ffff72    ..r.    BL       tcp_create_segment ; 0x5fa4
        0x000060c0:    0005        ..      MOVS     r5,r0
        0x000060c2:    d0d1        ..      BEQ      0x6068 ; tcp_enqueue_flags + 40
        0x000060c4:    6928        (i      LDR      r0,[r5,#0x10]
        0x000060c6:    0780        ..      LSLS     r0,r0,#30
        0x000060c8:    d006        ..      BEQ      0x60d8 ; tcp_enqueue_flags + 152
        0x000060ca:    a383        ..      ADR      r3,{pc}+0x20e ; 0x62d8
        0x000060cc:    f240320a    @..2    MOV      r2,#0x30a
        0x000060d0:    a1b4        ..      ADR      r1,{pc}+0x2d4 ; 0x63a4
        0x000060d2:    a09a        ..      ADR      r0,{pc}+0x26a ; 0x633c
        0x000060d4:    f003fb60    ..`.    BL       __0printf$5 ; 0x9798
        0x000060d8:    8928        (.      LDRH     r0,[r5,#8]
        0x000060da:    b130        0.      CBZ      r0,0x60ea ; tcp_enqueue_flags + 170
        0x000060dc:    a37e        ~.      ADR      r3,{pc}+0x1fc ; 0x62d8
        0x000060de:    f240320b    @..2    MOV      r2,#0x30b
        0x000060e2:    a1b6        ..      ADR      r1,{pc}+0x2da ; 0x63bc
        0x000060e4:    a095        ..      ADR      r0,{pc}+0x258 ; 0x633c
        0x000060e6:    f003fb57    ..W.    BL       __0printf$5 ; 0x9798
        0x000060ea:    6ee0        .n      LDR      r0,[r4,#0x6c]
        0x000060ec:    b120         .      CBZ      r0,0x60f8 ; tcp_enqueue_flags + 184
        0x000060ee:    e006        ..      B        0x60fe ; tcp_enqueue_flags + 190
        0x000060f0:    e7ff        ..      B        0x60f2 ; tcp_enqueue_flags + 178
        0x000060f2:    4648        HF      MOV      r0,r9
        0x000060f4:    e8bd83f8    ....    POP      {r3-r9,pc}
        0x000060f8:    66e5        .f      STR      r5,[r4,#0x6c]
        0x000060fa:    e004        ..      B        0x6106 ; tcp_enqueue_flags + 198
        0x000060fc:    4608        .F      MOV      r0,r1
        0x000060fe:    6801        .h      LDR      r1,[r0,#0]
        0x00006100:    2900        .)      CMP      r1,#0
        0x00006102:    d1fb        ..      BNE      0x60fc ; tcp_enqueue_flags + 188
        0x00006104:    6005        .`      STR      r5,[r0,#0]
        0x00006106:    2000        .       MOVS     r0,#0
        0x00006108:    f8a4006a    ..j.    STRH     r0,[r4,#0x6a]
        0x0000610c:    07b0        ..      LSLS     r0,r6,#30
        0x0000610e:    d007        ..      BEQ      0x6120 ; tcp_enqueue_flags + 224
        0x00006110:    6de0        .m      LDR      r0,[r4,#0x5c]
        0x00006112:    1c40        @.      ADDS     r0,r0,#1
        0x00006114:    65e0        .e      STR      r0,[r4,#0x5c]
        0x00006116:    f8b40066    ..f.    LDRH     r0,[r4,#0x66]
        0x0000611a:    1e40        @.      SUBS     r0,r0,#1
        0x0000611c:    f8a40066    ..f.    STRH     r0,[r4,#0x66]
        0x00006120:    07f0        ..      LSLS     r0,r6,#31
        0x00006122:    d003        ..      BEQ      0x612c ; tcp_enqueue_flags + 236
        0x00006124:    7fa0        ..      LDRB     r0,[r4,#0x1e]
        0x00006126:    f0400020    @. .    ORR      r0,r0,#0x20
        0x0000612a:    77a0        .w      STRB     r0,[r4,#0x1e]
        0x0000612c:    6868        hh      LDR      r0,[r5,#4]
        0x0000612e:    f7fdfb43    ..C.    BL       pbuf_clen ; 0x37b8
        0x00006132:    f8b41068    ..h.    LDRH     r1,[r4,#0x68]
        0x00006136:    4408        .D      ADD      r0,r0,r1
        0x00006138:    0400        ..      LSLS     r0,r0,#16
        0x0000613a:    0c00        ..      LSRS     r0,r0,#16
        0x0000613c:    f8a40068    ..h.    STRH     r0,[r4,#0x68]
        0x00006140:    d00a        ..      BEQ      0x6158 ; tcp_enqueue_flags + 280
        0x00006142:    6f20         o      LDR      r0,[r4,#0x70]
        0x00006144:    b940        @.      CBNZ     r0,0x6158 ; tcp_enqueue_flags + 280
        0x00006146:    6ee0        .n      LDR      r0,[r4,#0x6c]
        0x00006148:    b930        0.      CBNZ     r0,0x6158 ; tcp_enqueue_flags + 280
        0x0000614a:    a363        c.      ADR      r3,{pc}+0x18e ; 0x62d8
        0x0000614c:    f240322e    @..2    MOV      r2,#0x32e
        0x00006150:    a1a5        ..      ADR      r1,{pc}+0x298 ; 0x63e8
        0x00006152:    a07a        z.      ADR      r0,{pc}+0x1ea ; 0x633c
        0x00006154:    f003fb20    .. .    BL       __0printf$5 ; 0x9798
        0x00006158:    2000        .       MOVS     r0,#0
        0x0000615a:    e7cb        ..      B        0x60f4 ; tcp_enqueue_flags + 180
    tcp_send_fin
        0x0000615c:    b570        p.      PUSH     {r4-r6,lr}
        0x0000615e:    6ec4        .n      LDR      r4,[r0,#0x6c]
        0x00006160:    4605        .F      MOV      r5,r0
        0x00006162:    b90c        ..      CBNZ     r4,0x6168 ; tcp_send_fin + 12
        0x00006164:    e009        ..      B        0x617a ; tcp_send_fin + 30
        0x00006166:    4604        .F      MOV      r4,r0
        0x00006168:    6820         h      LDR      r0,[r4,#0]
        0x0000616a:    2800        .(      CMP      r0,#0
        0x0000616c:    d1fb        ..      BNE      0x6166 ; tcp_send_fin + 10
        0x0000616e:    6920         i      LDR      r0,[r4,#0x10]
        0x00006170:    8980        ..      LDRH     r0,[r0,#0xc]
        0x00006172:    f7fafdf1    ....    BL       lwip_ntohs ; 0xd58
        0x00006176:    0740        @.      LSLS     r0,r0,#29
        0x00006178:    d004        ..      BEQ      0x6184 ; tcp_send_fin + 40
        0x0000617a:    4628        (F      MOV      r0,r5
        0x0000617c:    e8bd4070    ..p@    POP      {r4-r6,lr}
        0x00006180:    2101        .!      MOVS     r1,#1
        0x00006182:    e75d        ].      B        tcp_enqueue_flags ; 0x6040
        0x00006184:    2001        .       MOVS     r0,#1
        0x00006186:    f7fafde5    ....    BL       lwip_htons ; 0xd54
        0x0000618a:    4601        .F      MOV      r1,r0
        0x0000618c:    6920         i      LDR      r0,[r4,#0x10]
        0x0000618e:    8982        ..      LDRH     r2,[r0,#0xc]
        0x00006190:    4311        .C      ORRS     r1,r1,r2
        0x00006192:    8181        ..      STRH     r1,[r0,#0xc]
        0x00006194:    7fa8        ..      LDRB     r0,[r5,#0x1e]
        0x00006196:    f0400020    @. .    ORR      r0,r0,#0x20
        0x0000619a:    77a8        .w      STRB     r0,[r5,#0x1e]
        0x0000619c:    2000        .       MOVS     r0,#0
        0x0000619e:    bd70        p.      POP      {r4-r6,pc}
    tcp_pbuf_prealloc
        0x000061a0:    b570        p.      PUSH     {r4-r6,lr}
        0x000061a2:    f10d0e10    ....    ADD      lr,sp,#0x10
        0x000061a6:    461e        .F      MOV      r6,r3
        0x000061a8:    e8be1018    ....    LDM      lr!,{r3,r4,r12}
        0x000061ac:    460d        .F      MOV      r5,r1
        0x000061ae:    4291        .B      CMP      r1,r2
        0x000061b0:    d213        ..      BCS      0x61da ; tcp_pbuf_prealloc + 58
        0x000061b2:    07a4        ..      LSLS     r4,r4,#30
        0x000061b4:    d409        ..      BMI      0x61ca ; tcp_pbuf_prealloc + 42
        0x000061b6:    7f9c        ..      LDRB     r4,[r3,#0x1e]
        0x000061b8:    0664        d.      LSLS     r4,r4,#25
        0x000061ba:    d40e        ..      BMI      0x61da ; tcp_pbuf_prealloc + 58
        0x000061bc:    f1bc0f00    ....    CMP      r12,#0
        0x000061c0:    d003        ..      BEQ      0x61ca ; tcp_pbuf_prealloc + 42
        0x000061c2:    6edc        .n      LDR      r4,[r3,#0x6c]
        0x000061c4:    b90c        ..      CBNZ     r4,0x61ca ; tcp_pbuf_prealloc + 42
        0x000061c6:    6f1b        .o      LDR      r3,[r3,#0x70]
        0x000061c8:    b13b        ;.      CBZ      r3,0x61da ; tcp_pbuf_prealloc + 58
        0x000061ca:    f20531eb    ...1    ADD      r1,r5,#0x3eb
        0x000061ce:    f0210103    !...    BIC      r1,r1,#3
        0x000061d2:    4291        .B      CMP      r1,r2
        0x000061d4:    d800        ..      BHI      0x61d8 ; tcp_pbuf_prealloc + 56
        0x000061d6:    460a        .F      MOV      r2,r1
        0x000061d8:    b291        ..      UXTH     r1,r2
        0x000061da:    2200        ."      MOVS     r2,#0
        0x000061dc:    f7fdf81e    ....    BL       pbuf_alloc ; 0x321c
        0x000061e0:    0004        ..      MOVS     r4,r0
        0x000061e2:    d00e        ..      BEQ      0x6202 ; tcp_pbuf_prealloc + 98
        0x000061e4:    6820         h      LDR      r0,[r4,#0]
        0x000061e6:    b130        0.      CBZ      r0,0x61f6 ; tcp_pbuf_prealloc + 86
        0x000061e8:    a33b        ;.      ADR      r3,{pc}+0xf0 ; 0x62d8
        0x000061ea:    f2401203    @...    MOV      r2,#0x103
        0x000061ee:    a188        ..      ADR      r1,{pc}+0x222 ; 0x6410
        0x000061f0:    a052        R.      ADR      r0,{pc}+0x14c ; 0x633c
        0x000061f2:    f003fad1    ....    BL       __0printf$5 ; 0x9798
        0x000061f6:    8960        `.      LDRH     r0,[r4,#0xa]
        0x000061f8:    1b40        @.      SUBS     r0,r0,r5
        0x000061fa:    8030        0.      STRH     r0,[r6,#0]
        0x000061fc:    8125        %.      STRH     r5,[r4,#8]
        0x000061fe:    8165        e.      STRH     r5,[r4,#0xa]
        0x00006200:    4620         F      MOV      r0,r4
        0x00006202:    bd70        p.      POP      {r4-r6,pc}
    tcp_write_checks
        0x00006204:    b510        ..      PUSH     {r4,lr}
        0x00006206:    7e02        .~      LDRB     r2,[r0,#0x18]
        0x00006208:    2a04        .*      CMP      r2,#4
        0x0000620a:    d008        ..      BEQ      0x621e ; tcp_write_checks + 26
        0x0000620c:    2a07        .*      CMP      r2,#7
        0x0000620e:    d006        ..      BEQ      0x621e ; tcp_write_checks + 26
        0x00006210:    2a02        .*      CMP      r2,#2
        0x00006212:    d004        ..      BEQ      0x621e ; tcp_write_checks + 26
        0x00006214:    2a03        .*      CMP      r2,#3
        0x00006216:    d002        ..      BEQ      0x621e ; tcp_write_checks + 26
        0x00006218:    f06f000c    o...    MVN      r0,#0xc
        0x0000621c:    bd10        ..      POP      {r4,pc}
        0x0000621e:    b321        !.      CBZ      r1,0x626a ; tcp_write_checks + 102
        0x00006220:    f8b03066    ..f0    LDRH     r3,[r0,#0x66]
        0x00006224:    f04f32ff    O..2    MOV      r2,#0xffffffff
        0x00006228:    428b        .B      CMP      r3,r1
        0x0000622a:    d303        ..      BCC      0x6234 ; tcp_write_checks + 48
        0x0000622c:    f8b01068    ..h.    LDRH     r1,[r0,#0x68]
        0x00006230:    2908        .)      CMP      r1,#8
        0x00006232:    d305        ..      BCC      0x6240 ; tcp_write_checks + 60
        0x00006234:    7f81        ..      LDRB     r1,[r0,#0x1e]
        0x00006236:    f0410180    A...    ORR      r1,r1,#0x80
        0x0000623a:    7781        .w      STRB     r1,[r0,#0x1e]
        0x0000623c:    4610        .F      MOV      r0,r2
        0x0000623e:    bd10        ..      POP      {r4,pc}
        0x00006240:    2900        .)      CMP      r1,#0
        0x00006242:    6f01        .o      LDR      r1,[r0,#0x70]
        0x00006244:    d007        ..      BEQ      0x6256 ; tcp_write_checks + 82
        0x00006246:    b981        ..      CBNZ     r1,0x626a ; tcp_write_checks + 102
        0x00006248:    6ec0        .n      LDR      r0,[r0,#0x6c]
        0x0000624a:    b970        p.      CBNZ     r0,0x626a ; tcp_write_checks + 102
        0x0000624c:    a322        ".      ADR      r3,{pc}+0x8c ; 0x62d8
        0x0000624e:    f44f72a4    O..r    MOV      r2,#0x148
        0x00006252:    a174        t.      ADR      r1,{pc}+0x1d2 ; 0x6424
        0x00006254:    e006        ..      B        0x6264 ; tcp_write_checks + 96
        0x00006256:    b909        ..      CBNZ     r1,0x625c ; tcp_write_checks + 88
        0x00006258:    6ec0        .n      LDR      r0,[r0,#0x6c]
        0x0000625a:    b130        0.      CBZ      r0,0x626a ; tcp_write_checks + 102
        0x0000625c:    a31e        ..      ADR      r3,{pc}+0x7c ; 0x62d8
        0x0000625e:    f240124b    @.K.    MOV      r2,#0x14b
        0x00006262:    a17f        ..      ADR      r1,{pc}+0x1fe ; 0x6460
        0x00006264:    a035        5.      ADR      r0,{pc}+0xd8 ; 0x633c
        0x00006266:    f003fa97    ....    BL       __0printf$5 ; 0x9798
        0x0000626a:    2000        .       MOVS     r0,#0
        0x0000626c:    bd10        ..      POP      {r4,pc}
    tcp_write
        0x0000626e:    e92d4fff    -..O    PUSH     {r0-r11,lr}
        0x00006272:    4606        .F      MOV      r6,r0
        0x00006274:    2000        .       MOVS     r0,#0
        0x00006276:    b08b        ..      SUB      sp,sp,#0x2c
        0x00006278:    4691        .F      MOV      r9,r2
        0x0000627a:    e9cd0006    ....    STRD     r0,r0,[sp,#0x18]
        0x0000627e:    9009        ..      STR      r0,[sp,#0x24]
        0x00006280:    9003        ..      STR      r0,[sp,#0xc]
        0x00006282:    900a        ..      STR      r0,[sp,#0x28]
        0x00006284:    f8ad0010    ....    STRH     r0,[sp,#0x10]
        0x00006288:    8ef2        ..      LDRH     r2,[r6,#0x36]
        0x0000628a:    f8b63062    ..b0    LDRH     r3,[r6,#0x62]
        0x0000628e:    4604        .F      MOV      r4,r0
        0x00006290:    4607        .F      MOV      r7,r0
        0x00006292:    4605        .F      MOV      r5,r0
        0x00006294:    4601        .F      MOV      r1,r0
        0x00006296:    4680        .F      MOV      r8,r0
        0x00006298:    ebb20f53    ..S.    CMP      r2,r3,LSR #1
        0x0000629c:    d300        ..      BCC      0x62a0 ; tcp_write + 50
        0x0000629e:    085a        Z.      LSRS     r2,r3,#1
        0x000062a0:    9205        ..      STR      r2,[sp,#0x14]
        0x000062a2:    9a0c        ..      LDR      r2,[sp,#0x30]
        0x000062a4:    b15a        Z.      CBZ      r2,0x62be ; tcp_write + 80
        0x000062a6:    4649        IF      MOV      r1,r9
        0x000062a8:    4630        0F      MOV      r0,r6
        0x000062aa:    f7ffffab    ....    BL       tcp_write_checks ; 0x6204
        0x000062ae:    2800        .(      CMP      r0,#0
        0x000062b0:    d10e        ..      BNE      0x62d0 ; tcp_write + 98
        0x000062b2:    f8b6a068    ..h.    LDRH     r10,[r6,#0x68]
        0x000062b6:    6ef2        .n      LDR      r2,[r6,#0x6c]
        0x000062b8:    b16a        j.      CBZ      r2,0x62d6 ; tcp_write + 104
        0x000062ba:    4614        .F      MOV      r4,r2
        0x000062bc:    e105        ..      B        0x64ca ; tcp_write + 604
        0x000062be:    a306        ..      ADR      r3,{pc}+0x1a ; 0x62d8
        0x000062c0:    f44f72bf    O..r    MOV      r2,#0x17e
        0x000062c4:    a173        s.      ADR      r1,{pc}+0x1d0 ; 0x6494
        0x000062c6:    a01d        ..      ADR      r0,{pc}+0x76 ; 0x633c
        0x000062c8:    f003fa66    ..f.    BL       __0printf$5 ; 0x9798
        0x000062cc:    f06f000d    o...    MVN      r0,#0xd
        0x000062d0:    b00f        ..      ADD      sp,sp,#0x3c
        0x000062d2:    e8bd8ff0    ....    POP      {r4-r11,pc}
        0x000062d6:    e18b        ..      B        0x65f0 ; tcp_write + 898
    $d
        0x000062d8:    2e5c2e2e    ..\.    DCD    777793070
        0x000062dc:    2e2e5c2e    .\..    DCD    774790190
        0x000062e0:    6968545c    \Thi    DCD    1768445020
        0x000062e4:    61506472    rdPa    DCD    1632658546
        0x000062e8:    5c797472    rty\    DCD    1551463538
        0x000062ec:    7069776c    lwip    DCD    1885960044
        0x000062f0:    342e312d    -1.4    DCD    875442477
        0x000062f4:    735c312e    .1\s    DCD    1935421742
        0x000062f8:    635c6372    rc\c    DCD    1666999154
        0x000062fc:    5c65726f    ore\    DCD    1550152303
        0x00006300:    5f706374    tcp_    DCD    1601201012
        0x00006304:    2e74756f    out.    DCD    779384175
        0x00006308:    00000063    c...    DCD    99
        0x0000630c:    63656863    chec    DCD    1667590243
        0x00006310:    6874206b    k th    DCD    1752440939
        0x00006314:    66207461    at f    DCD    1713402977
        0x00006318:    74737269    irst    DCD    1953722985
        0x0000631c:    75627020     pbu    DCD    1969385504
        0x00006320:    61632066    f ca    DCD    1633886310
        0x00006324:    6f68206e    n ho    DCD    1869095022
        0x00006328:    7320646c    ld s    DCD    1931502700
        0x0000632c:    63757274    truc    DCD    1668641396
        0x00006330:    63742074    t tc    DCD    1668554868
        0x00006334:    64685f70    p_hd    DCD    1684561776
        0x00006338:    00000072    r...    DCD    114
        0x0000633c:    65737341    Asse    DCD    1702064961
        0x00006340:    6f697472    rtio    DCD    1869182066
        0x00006344:    2522206e    n "%    DCD    622993518
        0x00006348:    66202273    s" f    DCD    1713382003
        0x0000634c:    656c6961    aile    DCD    1701603681
        0x00006350:    74612064    d at    DCD    1952522340
        0x00006354:    6e696c20     lin    DCD    1852402720
        0x00006358:    64252065    e %d    DCD    1680154725
        0x0000635c:    206e6920     in     DCD    544106784
        0x00006360:    000a7325    %s..    DCD    684837
        0x00006364:    00009bb8    ....    DCD    39864
        0x00006368:    5f706374    tcp_    DCD    1601201012
        0x0000636c:    75716e65    enqu    DCD    1970368101
        0x00006370:    5f657565    eue_    DCD    1600484709
        0x00006374:    67616c66    flag    DCD    1734437990
        0x00006378:    63203a73    s: c    DCD    1663056499
        0x0000637c:    6b636568    heck    DCD    1801676136
        0x00006380:    61687420     tha    DCD    1634235424
        0x00006384:    69662074    t fi    DCD    1768300660
        0x00006388:    20747372    rst     DCD    544502642
        0x0000638c:    66756270    pbuf    DCD    1718968944
        0x00006390:    6e616320     can    DCD    1851876128
        0x00006394:    6c6f6820     hol    DCD    1819240480
        0x00006398:    706f2064    d op    DCD    1886330980
        0x0000639c:    6e656c74    tlen    DCD    1852140660
        0x000063a0:    00000000    ....    DCD    0
        0x000063a4:    2d676573    seg-    DCD    761750899
        0x000063a8:    7063743e    >tcp    DCD    1885566014
        0x000063ac:    20726468    hdr     DCD    544367720
        0x000063b0:    20746f6e    not     DCD    544501614
        0x000063b4:    67696c61    alig    DCD    1734962273
        0x000063b8:    0064656e    ned.    DCD    6579566
        0x000063bc:    5f706374    tcp_    DCD    1601201012
        0x000063c0:    75716e65    enqu    DCD    1970368101
        0x000063c4:    5f657565    eue_    DCD    1600484709
        0x000063c8:    67616c66    flag    DCD    1734437990
        0x000063cc:    69203a73    s: i    DCD    1763719795
        0x000063d0:    6c61766e    nval    DCD    1818326638
        0x000063d4:    73206469    id s    DCD    1931502697
        0x000063d8:    656d6765    egme    DCD    1701668709
        0x000063dc:    6c20746e    nt l    DCD    1814066286
        0x000063e0:    74676e65    engt    DCD    1952935525
        0x000063e4:    00000068    h...    DCD    104
        0x000063e8:    5f706374    tcp_    DCD    1601201012
        0x000063ec:    75716e65    enqu    DCD    1970368101
        0x000063f0:    5f657565    eue_    DCD    1600484709
        0x000063f4:    67616c66    flag    DCD    1734437990
        0x000063f8:    69203a73    s: i    DCD    1763719795
        0x000063fc:    6c61766e    nval    DCD    1818326638
        0x00006400:    71206469    id q    DCD    1897948265
        0x00006404:    65756575    ueue    DCD    1702192501
        0x00006408:    6e656c20     len    DCD    1852140576
        0x0000640c:    00687467    gth.    DCD    6845543
        0x00006410:    6465656e    need    DCD    1684366702
        0x00006414:    636e7520     unc    DCD    1668183328
        0x00006418:    6e696168    hain    DCD    1852399976
        0x0000641c:    70206465    ed p    DCD    1881171045
        0x00006420:    00667562    buf.    DCD    6714722
        0x00006424:    5f706374    tcp_    DCD    1601201012
        0x00006428:    74697277    writ    DCD    1953067639
        0x0000642c:    70203a65    e: p    DCD    1881160293
        0x00006430:    73667562    bufs    DCD    1936094562
        0x00006434:    206e6f20     on     DCD    544108320
        0x00006438:    75657571    queu    DCD    1969583473
        0x0000643c:    3e3d2065    e =>    DCD    1044193381
        0x00006440:    20746120     at     DCD    544497952
        0x00006444:    7361656c    leas    DCD    1935762796
        0x00006448:    6e6f2074    t on    DCD    1852776564
        0x0000644c:    75712065    e qu    DCD    1970348133
        0x00006450:    20657565    eue     DCD    543520101
        0x00006454:    2d6e6f6e    non-    DCD    762212206
        0x00006458:    74706d65    empt    DCD    1953525093
        0x0000645c:    00000079    y...    DCD    121
        0x00006460:    5f706374    tcp_    DCD    1601201012
        0x00006464:    74697277    writ    DCD    1953067639
        0x00006468:    6e203a65    e: n    DCD    1847605861
        0x0000646c:    6270206f    o pb    DCD    1651515503
        0x00006470:    20736675    ufs     DCD    544433781
        0x00006474:    71206e6f    on q    DCD    1897950831
        0x00006478:    65756575    ueue    DCD    1702192501
        0x0000647c:    203e3d20     =>     DCD    540949792
        0x00006480:    68746f62    both    DCD    1752461154
        0x00006484:    65757120     que    DCD    1702195488
        0x00006488:    20736575    ues     DCD    544433525
        0x0000648c:    74706d65    empt    DCD    1953525093
        0x00006490:    00000079    y...    DCD    121
        0x00006494:    5f706374    tcp_    DCD    1601201012
        0x00006498:    74697277    writ    DCD    1953067639
        0x0000649c:    61203a65    e: a    DCD    1629502053
        0x000064a0:    3d206772    rg =    DCD    1025533810
        0x000064a4:    554e203d    = NU    DCD    1431183421
        0x000064a8:    28204c4c    LL (    DCD    673205324
        0x000064ac:    676f7270    prog    DCD    1735357040
        0x000064b0:    6d6d6172    ramm    DCD    1835884914
        0x000064b4:    76207265    er v    DCD    1981837925
        0x000064b8:    616c6f69    iola    DCD    1634496361
        0x000064bc:    20736574    tes     DCD    544433524
        0x000064c0:    29495041    API)    DCD    692670529
        0x000064c4:    00000000    ....    DCD    0
    $t
        0x000064c8:    4604        .F      MOV      r4,r0
        0x000064ca:    6820         h      LDR      r0,[r4,#0]
        0x000064cc:    2800        .(      CMP      r0,#0
        0x000064ce:    d1fb        ..      BNE      0x64c8 ; tcp_write + 602
        0x000064d0:    7b22        "{      LDRB     r2,[r4,#0xc]
        0x000064d2:    07d3        ..      LSLS     r3,r2,#31
        0x000064d4:    d001        ..      BEQ      0x64da ; tcp_write + 620
        0x000064d6:    2004        .       MOVS     r0,#4
        0x000064d8:    e000        ..      B        0x64dc ; tcp_write + 622
        0x000064da:    2000        .       MOVS     r0,#0
        0x000064dc:    210c        .!      MOVS     r1,#0xc
        0x000064de:    0792        ..      LSLS     r2,r2,#30
        0x000064e0:    d400        ..      BMI      0x64e4 ; tcp_write + 630
        0x000064e2:    2100        .!      MOVS     r1,#0
        0x000064e4:    1842        B.      ADDS     r2,r0,r1
        0x000064e6:    8921        !.      LDRH     r1,[r4,#8]
        0x000064e8:    9805        ..      LDR      r0,[sp,#0x14]
        0x000064ea:    4411        .D      ADD      r1,r1,r2
        0x000064ec:    1a42        B.      SUBS     r2,r0,r1
        0x000064ee:    f8b6006a    ..j.    LDRH     r0,[r6,#0x6a]
        0x000064f2:    8961        a.      LDRH     r1,[r4,#0xa]
        0x000064f4:    fa1ffb82    ....    UXTH     r11,r2
        0x000064f8:    4288        .B      CMP      r0,r1
        0x000064fa:    d008        ..      BEQ      0x650e ; tcp_write + 672
        0x000064fc:    f2af2328    ..(#    ADR      r3,{pc}-0x224 ; 0x62d8
        0x00006500:    f44f72de    O..r    MOV      r2,#0x1bc
        0x00006504:    a1fb        ..      ADR      r1,{pc}+0x3f0 ; 0x68f4
        0x00006506:    f2af10cc    ....    ADR      r0,{pc}-0x1ca ; 0x633c
        0x0000650a:    f003f945    ..E.    BL       __0printf$5 ; 0x9798
        0x0000650e:    f8b6206a    ..j     LDRH     r2,[r6,#0x6a]
        0x00006512:    f8ad2010    ...     STRH     r2,[sp,#0x10]
        0x00006516:    b352        R.      CBZ      r2,0x656e ; tcp_write + 768
        0x00006518:    45d8        .E      CMP      r8,r11
        0x0000651a:    d908        ..      BLS      0x652e ; tcp_write + 704
        0x0000651c:    f2af2348    ..H#    ADR      r3,{pc}-0x244 ; 0x62d8
        0x00006520:    f24012c1    @...    MOV      r2,#0x1c1
        0x00006524:    a1ff        ..      ADR      r1,{pc}+0x400 ; 0x6924
        0x00006526:    f2af10ec    ....    ADR      r0,{pc}-0x1ea ; 0x633c
        0x0000652a:    f003f935    ..5.    BL       __0printf$5 ; 0x9798
        0x0000652e:    f8bd8010    ....    LDRH     r8,[sp,#0x10]
        0x00006532:    4627        'F      MOV      r7,r4
        0x00006534:    4642        BF      MOV      r2,r8
        0x00006536:    45c8        .E      CMP      r8,r9
        0x00006538:    d300        ..      BCC      0x653c ; tcp_write + 718
        0x0000653a:    46c8        .F      MOV      r8,r9
        0x0000653c:    eb050308    ....    ADD      r3,r5,r8
        0x00006540:    eba20208    ....    SUB      r2,r2,r8
        0x00006544:    b29d        ..      UXTH     r5,r3
        0x00006546:    0412        ..      LSLS     r2,r2,#16
        0x00006548:    0c12        ..      LSRS     r2,r2,#16
        0x0000654a:    ebab0308    ....    SUB      r3,r11,r8
        0x0000654e:    f8ad2010    ...     STRH     r2,[sp,#0x10]
        0x00006552:    fa1ffb83    ....    UXTH     r11,r3
        0x00006556:    d00a        ..      BEQ      0x656e ; tcp_write + 768
        0x00006558:    454d        ME      CMP      r5,r9
        0x0000655a:    d008        ..      BEQ      0x656e ; tcp_write + 768
        0x0000655c:    f2af2388    ...#    ADR      r3,{pc}-0x284 ; 0x62d8
        0x00006560:    f24012c9    @...    MOV      r2,#0x1c9
        0x00006564:    a1f7        ..      ADR      r1,{pc}+0x3e0 ; 0x6944
        0x00006566:    f2af202c    ..,     ADR      r0,{pc}-0x22a ; 0x633c
        0x0000656a:    f003f915    ....    BL       __0printf$5 ; 0x9798
        0x0000656e:    454d        ME      CMP      r5,r9
        0x00006570:    d23d        =.      BCS      0x65ee ; tcp_write + 896
        0x00006572:    f1bb0f00    ....    CMP      r11,#0
        0x00006576:    d03a        :.      BEQ      0x65ee ; tcp_write + 896
        0x00006578:    8922        ".      LDRH     r2,[r4,#8]
        0x0000657a:    b3c2        ..      CBZ      r2,0x65ee ; tcp_write + 896
        0x0000657c:    eba90305    ....    SUB      r3,r9,r5
        0x00006580:    465a        ZF      MOV      r2,r11
        0x00006582:    455b        [E      CMP      r3,r11
        0x00006584:    dc00        ..      BGT      0x6588 ; tcp_write + 794
        0x00006586:    461a        .F      MOV      r2,r3
        0x00006588:    b291        ..      UXTH     r1,r2
        0x0000658a:    9a0e        ..      LDR      r2,[sp,#0x38]
        0x0000658c:    4627        'F      MOV      r7,r4
        0x0000658e:    9108        ..      STR      r1,[sp,#0x20]
        0x00006590:    07d2        ..      LSLS     r2,r2,#31
        0x00006592:    d019        ..      BEQ      0x65c8 ; tcp_write + 858
        0x00006594:    2301        .#      MOVS     r3,#1
        0x00006596:    9a0e        ..      LDR      r2,[sp,#0x38]
        0x00006598:    9600        ..      STR      r6,[sp,#0]
        0x0000659a:    e9cd2301    ...#    STRD     r2,r3,[sp,#4]
        0x0000659e:    ab04        ..      ADD      r3,sp,#0x10
        0x000065a0:    465a        ZF      MOV      r2,r11
        0x000065a2:    2003        .       MOVS     r0,#3
        0x000065a4:    9908        ..      LDR      r1,[sp,#0x20]
        0x000065a6:    f7fffdfb    ....    BL       tcp_pbuf_prealloc ; 0x61a0
        0x000065aa:    9003        ..      STR      r0,[sp,#0xc]
        0x000065ac:    b3f0        ..      CBZ      r0,0x662c ; tcp_write + 958
        0x000065ae:    8960        `.      LDRH     r0,[r4,#0xa]
        0x000065b0:    f8bd1010    ....    LDRH     r1,[sp,#0x10]
        0x000065b4:    1842        B.      ADDS     r2,r0,r1
        0x000065b6:    8162        b.      STRH     r2,[r4,#0xa]
        0x000065b8:    9a0c        ..      LDR      r2,[sp,#0x30]
        0x000065ba:    1951        Q.      ADDS     r1,r2,r5
        0x000065bc:    9a03        ..      LDR      r2,[sp,#0xc]
        0x000065be:    6850        Ph      LDR      r0,[r2,#4]
        0x000065c0:    9a08        ..      LDR      r2,[sp,#0x20]
        0x000065c2:    f003f870    ..p.    BL       __aeabi_memcpy ; 0x96a6
        0x000065c6:    e008        ..      B        0x65da ; tcp_write + 876
        0x000065c8:    2201        ."      MOVS     r2,#1
        0x000065ca:    2003        .       MOVS     r0,#3
        0x000065cc:    f7fcfe26    ..&.    BL       pbuf_alloc ; 0x321c
        0x000065d0:    9003        ..      STR      r0,[sp,#0xc]
        0x000065d2:    b358        X.      CBZ      r0,0x662c ; tcp_write + 958
        0x000065d4:    9a0c        ..      LDR      r2,[sp,#0x30]
        0x000065d6:    1951        Q.      ADDS     r1,r2,r5
        0x000065d8:    6041        A`      STR      r1,[r0,#4]
        0x000065da:    9908        ..      LDR      r1,[sp,#0x20]
        0x000065dc:    9803        ..      LDR      r0,[sp,#0xc]
        0x000065de:    186a        j.      ADDS     r2,r5,r1
        0x000065e0:    b295        ..      UXTH     r5,r2
        0x000065e2:    f7fdf8e9    ....    BL       pbuf_clen ; 0x37b8
        0x000065e6:    eb00020a    ....    ADD      r2,r0,r10
        0x000065ea:    fa1ffa82    ....    UXTH     r10,r2
        0x000065ee:    e09d        ..      B        0x672c ; tcp_write + 1214
        0x000065f0:    f8b6206a    ..j     LDRH     r2,[r6,#0x6a]
        0x000065f4:    b3f2        ..      CBZ      r2,0x6674 ; tcp_write + 1030
        0x000065f6:    f2af3320    .. 3    ADR      r3,{pc}-0x31e ; 0x62d8
        0x000065fa:    f24012ff    @...    MOV      r2,#0x1ff
        0x000065fe:    a1d9        ..      ADR      r1,{pc}+0x366 ; 0x6964
        0x00006600:    f2af20c8    ...     ADR      r0,{pc}-0x2c4 ; 0x633c
        0x00006604:    f003f8c8    ....    BL       __0printf$5 ; 0x9798
        0x00006608:    e090        ..      B        0x672c ; tcp_write + 1214
        0x0000660a:    e9dd3105    ...1    LDRD     r3,r1,[sp,#0x14]
        0x0000660e:    eba90205    ....    SUB      r2,r9,r5
        0x00006612:    1a5b        [.      SUBS     r3,r3,r1
        0x00006614:    b292        ..      UXTH     r2,r2
        0x00006616:    fa1ffb83    ....    UXTH     r11,r3
        0x0000661a:    455a        ZE      CMP      r2,r11
        0x0000661c:    d800        ..      BHI      0x6620 ; tcp_write + 946
        0x0000661e:    4693        .F      MOV      r11,r2
        0x00006620:    9a0e        ..      LDR      r2,[sp,#0x38]
        0x00006622:    07d2        ..      LSLS     r2,r2,#31
        0x00006624:    d02e        ..      BEQ      0x6684 ; tcp_write + 1046
        0x00006626:    2301        .#      MOVS     r3,#1
        0x00006628:    9a07        ..      LDR      r2,[sp,#0x1c]
        0x0000662a:    e000        ..      B        0x662e ; tcp_write + 960
        0x0000662c:    e057        W.      B        0x66de ; tcp_write + 1136
        0x0000662e:    b102        ..      CBZ      r2,0x6632 ; tcp_write + 964
        0x00006630:    2300        .#      MOVS     r3,#0
        0x00006632:    9a0e        ..      LDR      r2,[sp,#0x38]
        0x00006634:    9600        ..      STR      r6,[sp,#0]
        0x00006636:    e9cd2301    ...#    STRD     r2,r3,[sp,#4]
        0x0000663a:    9906        ..      LDR      r1,[sp,#0x18]
        0x0000663c:    ab04        ..      ADD      r3,sp,#0x10
        0x0000663e:    eb0b0201    ....    ADD      r2,r11,r1
        0x00006642:    b291        ..      UXTH     r1,r2
        0x00006644:    2000        .       MOVS     r0,#0
        0x00006646:    9a05        ..      LDR      r2,[sp,#0x14]
        0x00006648:    f7fffdaa    ....    BL       tcp_pbuf_prealloc ; 0x61a0
        0x0000664c:    0002        ..      MOVS     r2,r0
        0x0000664e:    9001        ..      STR      r0,[sp,#4]
        0x00006650:    d045        E.      BEQ      0x66de ; tcp_write + 1136
        0x00006652:    8952        R.      LDRH     r2,[r2,#0xa]
        0x00006654:    455a        ZE      CMP      r2,r11
        0x00006656:    d208        ..      BCS      0x666a ; tcp_write + 1020
        0x00006658:    f2af3384    ...3    ADR      r3,{pc}-0x380 ; 0x62d8
        0x0000665c:    f240221b    @.."    MOV      r2,#0x21b
        0x00006660:    a1cc        ..      ADR      r1,{pc}+0x334 ; 0x6994
        0x00006662:    f2af3028    ..(0    ADR      r0,{pc}-0x326 ; 0x633c
        0x00006666:    f003f897    ....    BL       __0printf$5 ; 0x9798
        0x0000666a:    9a01        ..      LDR      r2,[sp,#4]
        0x0000666c:    9b0c        ..      LDR      r3,[sp,#0x30]
        0x0000666e:    442b        +D      ADD      r3,r3,r5
        0x00006670:    6852        Rh      LDR      r2,[r2,#4]
        0x00006672:    e000        ..      B        0x6676 ; tcp_write + 1032
        0x00006674:    e05a        Z.      B        0x672c ; tcp_write + 1214
        0x00006676:    9906        ..      LDR      r1,[sp,#0x18]
        0x00006678:    1850        P.      ADDS     r0,r2,r1
        0x0000667a:    465a        ZF      MOV      r2,r11
        0x0000667c:    4619        .F      MOV      r1,r3
        0x0000667e:    f003f812    ....    BL       __aeabi_memcpy ; 0x96a6
        0x00006682:    e01f        ..      B        0x66c4 ; tcp_write + 1110
        0x00006684:    f8bd2010    ...     LDRH     r2,[sp,#0x10]
        0x00006688:    b142        B.      CBZ      r2,0x669c ; tcp_write + 1070
        0x0000668a:    f2af33b4    ...3    ADR      r3,{pc}-0x3b2 ; 0x62d8
        0x0000668e:    f2402226    @.&"    MOV      r2,#0x226
        0x00006692:    a1d0        ..      ADR      r1,{pc}+0x342 ; 0x69d4
        0x00006694:    f2af305c    ..\0    ADR      r0,{pc}-0x358 ; 0x633c
        0x00006698:    f003f87e    ..~.    BL       __0printf$5 ; 0x9798
        0x0000669c:    2201        ."      MOVS     r2,#1
        0x0000669e:    4659        YF      MOV      r1,r11
        0x000066a0:    2000        .       MOVS     r0,#0
        0x000066a2:    f7fcfdbb    ....    BL       pbuf_alloc ; 0x321c
        0x000066a6:    0007        ..      MOVS     r7,r0
        0x000066a8:    d019        ..      BEQ      0x66de ; tcp_write + 1136
        0x000066aa:    9a0c        ..      LDR      r2,[sp,#0x30]
        0x000066ac:    442a        *D      ADD      r2,r2,r5
        0x000066ae:    607a        z`      STR      r2,[r7,#4]
        0x000066b0:    2200        ."      MOVS     r2,#0
        0x000066b2:    4610        .F      MOV      r0,r2
        0x000066b4:    9906        ..      LDR      r1,[sp,#0x18]
        0x000066b6:    f7fcfdb1    ....    BL       pbuf_alloc ; 0x321c
        0x000066ba:    9001        ..      STR      r0,[sp,#4]
        0x000066bc:    b180        ..      CBZ      r0,0x66e0 ; tcp_write + 1138
        0x000066be:    4639        9F      MOV      r1,r7
        0x000066c0:    f7fdf889    ....    BL       pbuf_cat ; 0x37d6
        0x000066c4:    9801        ..      LDR      r0,[sp,#4]
        0x000066c6:    f7fdf877    ..w.    BL       pbuf_clen ; 0x37b8
        0x000066ca:    eb00030a    ....    ADD      r3,r0,r10
        0x000066ce:    fa1ffa83    ....    UXTH     r10,r3
        0x000066d2:    f1ba0f08    ....    CMP      r10,#8
        0x000066d6:    d905        ..      BLS      0x66e4 ; tcp_write + 1142
        0x000066d8:    9801        ..      LDR      r0,[sp,#4]
        0x000066da:    f7fcfd57    ..W.    BL       pbuf_free ; 0x318c
        0x000066de:    e09d        ..      B        0x681c ; tcp_write + 1454
        0x000066e0:    4638        8F      MOV      r0,r7
        0x000066e2:    e7fa        ..      B        0x66da ; tcp_write + 1132
        0x000066e4:    9b0a        ..      LDR      r3,[sp,#0x28]
        0x000066e6:    9300        ..      STR      r3,[sp,#0]
        0x000066e8:    6df3        .m      LDR      r3,[r6,#0x5c]
        0x000066ea:    2200        ."      MOVS     r2,#0
        0x000066ec:    442b        +D      ADD      r3,r3,r5
        0x000066ee:    4630        0F      MOV      r0,r6
        0x000066f0:    9901        ..      LDR      r1,[sp,#4]
        0x000066f2:    f7fffc57    ..W.    BL       tcp_create_segment ; 0x5fa4
        0x000066f6:    0007        ..      MOVS     r7,r0
        0x000066f8:    d072        r.      BEQ      0x67e0 ; tcp_write + 1394
        0x000066fa:    f8bd2010    ...     LDRH     r2,[sp,#0x10]
        0x000066fe:    817a        z.      STRH     r2,[r7,#0xa]
        0x00006700:    9a07        ..      LDR      r2,[sp,#0x1c]
        0x00006702:    b112        ..      CBZ      r2,0x670a ; tcp_write + 1180
        0x00006704:    9809        ..      LDR      r0,[sp,#0x24]
        0x00006706:    b110        ..      CBZ      r0,0x670e ; tcp_write + 1184
        0x00006708:    e00a        ..      B        0x6720 ; tcp_write + 1202
        0x0000670a:    9707        ..      STR      r7,[sp,#0x1c]
        0x0000670c:    e00a        ..      B        0x6724 ; tcp_write + 1206
        0x0000670e:    f2af4338    ..8C    ADR      r3,{pc}-0x436 ; 0x62d8
        0x00006712:    f240225b    @.["    MOV      r2,#0x25b
        0x00006716:    a1b3        ..      ADR      r1,{pc}+0x2ce ; 0x69e4
        0x00006718:    f2af30e0    ...0    ADR      r0,{pc}-0x3dc ; 0x633c
        0x0000671c:    f003f83c    ..<.    BL       __0printf$5 ; 0x9798
        0x00006720:    9809        ..      LDR      r0,[sp,#0x24]
        0x00006722:    6007        .`      STR      r7,[r0,#0]
        0x00006724:    eb05020b    ....    ADD      r2,r5,r11
        0x00006728:    b295        ..      UXTH     r5,r2
        0x0000672a:    9709        ..      STR      r7,[sp,#0x24]
        0x0000672c:    454d        ME      CMP      r5,r9
        0x0000672e:    f4ffaf6c    ..l.    BCC      0x660a ; tcp_write + 924
        0x00006732:    f1b80f00    ....    CMP      r8,#0
        0x00006736:    d026        &.      BEQ      0x6786 ; tcp_write + 1304
        0x00006738:    6865        eh      LDR      r5,[r4,#4]
        0x0000673a:    e00f        ..      B        0x675c ; tcp_write + 1262
        0x0000673c:    8928        (.      LDRH     r0,[r5,#8]
        0x0000673e:    4440        @D      ADD      r0,r0,r8
        0x00006740:    8128        (.      STRH     r0,[r5,#8]
        0x00006742:    6828        (h      LDR      r0,[r5,#0]
        0x00006744:    b948        H.      CBNZ     r0,0x675a ; tcp_write + 1260
        0x00006746:    8969        i.      LDRH     r1,[r5,#0xa]
        0x00006748:    6868        hh      LDR      r0,[r5,#4]
        0x0000674a:    4642        BF      MOV      r2,r8
        0x0000674c:    4408        .D      ADD      r0,r0,r1
        0x0000674e:    990c        ..      LDR      r1,[sp,#0x30]
        0x00006750:    f002ffa9    ....    BL       __aeabi_memcpy ; 0x96a6
        0x00006754:    8968        h.      LDRH     r0,[r5,#0xa]
        0x00006756:    4440        @D      ADD      r0,r0,r8
        0x00006758:    8168        h.      STRH     r0,[r5,#0xa]
        0x0000675a:    682d        -h      LDR      r5,[r5,#0]
        0x0000675c:    2d00        .-      CMP      r5,#0
        0x0000675e:    d1ed        ..      BNE      0x673c ; tcp_write + 1230
        0x00006760:    8920         .      LDRH     r0,[r4,#8]
        0x00006762:    4440        @D      ADD      r0,r0,r8
        0x00006764:    8120         .      STRH     r0,[r4,#8]
        0x00006766:    8960        `.      LDRH     r0,[r4,#0xa]
        0x00006768:    4540        @E      CMP      r0,r8
        0x0000676a:    d208        ..      BCS      0x677e ; tcp_write + 1296
        0x0000676c:    f2af4398    ...C    ADR      r3,{pc}-0x494 ; 0x62d8
        0x00006770:    f240227e    @.~"    MOV      r2,#0x27e
        0x00006774:    a1a0        ..      ADR      r1,{pc}+0x284 ; 0x69f8
        0x00006776:    f2af403c    ..<@    ADR      r0,{pc}-0x43a ; 0x633c
        0x0000677a:    f003f80d    ....    BL       __0printf$5 ; 0x9798
        0x0000677e:    8960        `.      LDRH     r0,[r4,#0xa]
        0x00006780:    eba00008    ....    SUB      r0,r0,r8
        0x00006784:    8160        `.      STRH     r0,[r4,#0xa]
        0x00006786:    f8bd0010    ....    LDRH     r0,[sp,#0x10]
        0x0000678a:    f8a6006a    ..j.    STRH     r0,[r6,#0x6a]
        0x0000678e:    9803        ..      LDR      r0,[sp,#0xc]
        0x00006790:    b190        ..      CBZ      r0,0x67b8 ; tcp_write + 1354
        0x00006792:    b944        D.      CBNZ     r4,0x67a6 ; tcp_write + 1336
        0x00006794:    f2af43c0    ...C    ADR      r3,{pc}-0x4bc ; 0x62d8
        0x00006798:    f240228a    @.."    MOV      r2,#0x28a
        0x0000679c:    a1a1        ..      ADR      r1,{pc}+0x288 ; 0x6a24
        0x0000679e:    f2af4064    ..d@    ADR      r0,{pc}-0x462 ; 0x633c
        0x000067a2:    f002fff9    ....    BL       __0printf$5 ; 0x9798
        0x000067a6:    6860        `h      LDR      r0,[r4,#4]
        0x000067a8:    9903        ..      LDR      r1,[sp,#0xc]
        0x000067aa:    f7fdf814    ....    BL       pbuf_cat ; 0x37d6
        0x000067ae:    9903        ..      LDR      r1,[sp,#0xc]
        0x000067b0:    8920         .      LDRH     r0,[r4,#8]
        0x000067b2:    8909        ..      LDRH     r1,[r1,#8]
        0x000067b4:    4408        .D      ADD      r0,r0,r1
        0x000067b6:    8120         .      STRH     r0,[r4,#8]
        0x000067b8:    9807        ..      LDR      r0,[sp,#0x1c]
        0x000067ba:    b194        ..      CBZ      r4,0x67e2 ; tcp_write + 1396
        0x000067bc:    6020         `      STR      r0,[r4,#0]
        0x000067be:    6df0        .m      LDR      r0,[r6,#0x5c]
        0x000067c0:    f1ba0f00    ....    CMP      r10,#0
        0x000067c4:    4448        HD      ADD      r0,r0,r9
        0x000067c6:    65f0        .e      STR      r0,[r6,#0x5c]
        0x000067c8:    f8b60066    ..f.    LDRH     r0,[r6,#0x66]
        0x000067cc:    eba00009    ....    SUB      r0,r0,r9
        0x000067d0:    f8a60066    ..f.    STRH     r0,[r6,#0x66]
        0x000067d4:    f8a6a068    ..h.    STRH     r10,[r6,#0x68]
        0x000067d8:    d010        ..      BEQ      0x67fc ; tcp_write + 1422
        0x000067da:    6f30        0o      LDR      r0,[r6,#0x70]
        0x000067dc:    b118        ..      CBZ      r0,0x67e6 ; tcp_write + 1400
        0x000067de:    e00d        ..      B        0x67fc ; tcp_write + 1422
        0x000067e0:    e01c        ..      B        0x681c ; tcp_write + 1454
        0x000067e2:    66f0        .f      STR      r0,[r6,#0x6c]
        0x000067e4:    e7eb        ..      B        0x67be ; tcp_write + 1360
        0x000067e6:    6ef0        .n      LDR      r0,[r6,#0x6c]
        0x000067e8:    b940        @.      CBNZ     r0,0x67fc ; tcp_write + 1422
        0x000067ea:    f2af5314    ...S    ADR      r3,{pc}-0x512 ; 0x62d8
        0x000067ee:    f24022ab    @.."    MOV      r2,#0x2ab
        0x000067f2:    a19a        ..      ADR      r1,{pc}+0x26a ; 0x6a5c
        0x000067f4:    f2af40bc    ...@    ADR      r0,{pc}-0x4b8 ; 0x633c
        0x000067f8:    f002ffce    ....    BL       __0printf$5 ; 0x9798
        0x000067fc:    b167        g.      CBZ      r7,0x6818 ; tcp_write + 1450
        0x000067fe:    6938        8i      LDR      r0,[r7,#0x10]
        0x00006800:    b150        P.      CBZ      r0,0x6818 ; tcp_write + 1450
        0x00006802:    980e        ..      LDR      r0,[sp,#0x38]
        0x00006804:    0780        ..      LSLS     r0,r0,#30
        0x00006806:    d407        ..      BMI      0x6818 ; tcp_write + 1450
        0x00006808:    2008        .       MOVS     r0,#8
        0x0000680a:    f7fafaa3    ....    BL       lwip_htons ; 0xd54
        0x0000680e:    4601        .F      MOV      r1,r0
        0x00006810:    6938        8i      LDR      r0,[r7,#0x10]
        0x00006812:    8982        ..      LDRH     r2,[r0,#0xc]
        0x00006814:    4311        .C      ORRS     r1,r1,r2
        0x00006816:    8181        ..      STRH     r1,[r0,#0xc]
        0x00006818:    2000        .       MOVS     r0,#0
        0x0000681a:    e559        Y.      B        0x62d0 ; tcp_write + 98
        0x0000681c:    7fb0        ..      LDRB     r0,[r6,#0x1e]
        0x0000681e:    f0400080    @...    ORR      r0,r0,#0x80
        0x00006822:    77b0        .w      STRB     r0,[r6,#0x1e]
        0x00006824:    9803        ..      LDR      r0,[sp,#0xc]
        0x00006826:    b108        ..      CBZ      r0,0x682c ; tcp_write + 1470
        0x00006828:    f7fcfcb0    ....    BL       pbuf_free ; 0x318c
        0x0000682c:    9807        ..      LDR      r0,[sp,#0x1c]
        0x0000682e:    b108        ..      CBZ      r0,0x6834 ; tcp_write + 1478
        0x00006830:    f7fdfae7    ....    BL       tcp_segs_free ; 0x3e02
        0x00006834:    f8b60068    ..h.    LDRH     r0,[r6,#0x68]
        0x00006838:    b160        `.      CBZ      r0,0x6854 ; tcp_write + 1510
        0x0000683a:    6f30        0o      LDR      r0,[r6,#0x70]
        0x0000683c:    b950        P.      CBNZ     r0,0x6854 ; tcp_write + 1510
        0x0000683e:    6ef0        .n      LDR      r0,[r6,#0x6c]
        0x00006840:    b940        @.      CBNZ     r0,0x6854 ; tcp_write + 1510
        0x00006842:    f2af536c    ..lS    ADR      r3,{pc}-0x56a ; 0x62d8
        0x00006846:    f44f7230    O.0r    MOV      r2,#0x2c0
        0x0000684a:    a184        ..      ADR      r1,{pc}+0x212 ; 0x6a5c
        0x0000684c:    f2af5014    ...P    ADR      r0,{pc}-0x510 ; 0x633c
        0x00006850:    f002ffa2    ....    BL       __0printf$5 ; 0x9798
        0x00006854:    f04f30ff    O..0    MOV      r0,#0xffffffff
        0x00006858:    e53a        :.      B        0x62d0 ; tcp_write + 98
    tcp_send_empty_ack
        0x0000685a:    b57c        |.      PUSH     {r2-r6,lr}
        0x0000685c:    4604        .F      MOV      r4,r0
        0x0000685e:    2500        .%      MOVS     r5,#0
        0x00006860:    6d00        .m      LDR      r0,[r0,#0x50]
        0x00006862:    f7fafa7b    ..{.    BL       lwip_htonl ; 0xd5c
        0x00006866:    4603        .F      MOV      r3,r0
        0x00006868:    2200        ."      MOVS     r2,#0
        0x0000686a:    4629        )F      MOV      r1,r5
        0x0000686c:    4620         F      MOV      r0,r4
        0x0000686e:    f7fffb59    ..Y.    BL       tcp_output_alloc_header ; 0x5f24
        0x00006872:    0005        ..      MOVS     r5,r0
        0x00006874:    d01c        ..      BEQ      0x68b0 ; tcp_send_empty_ack + 86
        0x00006876:    7fa0        ..      LDRB     r0,[r4,#0x1e]
        0x00006878:    686e        nh      LDR      r6,[r5,#4]
        0x0000687a:    f0200003     ...    BIC      r0,r0,#3
        0x0000687e:    77a0        .w      STRB     r0,[r4,#0x1e]
        0x00006880:    892b        +.      LDRH     r3,[r5,#8]
        0x00006882:    9300        ..      STR      r3,[sp,#0]
        0x00006884:    2306        .#      MOVS     r3,#6
        0x00006886:    1d22        ".      ADDS     r2,r4,#4
        0x00006888:    4621        !F      MOV      r1,r4
        0x0000688a:    4628        (F      MOV      r0,r5
        0x0000688c:    f000ffaf    ....    BL       inet_chksum_pseudo ; 0x77ee
        0x00006890:    8230        0.      STRH     r0,[r6,#0x10]
        0x00006892:    2306        .#      MOVS     r3,#6
        0x00006894:    7a62        bz      LDRB     r2,[r4,#9]
        0x00006896:    e9cd2300    ...#    STRD     r2,r3,[sp,#0]
        0x0000689a:    7aa3        .z      LDRB     r3,[r4,#0xa]
        0x0000689c:    1d22        ".      ADDS     r2,r4,#4
        0x0000689e:    4621        !F      MOV      r1,r4
        0x000068a0:    4628        (F      MOV      r0,r5
        0x000068a2:    f001f9e9    ....    BL       ip_output ; 0x7c78
        0x000068a6:    4628        (F      MOV      r0,r5
        0x000068a8:    f7fcfc70    ..p.    BL       pbuf_free ; 0x318c
        0x000068ac:    2000        .       MOVS     r0,#0
        0x000068ae:    bd7c        |.      POP      {r2-r6,pc}
        0x000068b0:    f06f0001    o...    MVN      r0,#1
        0x000068b4:    bd7c        |.      POP      {r2-r6,pc}
    tcp_output_segment
        0x000068b6:    b57c        |.      PUSH     {r2-r6,lr}
        0x000068b8:    4605        .F      MOV      r5,r0
        0x000068ba:    460c        .F      MOV      r4,r1
        0x000068bc:    6a88        .j      LDR      r0,[r1,#0x28]
        0x000068be:    f7fafa4d    ..M.    BL       lwip_htonl ; 0xd5c
        0x000068c2:    6929        )i      LDR      r1,[r5,#0x10]
        0x000068c4:    6088        .`      STR      r0,[r1,#8]
        0x000068c6:    8de0        ..      LDRH     r0,[r4,#0x2e]
        0x000068c8:    f7fafa44    ..D.    BL       lwip_htons ; 0xd54
        0x000068cc:    6929        )i      LDR      r1,[r5,#0x10]
        0x000068ce:    81c8        ..      STRH     r0,[r1,#0xe]
        0x000068d0:    8de1        ..      LDRH     r1,[r4,#0x2e]
        0x000068d2:    6aa0        .j      LDR      r0,[r4,#0x28]
        0x000068d4:    4408        .D      ADD      r0,r0,r1
        0x000068d6:    6320         c      STR      r0,[r4,#0x30]
        0x000068d8:    692e        .i      LDR      r6,[r5,#0x10]
        0x000068da:    7b28        ({      LDRB     r0,[r5,#0xc]
        0x000068dc:    3614        .6      ADDS     r6,r6,#0x14
        0x000068de:    07c0        ..      LSLS     r0,r0,#31
        0x000068e0:    d007        ..      BEQ      0x68f2 ; tcp_output_segment + 60
        0x000068e2:    1d21        !.      ADDS     r1,r4,#4
        0x000068e4:    f44f707a    O.zp    MOV      r0,#0x3e8
        0x000068e8:    f7fef87a    ..z.    BL       tcp_eff_send_mss ; 0x49e0
        0x000068ec:    f0407001    @..p    ORR      r0,r0,#0x2040000
        0x000068f0:    e0c4        ..      B        0x6a7c ; tcp_output_segment + 454
        0x000068f2:    e0c6        ..      B        0x6a82 ; tcp_output_segment + 460
    $d
        0x000068f4:    65736e75    unse    DCD    1702063733
        0x000068f8:    6f5f746e    nt_o    DCD    1868526702
        0x000068fc:    73726576    vers    DCD    1936876918
        0x00006900:    20657a69    ize     DCD    543521385
        0x00006904:    6d73696d    mism    DCD    1836280173
        0x00006908:    68637461    atch    DCD    1751348321
        0x0000690c:    63702820     (pc    DCD    1668294688
        0x00006910:    73762062    b vs    DCD    1937121378
        0x00006914:    616c202e    . la    DCD    1634476078
        0x00006918:    755f7473    st_u    DCD    1969190003
        0x0000691c:    6e65736e    nsen    DCD    1852142446
        0x00006920:    00002974    t)..    DCD    10612
        0x00006924:    6f636e69    inco    DCD    1868787305
        0x00006928:    7369736e    nsis    DCD    1936290670
        0x0000692c:    746e6574    tent    DCD    1953391988
        0x00006930:    65766f20     ove    DCD    1702260512
        0x00006934:    7a697372    rsiz    DCD    2053731186
        0x00006938:    73762065    e vs    DCD    1937121381
        0x0000693c:    7073202e    . sp    DCD    1886593070
        0x00006940:    00656361    ace.    DCD    6644577
        0x00006944:    6f636e69    inco    DCD    1868787305
        0x00006948:    7369736e    nsis    DCD    1936290670
        0x0000694c:    646e6574    tend    DCD    1684956532
        0x00006950:    65766f20     ove    DCD    1702260512
        0x00006954:    7a697372    rsiz    DCD    2053731186
        0x00006958:    73762065    e vs    DCD    1937121381
        0x0000695c:    656c202e    . le    DCD    1701584942
        0x00006960:    0000006e    n...    DCD    110
        0x00006964:    65736e75    unse    DCD    1702063733
        0x00006968:    6f5f746e    nt_o    DCD    1868526702
        0x0000696c:    73726576    vers    DCD    1936876918
        0x00006970:    20657a69    ize     DCD    543521385
        0x00006974:    6d73696d    mism    DCD    1836280173
        0x00006978:    68637461    atch    DCD    1751348321
        0x0000697c:    63702820     (pc    DCD    1668294688
        0x00006980:    753e2d62    b->u    DCD    1967009122
        0x00006984:    6e65736e    nsen    DCD    1852142446
        0x00006988:    73692074    t is    DCD    1936269428
        0x0000698c:    4c554e20     NUL    DCD    1280658976
        0x00006990:    0000294c    L)..    DCD    10572
        0x00006994:    5f706374    tcp_    DCD    1601201012
        0x00006998:    74697277    writ    DCD    1953067639
        0x0000699c:    63203a65    e: c    DCD    1663056485
        0x000069a0:    6b636568    heck    DCD    1801676136
        0x000069a4:    61687420     tha    DCD    1634235424
        0x000069a8:    69662074    t fi    DCD    1768300660
        0x000069ac:    20747372    rst     DCD    544502642
        0x000069b0:    66756270    pbuf    DCD    1718968944
        0x000069b4:    6e616320     can    DCD    1851876128
        0x000069b8:    6c6f6820     hol    DCD    1819240480
        0x000069bc:    68742064    d th    DCD    1752440932
        0x000069c0:    6f632065    e co    DCD    1868767333
        0x000069c4:    656c706d    mple    DCD    1701605485
        0x000069c8:    73206574    te s    DCD    1931502964
        0x000069cc:    656c6765    egle    DCD    1701603173
        0x000069d0:    0000006e    n...    DCD    110
        0x000069d4:    7265766f    over    DCD    1919252079
        0x000069d8:    657a6973    size    DCD    1702521203
        0x000069dc:    203d3d20     ==     DCD    540884256
        0x000069e0:    00000030    0...    DCD    48
        0x000069e4:    76657270    prev    DCD    1986359920
        0x000069e8:    6765735f    _seg    DCD    1734701919
        0x000069ec:    203d2120     !=     DCD    540877088
        0x000069f0:    4c4c554e    NULL    DCD    1280070990
        0x000069f4:    00000000    ....    DCD    0
        0x000069f8:    7473616c    last    DCD    1953718636
        0x000069fc:    736e755f    _uns    DCD    1936618847
        0x00006a00:    2d746e65    ent-    DCD    762605157
        0x00006a04:    65766f3e    >ove    DCD    1702260542
        0x00006a08:    7a697372    rsiz    DCD    2053731186
        0x00006a0c:    656c5f65    e_le    DCD    1701601125
        0x00006a10:    3e207466    ft >    DCD    1042314342
        0x00006a14:    766f203d    = ov    DCD    1986994237
        0x00006a18:    69737265    ersi    DCD    1769173605
        0x00006a1c:    755f657a    ze_u    DCD    1969186170
        0x00006a20:    00646573    sed.    DCD    6579571
        0x00006a24:    5f706374    tcp_    DCD    1601201012
        0x00006a28:    74697277    writ    DCD    1953067639
        0x00006a2c:    63203a65    e: c    DCD    1663056485
        0x00006a30:    6f6e6e61    anno    DCD    1869508193
        0x00006a34:    6f632074    t co    DCD    1868767348
        0x00006a38:    7461636e    ncat    DCD    1952539502
        0x00006a3c:    74616e65    enat    DCD    1952542309
        0x00006a40:    68772065    e wh    DCD    1752637541
        0x00006a44:    70206e65    en p    DCD    1881173605
        0x00006a48:    3e2d6263    cb->    DCD    1043161699
        0x00006a4c:    65736e75    unse    DCD    1702063733
        0x00006a50:    6920746e    nt i    DCD    1763734638
        0x00006a54:    6d652073    s em    DCD    1835343987
        0x00006a58:    00797470    pty.    DCD    7959664
        0x00006a5c:    5f706374    tcp_    DCD    1601201012
        0x00006a60:    74697277    writ    DCD    1953067639
        0x00006a64:    76203a65    e: v    DCD    1981823589
        0x00006a68:    64696c61    alid    DCD    1684630625
        0x00006a6c:    65757120     que    DCD    1702195488
        0x00006a70:    6c206575    ue l    DCD    1814062453
        0x00006a74:    74676e65    engt    DCD    1952935525
        0x00006a78:    00000068    h...    DCD    104
    $t
        0x00006a7c:    f7faf96e    ..n.    BL       lwip_htonl ; 0xd5c
        0x00006a80:    6030        0`      STR      r0,[r6,#0]
        0x00006a82:    f9b40034    ..4.    LDRSH    r0,[r4,#0x34]
        0x00006a86:    f04f0600    O...    MOV      r6,#0
        0x00006a8a:    1c40        @.      ADDS     r0,r0,#1
        0x00006a8c:    d100        ..      BNE      0x6a90 ; tcp_output_segment + 474
        0x00006a8e:    86a6        ..      STRH     r6,[r4,#0x34]
        0x00006a90:    b10c        ..      CBZ      r4,0x6a96 ; tcp_output_segment + 480
        0x00006a92:    6820         h      LDR      r0,[r4,#0]
        0x00006a94:    b930        0.      CBNZ     r0,0x6aa4 ; tcp_output_segment + 494
        0x00006a96:    1d20         .      ADDS     r0,r4,#4
        0x00006a98:    f000ffaa    ....    BL       ip_route ; 0x79f0
        0x00006a9c:    2800        .(      CMP      r0,#0
        0x00006a9e:    d02f        /.      BEQ      0x6b00 ; tcp_output_segment + 586
        0x00006aa0:    6840        @h      LDR      r0,[r0,#4]
        0x00006aa2:    6020         `      STR      r0,[r4,#0]
        0x00006aa4:    6ba0        .k      LDR      r0,[r4,#0x38]
        0x00006aa6:    b938        8.      CBNZ     r0,0x6ab8 ; tcp_output_segment + 514
        0x00006aa8:    48ff        .H      LDR      r0,[pc,#1020] ; [0x6ea8] = 0x2000008c
        0x00006aaa:    6800        .h      LDR      r0,[r0,#0]
        0x00006aac:    63a0        .c      STR      r0,[r4,#0x38]
        0x00006aae:    6928        (i      LDR      r0,[r5,#0x10]
        0x00006ab0:    6840        @h      LDR      r0,[r0,#4]
        0x00006ab2:    f7faf955    ..U.    BL       lwip_ntohl ; 0xd60
        0x00006ab6:    63e0        .c      STR      r0,[r4,#0x3c]
        0x00006ab8:    6869        ih      LDR      r1,[r5,#4]
        0x00006aba:    6928        (i      LDR      r0,[r5,#0x10]
        0x00006abc:    684a        Jh      LDR      r2,[r1,#4]
        0x00006abe:    1a80        ..      SUBS     r0,r0,r2
        0x00006ac0:    894a        J.      LDRH     r2,[r1,#0xa]
        0x00006ac2:    1a12        ..      SUBS     r2,r2,r0
        0x00006ac4:    814a        J.      STRH     r2,[r1,#0xa]
        0x00006ac6:    6869        ih      LDR      r1,[r5,#4]
        0x00006ac8:    890a        ..      LDRH     r2,[r1,#8]
        0x00006aca:    1a10        ..      SUBS     r0,r2,r0
        0x00006acc:    8108        ..      STRH     r0,[r1,#8]
        0x00006ace:    6869        ih      LDR      r1,[r5,#4]
        0x00006ad0:    6928        (i      LDR      r0,[r5,#0x10]
        0x00006ad2:    1d22        ".      ADDS     r2,r4,#4
        0x00006ad4:    6048        H`      STR      r0,[r1,#4]
        0x00006ad6:    6928        (i      LDR      r0,[r5,#0x10]
        0x00006ad8:    4621        !F      MOV      r1,r4
        0x00006ada:    8206        ..      STRH     r6,[r0,#0x10]
        0x00006adc:    6868        hh      LDR      r0,[r5,#4]
        0x00006ade:    8903        ..      LDRH     r3,[r0,#8]
        0x00006ae0:    9300        ..      STR      r3,[sp,#0]
        0x00006ae2:    2306        .#      MOVS     r3,#6
        0x00006ae4:    f000fe83    ....    BL       inet_chksum_pseudo ; 0x77ee
        0x00006ae8:    6929        )i      LDR      r1,[r5,#0x10]
        0x00006aea:    2306        .#      MOVS     r3,#6
        0x00006aec:    8208        ..      STRH     r0,[r1,#0x10]
        0x00006aee:    7a62        bz      LDRB     r2,[r4,#9]
        0x00006af0:    e9cd2300    ...#    STRD     r2,r3,[sp,#0]
        0x00006af4:    7aa3        .z      LDRB     r3,[r4,#0xa]
        0x00006af6:    1d22        ".      ADDS     r2,r4,#4
        0x00006af8:    4621        !F      MOV      r1,r4
        0x00006afa:    6868        hh      LDR      r0,[r5,#4]
        0x00006afc:    f001f8bc    ....    BL       ip_output ; 0x7c78
        0x00006b00:    bd7c        |.      POP      {r2-r6,pc}
    tcp_output
        0x00006b02:    e92d47f0    -..G    PUSH     {r4-r10,lr}
        0x00006b06:    4604        .F      MOV      r4,r0
        0x00006b08:    7e00        .~      LDRB     r0,[r0,#0x18]
        0x00006b0a:    2801        .(      CMP      r0,#1
        0x00006b0c:    d108        ..      BNE      0x6b20 ; tcp_output + 30
        0x00006b0e:    f6af0338    ..8.    ADR      r3,{pc}-0x836 ; 0x62d8
        0x00006b12:    f240328b    @..2    MOV      r2,#0x38b
        0x00006b16:    a1e5        ..      ADR      r1,{pc}+0x396 ; 0x6eac
        0x00006b18:    f2af70e0    ...p    ADR      r0,{pc}-0x7dc ; 0x633c
        0x00006b1c:    f002fe3c    ..<.    BL       __0printf$5 ; 0x9798
        0x00006b20:    48ec        .H      LDR      r0,[pc,#944] ; [0x6ed4] = 0x200000bc
        0x00006b22:    6800        .h      LDR      r0,[r0,#0]
        0x00006b24:    42a0        .B      CMP      r0,r4
        0x00006b26:    d102        ..      BNE      0x6b2e ; tcp_output + 44
        0x00006b28:    2000        .       MOVS     r0,#0
        0x00006b2a:    e8bd87f0    ....    POP      {r4-r10,pc}
        0x00006b2e:    f8b49060    ..`.    LDRH     r9,[r4,#0x60]
        0x00006b32:    f8b4004c    ..L.    LDRH     r0,[r4,#0x4c]
        0x00006b36:    4581        .E      CMP      r9,r0
        0x00006b38:    d300        ..      BCC      0x6b3c ; tcp_output + 58
        0x00006b3a:    4681        .F      MOV      r9,r0
        0x00006b3c:    7fa0        ..      LDRB     r0,[r4,#0x1e]
        0x00006b3e:    6ee5        .n      LDR      r5,[r4,#0x6c]
        0x00006b40:    0780        ..      LSLS     r0,r0,#30
        0x00006b42:    d50e        ..      BPL      0x6b62 ; tcp_output + 96
        0x00006b44:    b14d        M.      CBZ      r5,0x6b5a ; tcp_output + 88
        0x00006b46:    6928        (i      LDR      r0,[r5,#0x10]
        0x00006b48:    6840        @h      LDR      r0,[r0,#4]
        0x00006b4a:    f7faf909    ....    BL       lwip_ntohl ; 0xd60
        0x00006b4e:    6ca1        .l      LDR      r1,[r4,#0x48]
        0x00006b50:    1a40        @.      SUBS     r0,r0,r1
        0x00006b52:    8929        ).      LDRH     r1,[r5,#8]
        0x00006b54:    4408        .D      ADD      r0,r0,r1
        0x00006b56:    4548        HE      CMP      r0,r9
        0x00006b58:    d903        ..      BLS      0x6b62 ; tcp_output + 96
        0x00006b5a:    4620         F      MOV      r0,r4
        0x00006b5c:    e8bd47f0    ...G    POP      {r4-r10,lr}
        0x00006b60:    e67b        {.      B        tcp_send_empty_ack ; 0x685a
        0x00006b62:    f8d48070    ..p.    LDR      r8,[r4,#0x70]
        0x00006b66:    f04f0a00    O...    MOV      r10,#0
        0x00006b6a:    f1b80f00    ....    CMP      r8,#0
        0x00006b6e:    d101        ..      BNE      0x6b74 ; tcp_output + 114
        0x00006b70:    e08d        ..      B        0x6c8e ; tcp_output + 396
        0x00006b72:    4680        .F      MOV      r8,r0
        0x00006b74:    f8d80000    ....    LDR      r0,[r8,#0]
        0x00006b78:    2800        .(      CMP      r0,#0
        0x00006b7a:    d1fa        ..      BNE      0x6b72 ; tcp_output + 112
        0x00006b7c:    e087        ..      B        0x6c8e ; tcp_output + 396
        0x00006b7e:    6928        (i      LDR      r0,[r5,#0x10]
        0x00006b80:    8980        ..      LDRH     r0,[r0,#0xc]
        0x00006b82:    f7faf8e9    ....    BL       lwip_ntohs ; 0xd58
        0x00006b86:    0740        @.      LSLS     r0,r0,#29
        0x00006b88:    d508        ..      BPL      0x6b9c ; tcp_output + 154
        0x00006b8a:    f6af03b4    ....    ADR      r3,{pc}-0x8b2 ; 0x62d8
        0x00006b8e:    f44f7271    O.qr    MOV      r2,#0x3c4
        0x00006b92:    a1d1        ..      ADR      r1,{pc}+0x346 ; 0x6ed8
        0x00006b94:    f6af005c    ..\.    ADR      r0,{pc}-0x858 ; 0x633c
        0x00006b98:    f002fdfe    ....    BL       __0printf$5 ; 0x9798
        0x00006b9c:    6f20         o      LDR      r0,[r4,#0x70]
        0x00006b9e:    b1a8        ..      CBZ      r0,0x6bcc ; tcp_output + 202
        0x00006ba0:    7fa1        ..      LDRB     r1,[r4,#0x1e]
        0x00006ba2:    f0110f44    ..D.    TST      r1,#0x44
        0x00006ba6:    d111        ..      BNE      0x6bcc ; tcp_output + 202
        0x00006ba8:    6ee0        .n      LDR      r0,[r4,#0x6c]
        0x00006baa:    b128        (.      CBZ      r0,0x6bb8 ; tcp_output + 182
        0x00006bac:    6802        .h      LDR      r2,[r0,#0]
        0x00006bae:    b96a        j.      CBNZ     r2,0x6bcc ; tcp_output + 202
        0x00006bb0:    8900        ..      LDRH     r0,[r0,#8]
        0x00006bb2:    8ee2        ..      LDRH     r2,[r4,#0x36]
        0x00006bb4:    4290        .B      CMP      r0,r2
        0x00006bb6:    d209        ..      BCS      0x6bcc ; tcp_output + 202
        0x00006bb8:    f8b40066    ..f.    LDRH     r0,[r4,#0x66]
        0x00006bbc:    b130        0.      CBZ      r0,0x6bcc ; tcp_output + 202
        0x00006bbe:    f8b40068    ..h.    LDRH     r0,[r4,#0x68]
        0x00006bc2:    2808        .(      CMP      r0,#8
        0x00006bc4:    d202        ..      BCS      0x6bcc ; tcp_output + 202
        0x00006bc6:    f0110fa0    ....    TST      r1,#0xa0
        0x00006bca:    d06c        l.      BEQ      0x6ca6 ; tcp_output + 420
        0x00006bcc:    6828        (h      LDR      r0,[r5,#0]
        0x00006bce:    66e0        .f      STR      r0,[r4,#0x6c]
        0x00006bd0:    7e20         ~      LDRB     r0,[r4,#0x18]
        0x00006bd2:    2802        .(      CMP      r0,#2
        0x00006bd4:    d00b        ..      BEQ      0x6bee ; tcp_output + 236
        0x00006bd6:    2010        .       MOVS     r0,#0x10
        0x00006bd8:    f7faf8bc    ....    BL       lwip_htons ; 0xd54
        0x00006bdc:    4601        .F      MOV      r1,r0
        0x00006bde:    6928        (i      LDR      r0,[r5,#0x10]
        0x00006be0:    8982        ..      LDRH     r2,[r0,#0xc]
        0x00006be2:    4311        .C      ORRS     r1,r1,r2
        0x00006be4:    8181        ..      STRH     r1,[r0,#0xc]
        0x00006be6:    7fa0        ..      LDRB     r0,[r4,#0x1e]
        0x00006be8:    f0200003     ...    BIC      r0,r0,#3
        0x00006bec:    77a0        .w      STRB     r0,[r4,#0x1e]
        0x00006bee:    4621        !F      MOV      r1,r4
        0x00006bf0:    4628        (F      MOV      r0,r5
        0x00006bf2:    f7fffe60    ..`.    BL       tcp_output_segment ; 0x68b6
        0x00006bf6:    6928        (i      LDR      r0,[r5,#0x10]
        0x00006bf8:    6840        @h      LDR      r0,[r0,#4]
        0x00006bfa:    f7faf8b1    ....    BL       lwip_ntohl ; 0xd60
        0x00006bfe:    4606        .F      MOV      r6,r0
        0x00006c00:    6928        (i      LDR      r0,[r5,#0x10]
        0x00006c02:    8980        ..      LDRH     r0,[r0,#0xc]
        0x00006c04:    f7faf8a8    ....    BL       lwip_ntohs ; 0xd58
        0x00006c08:    0780        ..      LSLS     r0,r0,#30
        0x00006c0a:    d000        ..      BEQ      0x6c0e ; tcp_output + 268
        0x00006c0c:    2001        .       MOVS     r0,#1
        0x00006c0e:    8929        ).      LDRH     r1,[r5,#8]
        0x00006c10:    4430        0D      ADD      r0,r0,r6
        0x00006c12:    4408        .D      ADD      r0,r0,r1
        0x00006c14:    6d21        !m      LDR      r1,[r4,#0x50]
        0x00006c16:    1a09        ..      SUBS     r1,r1,r0
        0x00006c18:    d500        ..      BPL      0x6c1c ; tcp_output + 282
        0x00006c1a:    6520         e      STR      r0,[r4,#0x50]
        0x00006c1c:    6928        (i      LDR      r0,[r5,#0x10]
        0x00006c1e:    8980        ..      LDRH     r0,[r0,#0xc]
        0x00006c20:    f7faf89a    ....    BL       lwip_ntohs ; 0xd58
        0x00006c24:    0780        ..      LSLS     r0,r0,#30
        0x00006c26:    d000        ..      BEQ      0x6c2a ; tcp_output + 296
        0x00006c28:    2001        .       MOVS     r0,#1
        0x00006c2a:    8929        ).      LDRH     r1,[r5,#8]
        0x00006c2c:    1840        @.      ADDS     r0,r0,r1
        0x00006c2e:    d02a        *.      BEQ      0x6c86 ; tcp_output + 388
        0x00006c30:    f8c5a000    ....    STR      r10,[r5,#0]
        0x00006c34:    6f20         o      LDR      r0,[r4,#0x70]
        0x00006c36:    b170        p.      CBZ      r0,0x6c56 ; tcp_output + 340
        0x00006c38:    6928        (i      LDR      r0,[r5,#0x10]
        0x00006c3a:    6840        @h      LDR      r0,[r0,#4]
        0x00006c3c:    f7faf890    ....    BL       lwip_ntohl ; 0xd60
        0x00006c40:    4606        .F      MOV      r6,r0
        0x00006c42:    f8d80010    ....    LDR      r0,[r8,#0x10]
        0x00006c46:    6840        @h      LDR      r0,[r0,#4]
        0x00006c48:    f7faf88a    ....    BL       lwip_ntohl ; 0xd60
        0x00006c4c:    1a30        0.      SUBS     r0,r6,r0
        0x00006c4e:    d516        ..      BPL      0x6c7e ; tcp_output + 380
        0x00006c50:    f1040670    ..p.    ADD      r6,r4,#0x70
        0x00006c54:    e002        ..      B        0x6c5c ; tcp_output + 346
        0x00006c56:    6725        %g      STR      r5,[r4,#0x70]
        0x00006c58:    e013        ..      B        0x6c82 ; tcp_output + 384
        0x00006c5a:    6836        6h      LDR      r6,[r6,#0]
        0x00006c5c:    6830        0h      LDR      r0,[r6,#0]
        0x00006c5e:    b150        P.      CBZ      r0,0x6c76 ; tcp_output + 372
        0x00006c60:    6900        .i      LDR      r0,[r0,#0x10]
        0x00006c62:    6840        @h      LDR      r0,[r0,#4]
        0x00006c64:    f7faf87c    ..|.    BL       lwip_ntohl ; 0xd60
        0x00006c68:    4607        .F      MOV      r7,r0
        0x00006c6a:    6928        (i      LDR      r0,[r5,#0x10]
        0x00006c6c:    6840        @h      LDR      r0,[r0,#4]
        0x00006c6e:    f7faf877    ..w.    BL       lwip_ntohl ; 0xd60
        0x00006c72:    1a38        8.      SUBS     r0,r7,r0
        0x00006c74:    d4f1        ..      BMI      0x6c5a ; tcp_output + 344
        0x00006c76:    6830        0h      LDR      r0,[r6,#0]
        0x00006c78:    6028        (`      STR      r0,[r5,#0]
        0x00006c7a:    6035        5`      STR      r5,[r6,#0]
        0x00006c7c:    e006        ..      B        0x6c8c ; tcp_output + 394
        0x00006c7e:    f8c85000    ...P    STR      r5,[r8,#0]
        0x00006c82:    46a8        .F      MOV      r8,r5
        0x00006c84:    e002        ..      B        0x6c8c ; tcp_output + 394
        0x00006c86:    4628        (F      MOV      r0,r5
        0x00006c88:    f7fdf8ad    ....    BL       tcp_seg_free ; 0x3de6
        0x00006c8c:    6ee5        .n      LDR      r5,[r4,#0x6c]
        0x00006c8e:    b155        U.      CBZ      r5,0x6ca6 ; tcp_output + 420
        0x00006c90:    6928        (i      LDR      r0,[r5,#0x10]
        0x00006c92:    6840        @h      LDR      r0,[r0,#4]
        0x00006c94:    f7faf864    ..d.    BL       lwip_ntohl ; 0xd60
        0x00006c98:    6ca1        .l      LDR      r1,[r4,#0x48]
        0x00006c9a:    1a40        @.      SUBS     r0,r0,r1
        0x00006c9c:    8929        ).      LDRH     r1,[r5,#8]
        0x00006c9e:    4408        .D      ADD      r0,r0,r1
        0x00006ca0:    4548        HE      CMP      r0,r9
        0x00006ca2:    f67faf6c    ..l.    BLS      0x6b7e ; tcp_output + 124
        0x00006ca6:    6ee0        .n      LDR      r0,[r4,#0x6c]
        0x00006ca8:    b908        ..      CBNZ     r0,0x6cae ; tcp_output + 428
        0x00006caa:    f8a4a06a    ..j.    STRH     r10,[r4,#0x6a]
        0x00006cae:    7fa0        ..      LDRB     r0,[r4,#0x1e]
        0x00006cb0:    f0200080     ...    BIC      r0,r0,#0x80
        0x00006cb4:    77a0        .w      STRB     r0,[r4,#0x1e]
        0x00006cb6:    e737        7.      B        0x6b28 ; tcp_output + 38
    tcp_rst
        0x00006cb8:    e92d5ffc    -.._    PUSH     {r2-r12,lr}
        0x00006cbc:    4683        .F      MOV      r11,r0
        0x00006cbe:    e9dd9a0c    ....    LDRD     r9,r10,[sp,#0x30]
        0x00006cc2:    460e        .F      MOV      r6,r1
        0x00006cc4:    4617        .F      MOV      r7,r2
        0x00006cc6:    4698        .F      MOV      r8,r3
        0x00006cc8:    2200        ."      MOVS     r2,#0
        0x00006cca:    2114        .!      MOVS     r1,#0x14
        0x00006ccc:    2001        .       MOVS     r0,#1
        0x00006cce:    f7fcfaa5    ....    BL       pbuf_alloc ; 0x321c
        0x00006cd2:    0005        ..      MOVS     r5,r0
        0x00006cd4:    d040        @.      BEQ      0x6d58 ; tcp_rst + 160
        0x00006cd6:    8968        h.      LDRH     r0,[r5,#0xa]
        0x00006cd8:    2814        .(      CMP      r0,#0x14
        0x00006cda:    d209        ..      BCS      0x6cf0 ; tcp_rst + 56
        0x00006cdc:    f6af2308    ...#    ADR      r3,{pc}-0xa04 ; 0x62d8
        0x00006ce0:    f24042b6    @..B    MOV      r2,#0x4b6
        0x00006ce4:    f6af11dc    ....    ADR      r1,{pc}-0x9d8 ; 0x630c
        0x00006ce8:    f6af10b0    ....    ADR      r0,{pc}-0x9ac ; 0x633c
        0x00006cec:    f002fd54    ..T.    BL       __0printf$5 ; 0x9798
        0x00006cf0:    4648        HF      MOV      r0,r9
        0x00006cf2:    686c        lh      LDR      r4,[r5,#4]
        0x00006cf4:    f7faf82e    ....    BL       lwip_htons ; 0xd54
        0x00006cf8:    8020         .      STRH     r0,[r4,#0]
        0x00006cfa:    4650        PF      MOV      r0,r10
        0x00006cfc:    f7faf82a    ..*.    BL       lwip_htons ; 0xd54
        0x00006d00:    8060        `.      STRH     r0,[r4,#2]
        0x00006d02:    4658        XF      MOV      r0,r11
        0x00006d04:    f7faf82a    ..*.    BL       lwip_htonl ; 0xd5c
        0x00006d08:    6060        ``      STR      r0,[r4,#4]
        0x00006d0a:    4630        0F      MOV      r0,r6
        0x00006d0c:    f7faf826    ..&.    BL       lwip_htonl ; 0xd5c
        0x00006d10:    60a0        .`      STR      r0,[r4,#8]
        0x00006d12:    f2450014    E...    MOV      r0,#0x5014
        0x00006d16:    f7faf81d    ....    BL       lwip_htons ; 0xd54
        0x00006d1a:    81a0        ..      STRH     r0,[r4,#0xc]
        0x00006d1c:    f24a000f    J...    MOV      r0,#0xa00f
        0x00006d20:    81e0        ..      STRH     r0,[r4,#0xe]
        0x00006d22:    2000        .       MOVS     r0,#0
        0x00006d24:    8220         .      STRH     r0,[r4,#0x10]
        0x00006d26:    8260        `.      STRH     r0,[r4,#0x12]
        0x00006d28:    892b        +.      LDRH     r3,[r5,#8]
        0x00006d2a:    9300        ..      STR      r3,[sp,#0]
        0x00006d2c:    2306        .#      MOVS     r3,#6
        0x00006d2e:    4642        BF      MOV      r2,r8
        0x00006d30:    4639        9F      MOV      r1,r7
        0x00006d32:    4628        (F      MOV      r0,r5
        0x00006d34:    f000fd5b    ..[.    BL       inet_chksum_pseudo ; 0x77ee
        0x00006d38:    8220         .      STRH     r0,[r4,#0x10]
        0x00006d3a:    2306        .#      MOVS     r3,#6
        0x00006d3c:    2200        ."      MOVS     r2,#0
        0x00006d3e:    e9cd2300    ...#    STRD     r2,r3,[sp,#0]
        0x00006d42:    23ff        .#      MOVS     r3,#0xff
        0x00006d44:    4642        BF      MOV      r2,r8
        0x00006d46:    4639        9F      MOV      r1,r7
        0x00006d48:    4628        (F      MOV      r0,r5
        0x00006d4a:    f000ff95    ....    BL       ip_output ; 0x7c78
        0x00006d4e:    4628        (F      MOV      r0,r5
        0x00006d50:    e8bd5ffc    ..._    POP      {r2-r12,lr}
        0x00006d54:    f7fcba1a    ....    B        pbuf_free ; 0x318c
        0x00006d58:    e8bd9ffc    ....    POP      {r2-r12,pc}
    tcp_rexmit_rto
        0x00006d5c:    6f01        .o      LDR      r1,[r0,#0x70]
        0x00006d5e:    2900        .)      CMP      r1,#0
        0x00006d60:    d011        ..      BEQ      0x6d86 ; tcp_rexmit_rto + 42
        0x00006d62:    e000        ..      B        0x6d66 ; tcp_rexmit_rto + 10
        0x00006d64:    4611        .F      MOV      r1,r2
        0x00006d66:    680a        .h      LDR      r2,[r1,#0]
        0x00006d68:    2a00        .*      CMP      r2,#0
        0x00006d6a:    d1fb        ..      BNE      0x6d64 ; tcp_rexmit_rto + 8
        0x00006d6c:    6ec2        .n      LDR      r2,[r0,#0x6c]
        0x00006d6e:    600a        .`      STR      r2,[r1,#0]
        0x00006d70:    6f01        .o      LDR      r1,[r0,#0x70]
        0x00006d72:    66c1        .f      STR      r1,[r0,#0x6c]
        0x00006d74:    2100        .!      MOVS     r1,#0
        0x00006d76:    6701        .g      STR      r1,[r0,#0x70]
        0x00006d78:    f8902046    ..F     LDRB     r2,[r0,#0x46]
        0x00006d7c:    1c52        R.      ADDS     r2,r2,#1
        0x00006d7e:    f8802046    ..F     STRB     r2,[r0,#0x46]
        0x00006d82:    6381        .c      STR      r1,[r0,#0x38]
        0x00006d84:    e6bd        ..      B        tcp_output ; 0x6b02
        0x00006d86:    4770        pG      BX       lr
    tcp_rexmit
        0x00006d88:    e92d41f0    -..A    PUSH     {r4-r8,lr}
        0x00006d8c:    6f06        .o      LDR      r6,[r0,#0x70]
        0x00006d8e:    4605        .F      MOV      r5,r0
        0x00006d90:    2e00        ..      CMP      r6,#0
        0x00006d92:    d021        !.      BEQ      0x6dd8 ; tcp_rexmit + 80
        0x00006d94:    6830        0h      LDR      r0,[r6,#0]
        0x00006d96:    f105046c    ..l.    ADD      r4,r5,#0x6c
        0x00006d9a:    6728        (g      STR      r0,[r5,#0x70]
        0x00006d9c:    e000        ..      B        0x6da0 ; tcp_rexmit + 24
        0x00006d9e:    6824        $h      LDR      r4,[r4,#0]
        0x00006da0:    6820         h      LDR      r0,[r4,#0]
        0x00006da2:    b150        P.      CBZ      r0,0x6dba ; tcp_rexmit + 50
        0x00006da4:    6900        .i      LDR      r0,[r0,#0x10]
        0x00006da6:    6840        @h      LDR      r0,[r0,#4]
        0x00006da8:    f7f9ffda    ....    BL       lwip_ntohl ; 0xd60
        0x00006dac:    4607        .F      MOV      r7,r0
        0x00006dae:    6930        0i      LDR      r0,[r6,#0x10]
        0x00006db0:    6840        @h      LDR      r0,[r0,#4]
        0x00006db2:    f7f9ffd5    ....    BL       lwip_ntohl ; 0xd60
        0x00006db6:    1a38        8.      SUBS     r0,r7,r0
        0x00006db8:    d4f1        ..      BMI      0x6d9e ; tcp_rexmit + 22
        0x00006dba:    6820         h      LDR      r0,[r4,#0]
        0x00006dbc:    6030        0`      STR      r0,[r6,#0]
        0x00006dbe:    6026        &`      STR      r6,[r4,#0]
        0x00006dc0:    6830        0h      LDR      r0,[r6,#0]
        0x00006dc2:    2100        .!      MOVS     r1,#0
        0x00006dc4:    b908        ..      CBNZ     r0,0x6dca ; tcp_rexmit + 66
        0x00006dc6:    f8a5106a    ..j.    STRH     r1,[r5,#0x6a]
        0x00006dca:    f1050538    ..8.    ADD      r5,r5,#0x38
        0x00006dce:    7ba8        .{      LDRB     r0,[r5,#0xe]
        0x00006dd0:    f1000001    ....    ADD      r0,r0,#1
        0x00006dd4:    73a8        .s      STRB     r0,[r5,#0xe]
        0x00006dd6:    6029        )`      STR      r1,[r5,#0]
        0x00006dd8:    e8bd81f0    ....    POP      {r4-r8,pc}
    tcp_rexmit_fast
        0x00006ddc:    b510        ..      PUSH     {r4,lr}
        0x00006dde:    4604        .F      MOV      r4,r0
        0x00006de0:    6f00        .o      LDR      r0,[r0,#0x70]
        0x00006de2:    2800        .(      CMP      r0,#0
        0x00006de4:    d022        ".      BEQ      0x6e2c ; tcp_rexmit_fast + 80
        0x00006de6:    7fa0        ..      LDRB     r0,[r4,#0x1e]
        0x00006de8:    0740        @.      LSLS     r0,r0,#29
        0x00006dea:    d41f        ..      BMI      0x6e2c ; tcp_rexmit_fast + 80
        0x00006dec:    4620         F      MOV      r0,r4
        0x00006dee:    f7ffffcb    ....    BL       tcp_rexmit ; 0x6d88
        0x00006df2:    f8b4004c    ..L.    LDRH     r0,[r4,#0x4c]
        0x00006df6:    f8b41060    ..`.    LDRH     r1,[r4,#0x60]
        0x00006dfa:    4288        .B      CMP      r0,r1
        0x00006dfc:    d901        ..      BLS      0x6e02 ; tcp_rexmit_fast + 38
        0x00006dfe:    0848        H.      LSRS     r0,r1,#1
        0x00006e00:    e000        ..      B        0x6e04 ; tcp_rexmit_fast + 40
        0x00006e02:    0840        @.      LSRS     r0,r0,#1
        0x00006e04:    f8a4004e    ..N.    STRH     r0,[r4,#0x4e]
        0x00006e08:    b281        ..      UXTH     r1,r0
        0x00006e0a:    8ee0        ..      LDRH     r0,[r4,#0x36]
        0x00006e0c:    ebb10f40    ..@.    CMP      r1,r0,LSL #1
        0x00006e10:    d202        ..      BCS      0x6e18 ; tcp_rexmit_fast + 60
        0x00006e12:    0041        A.      LSLS     r1,r0,#1
        0x00006e14:    f8a4104e    ..N.    STRH     r1,[r4,#0x4e]
        0x00006e18:    b289        ..      UXTH     r1,r1
        0x00006e1a:    eb000040    ..@.    ADD      r0,r0,r0,LSL #1
        0x00006e1e:    4408        .D      ADD      r0,r0,r1
        0x00006e20:    f8a4004c    ..L.    STRH     r0,[r4,#0x4c]
        0x00006e24:    7fa0        ..      LDRB     r0,[r4,#0x1e]
        0x00006e26:    f0400004    @...    ORR      r0,r0,#4
        0x00006e2a:    77a0        .w      STRB     r0,[r4,#0x1e]
        0x00006e2c:    bd10        ..      POP      {r4,pc}
    tcp_keepalive
        0x00006e2e:    b57c        |.      PUSH     {r2-r6,lr}
        0x00006e30:    4605        .F      MOV      r5,r0
        0x00006e32:    6d00        .m      LDR      r0,[r0,#0x50]
        0x00006e34:    1e40        @.      SUBS     r0,r0,#1
        0x00006e36:    f7f9ff91    ....    BL       lwip_htonl ; 0xd5c
        0x00006e3a:    4603        .F      MOV      r3,r0
        0x00006e3c:    2200        ."      MOVS     r2,#0
        0x00006e3e:    4611        .F      MOV      r1,r2
        0x00006e40:    4628        (F      MOV      r0,r5
        0x00006e42:    f7fff86f    ..o.    BL       tcp_output_alloc_header ; 0x5f24
        0x00006e46:    0004        ..      MOVS     r4,r0
        0x00006e48:    d017        ..      BEQ      0x6e7a ; tcp_keepalive + 76
        0x00006e4a:    8923        #.      LDRH     r3,[r4,#8]
        0x00006e4c:    6866        fh      LDR      r6,[r4,#4]
        0x00006e4e:    9300        ..      STR      r3,[sp,#0]
        0x00006e50:    2306        .#      MOVS     r3,#6
        0x00006e52:    1d2a        *.      ADDS     r2,r5,#4
        0x00006e54:    4629        )F      MOV      r1,r5
        0x00006e56:    f000fcca    ....    BL       inet_chksum_pseudo ; 0x77ee
        0x00006e5a:    8230        0.      STRH     r0,[r6,#0x10]
        0x00006e5c:    2306        .#      MOVS     r3,#6
        0x00006e5e:    2200        ."      MOVS     r2,#0
        0x00006e60:    e9cd2300    ...#    STRD     r2,r3,[sp,#0]
        0x00006e64:    7aab        .z      LDRB     r3,[r5,#0xa]
        0x00006e66:    1d2a        *.      ADDS     r2,r5,#4
        0x00006e68:    4629        )F      MOV      r1,r5
        0x00006e6a:    4620         F      MOV      r0,r4
        0x00006e6c:    f000ff04    ....    BL       ip_output ; 0x7c78
        0x00006e70:    4620         F      MOV      r0,r4
        0x00006e72:    e8bd407c    ..|@    POP      {r2-r6,lr}
        0x00006e76:    f7fcb989    ....    B        pbuf_free ; 0x318c
        0x00006e7a:    bd7c        |.      POP      {r2-r6,pc}
    tcp_zero_window_probe
        0x00006e7c:    e92d41fc    -..A    PUSH     {r2-r8,lr}
        0x00006e80:    6f04        .o      LDR      r4,[r0,#0x70]
        0x00006e82:    4605        .F      MOV      r5,r0
        0x00006e84:    b914        ..      CBNZ     r4,0x6e8c ; tcp_zero_window_probe + 16
        0x00006e86:    6eec        .n      LDR      r4,[r5,#0x6c]
        0x00006e88:    2c00        .,      CMP      r4,#0
        0x00006e8a:    d06e        n.      BEQ      0x6f6a ; tcp_zero_window_probe + 238
        0x00006e8c:    6920         i      LDR      r0,[r4,#0x10]
        0x00006e8e:    8980        ..      LDRH     r0,[r0,#0xc]
        0x00006e90:    f7f9ff62    ..b.    BL       lwip_ntohs ; 0xd58
        0x00006e94:    07c0        ..      LSLS     r0,r0,#31
        0x00006e96:    d001        ..      BEQ      0x6e9c ; tcp_zero_window_probe + 32
        0x00006e98:    8920         .      LDRH     r0,[r4,#8]
        0x00006e9a:    b348        H.      CBZ      r0,0x6ef0 ; tcp_zero_window_probe + 116
        0x00006e9c:    f04f0800    O...    MOV      r8,#0
        0x00006ea0:    2201        ."      MOVS     r2,#1
        0x00006ea2:    f1b80f00    ....    CMP      r8,#0
        0x00006ea6:    e024        $.      B        0x6ef2 ; tcp_zero_window_probe + 118
    $d
        0x00006ea8:    2000008c    ...     DCD    536871052
        0x00006eac:    276e6f64    don'    DCD    661548900
        0x00006eb0:    61632074    t ca    DCD    1633886324
        0x00006eb4:    74206c6c    ll t    DCD    1948281964
        0x00006eb8:    6f5f7063    cp_o    DCD    1868525667
        0x00006ebc:    75707475    utpu    DCD    1970304117
        0x00006ec0:    6f662074    t fo    DCD    1868963956
        0x00006ec4:    696c2072    r li    DCD    1768693874
        0x00006ec8:    6e657473    sten    DCD    1852142707
        0x00006ecc:    6263702d    -pcb    DCD    1650683949
        0x00006ed0:    00000073    s...    DCD    115
        0x00006ed4:    200000bc    ...     DCD    536871100
        0x00006ed8:    20545352    RST     DCD    542397266
        0x00006edc:    20746f6e    not     DCD    544501614
        0x00006ee0:    65707865    expe    DCD    1701869669
        0x00006ee4:    64657463    cted    DCD    1684370531
        0x00006ee8:    72656820     her    DCD    1919248416
        0x00006eec:    00002165    e!..    DCD    8549
    $t
        0x00006ef0:    e016        ..      B        0x6f20 ; tcp_zero_window_probe + 164
        0x00006ef2:    d000        ..      BEQ      0x6ef6 ; tcp_zero_window_probe + 122
        0x00006ef4:    2200        ."      MOVS     r2,#0
        0x00006ef6:    6920         i      LDR      r0,[r4,#0x10]
        0x00006ef8:    2100        .!      MOVS     r1,#0
        0x00006efa:    6843        Ch      LDR      r3,[r0,#4]
        0x00006efc:    4628        (F      MOV      r0,r5
        0x00006efe:    f7fff811    ....    BL       tcp_output_alloc_header ; 0x5f24
        0x00006f02:    0007        ..      MOVS     r7,r0
        0x00006f04:    d031        1.      BEQ      0x6f6a ; tcp_zero_window_probe + 238
        0x00006f06:    687e        ~h      LDR      r6,[r7,#4]
        0x00006f08:    f1b80f00    ....    CMP      r8,#0
        0x00006f0c:    d00b        ..      BEQ      0x6f26 ; tcp_zero_window_probe + 170
        0x00006f0e:    2011        .       MOVS     r0,#0x11
        0x00006f10:    f7f9ff20    .. .    BL       lwip_htons ; 0xd54
        0x00006f14:    89b1        ..      LDRH     r1,[r6,#0xc]
        0x00006f16:    f421517c    !.|Q    BIC      r1,r1,#0x3f00
        0x00006f1a:    4308        .C      ORRS     r0,r0,r1
        0x00006f1c:    81b0        ..      STRH     r0,[r6,#0xc]
        0x00006f1e:    e00c        ..      B        0x6f3a ; tcp_zero_window_probe + 190
        0x00006f20:    f04f0801    O...    MOV      r8,#1
        0x00006f24:    e7bc        ..      B        0x6ea0 ; tcp_zero_window_probe + 36
        0x00006f26:    6860        `h      LDR      r0,[r4,#4]
        0x00006f28:    8923        #.      LDRH     r3,[r4,#8]
        0x00006f2a:    f1060114    ....    ADD      r1,r6,#0x14
        0x00006f2e:    8902        ..      LDRH     r2,[r0,#8]
        0x00006f30:    1ad2        ..      SUBS     r2,r2,r3
        0x00006f32:    b293        ..      UXTH     r3,r2
        0x00006f34:    2201        ."      MOVS     r2,#1
        0x00006f36:    f7fcfd3e    ..>.    BL       pbuf_copy_partial ; 0x39b6
        0x00006f3a:    893b        ;.      LDRH     r3,[r7,#8]
        0x00006f3c:    9300        ..      STR      r3,[sp,#0]
        0x00006f3e:    2306        .#      MOVS     r3,#6
        0x00006f40:    1d2a        *.      ADDS     r2,r5,#4
        0x00006f42:    4629        )F      MOV      r1,r5
        0x00006f44:    4638        8F      MOV      r0,r7
        0x00006f46:    f000fc52    ..R.    BL       inet_chksum_pseudo ; 0x77ee
        0x00006f4a:    8230        0.      STRH     r0,[r6,#0x10]
        0x00006f4c:    2306        .#      MOVS     r3,#6
        0x00006f4e:    2200        ."      MOVS     r2,#0
        0x00006f50:    e9cd2300    ...#    STRD     r2,r3,[sp,#0]
        0x00006f54:    7aab        .z      LDRB     r3,[r5,#0xa]
        0x00006f56:    1d2a        *.      ADDS     r2,r5,#4
        0x00006f58:    4629        )F      MOV      r1,r5
        0x00006f5a:    4638        8F      MOV      r0,r7
        0x00006f5c:    f000fe8c    ....    BL       ip_output ; 0x7c78
        0x00006f60:    4638        8F      MOV      r0,r7
        0x00006f62:    e8bd41fc    ...A    POP      {r2-r8,lr}
        0x00006f66:    f7fcb911    ....    B        pbuf_free ; 0x318c
        0x00006f6a:    e8bd81fc    ....    POP      {r2-r8,pc}
    .text
    tcp_timer_needed
        0x00006f6e:    4770        pG      BX       lr
    .text
    udp_init
        0x00006f70:    4770        pG      BX       lr
    udp_input
        0x00006f72:    e92d5ffc    -.._    PUSH     {r2-r12,lr}
        0x00006f76:    4605        .F      MOV      r5,r0
        0x00006f78:    6840        @h      LDR      r0,[r0,#4]
        0x00006f7a:    9001        ..      STR      r0,[sp,#4]
        0x00006f7c:    468a        .F      MOV      r10,r1
        0x00006f7e:    7800        .x      LDRB     r0,[r0,#0]
        0x00006f80:    892a        *.      LDRH     r2,[r5,#8]
        0x00006f82:    f000000f    ....    AND      r0,r0,#0xf
        0x00006f86:    2108        .!      MOVS     r1,#8
        0x00006f88:    eb010180    ....    ADD      r1,r1,r0,LSL #2
        0x00006f8c:    428a        .B      CMP      r2,r1
        0x00006f8e:    d344        D.      BCC      0x701a ; udp_input + 168
        0x00006f90:    0080        ..      LSLS     r0,r0,#2
        0x00006f92:    4241        AB      RSBS     r1,r0,#0
        0x00006f94:    4628        (F      MOV      r0,r5
        0x00006f96:    f7fcfa89    ....    BL       pbuf_header ; 0x34ac
        0x00006f9a:    bbf0        ..      CBNZ     r0,0x701a ; udp_input + 168
        0x00006f9c:    48f9        .H      LDR      r0,[pc,#996] ; [0x7384] = 0x200000d8
        0x00006f9e:    f8d5b004    ....    LDR      r11,[r5,#4]
        0x00006fa2:    4651        QF      MOV      r1,r10
        0x00006fa4:    6800        .h      LDR      r0,[r0,#0]
        0x00006fa6:    f000fedf    ....    BL       ip4_addr_isbroadcast ; 0x7d68
        0x00006faa:    4606        .F      MOV      r6,r0
        0x00006fac:    f8bb0000    ....    LDRH     r0,[r11,#0]
        0x00006fb0:    f7f9fed2    ....    BL       lwip_ntohs ; 0xd58
        0x00006fb4:    4681        .F      MOV      r9,r0
        0x00006fb6:    f8bb0002    ....    LDRH     r0,[r11,#2]
        0x00006fba:    f7f9fecd    ....    BL       lwip_ntohs ; 0xd58
        0x00006fbe:    2400        .$      MOVS     r4,#0
        0x00006fc0:    f8dfe3c4    ....    LDR      lr,[pc,#964] ; [0x7388] = 0x200000d4
        0x00006fc4:    4680        .F      MOV      r8,r0
        0x00006fc6:    2844        D(      CMP      r0,#0x44
        0x00006fc8:    d005        ..      BEQ      0x6fd6 ; udp_input + 100
        0x00006fca:    49f0        .I      LDR      r1,[pc,#960] ; [0x738c] = 0x200000c0
        0x00006fcc:    2700        .'      MOVS     r7,#0
        0x00006fce:    4638        8F      MOV      r0,r7
        0x00006fd0:    684c        Lh      LDR      r4,[r1,#4]
        0x00006fd2:    4623        #F      MOV      r3,r4
        0x00006fd4:    e045        E.      B        0x7062 ; udp_input + 240
        0x00006fd6:    f1b90f43    ..C.    CMP      r9,#0x43
        0x00006fda:    d146        F.      BNE      0x706a ; udp_input + 248
        0x00006fdc:    f8da0020    .. .    LDR      r0,[r10,#0x20]
        0x00006fe0:    b3e0        ..      CBZ      r0,0x705c ; udp_input + 234
        0x00006fe2:    6840        @h      LDR      r0,[r0,#4]
        0x00006fe4:    b3d0        ..      CBZ      r0,0x705c ; udp_input + 234
        0x00006fe6:    1d01        ..      ADDS     r1,r0,#4
        0x00006fe8:    d005        ..      BEQ      0x6ff6 ; udp_input + 132
        0x00006fea:    6841        Ah      LDR      r1,[r0,#4]
        0x00006fec:    b119        ..      CBZ      r1,0x6ff6 ; udp_input + 132
        0x00006fee:    f8de2000    ...     LDR      r2,[lr,#0]
        0x00006ff2:    4291        .B      CMP      r1,r2
        0x00006ff4:    d139        9.      BNE      0x706a ; udp_input + 248
        0x00006ff6:    4604        .F      MOV      r4,r0
        0x00006ff8:    e03d        =.      B        0x7076 ; udp_input + 260
        0x00006ffa:    8a61        a.      LDRH     r1,[r4,#0x12]
        0x00006ffc:    4541        AE      CMP      r1,r8
        0x00006ffe:    d12e        ..      BNE      0x705e ; udp_input + 236
        0x00007000:    b916        ..      CBNZ     r6,0x7008 ; udp_input + 150
        0x00007002:    b19c        ..      CBZ      r4,0x702c ; udp_input + 186
        0x00007004:    6821        !h      LDR      r1,[r4,#0]
        0x00007006:    b189        ..      CBZ      r1,0x702c ; udp_input + 186
        0x00007008:    4ade        .J      LDR      r2,[pc,#888] ; [0x7384] = 0x200000d8
        0x0000700a:    6821        !h      LDR      r1,[r4,#0]
        0x0000700c:    6812        .h      LDR      r2,[r2,#0]
        0x0000700e:    4291        .B      CMP      r1,r2
        0x00007010:    d00c        ..      BEQ      0x702c ; udp_input + 186
        0x00007012:    b326        &.      CBZ      r6,0x705e ; udp_input + 236
        0x00007014:    b154        T.      CBZ      r4,0x702c ; udp_input + 186
        0x00007016:    b149        I.      CBZ      r1,0x702c ; udp_input + 186
        0x00007018:    e000        ..      B        0x701c ; udp_input + 170
        0x0000701a:    e072        r.      B        0x7102 ; udp_input + 400
        0x0000701c:    f8dac008    ....    LDR      r12,[r10,#8]
        0x00007020:    ea01010c    ....    AND      r1,r1,r12
        0x00007024:    ea02020c    ....    AND      r2,r2,r12
        0x00007028:    4291        .B      CMP      r1,r2
        0x0000702a:    d118        ..      BNE      0x705e ; udp_input + 236
        0x0000702c:    b918        ..      CBNZ     r0,0x7036 ; udp_input + 196
        0x0000702e:    7c21        !|      LDRB     r1,[r4,#0x10]
        0x00007030:    0749        I.      LSLS     r1,r1,#29
        0x00007032:    d400        ..      BMI      0x7036 ; udp_input + 196
        0x00007034:    4620         F      MOV      r0,r4
        0x00007036:    8aa1        ..      LDRH     r1,[r4,#0x14]
        0x00007038:    4549        IE      CMP      r1,r9
        0x0000703a:    d110        ..      BNE      0x705e ; udp_input + 236
        0x0000703c:    1d21        !.      ADDS     r1,r4,#4
        0x0000703e:    d005        ..      BEQ      0x704c ; udp_input + 218
        0x00007040:    6861        ah      LDR      r1,[r4,#4]
        0x00007042:    b119        ..      CBZ      r1,0x704c ; udp_input + 218
        0x00007044:    f8de2000    ...     LDR      r2,[lr,#0]
        0x00007048:    4291        .B      CMP      r1,r2
        0x0000704a:    d108        ..      BNE      0x705e ; udp_input + 236
        0x0000704c:    b127        '.      CBZ      r7,0x7058 ; udp_input + 230
        0x0000704e:    68e1        .h      LDR      r1,[r4,#0xc]
        0x00007050:    60f9        .`      STR      r1,[r7,#0xc]
        0x00007052:    49ce        .I      LDR      r1,[pc,#824] ; [0x738c] = 0x200000c0
        0x00007054:    60e3        .`      STR      r3,[r4,#0xc]
        0x00007056:    604c        L`      STR      r4,[r1,#4]
        0x00007058:    b12c        ,.      CBZ      r4,0x7066 ; udp_input + 244
        0x0000705a:    e00c        ..      B        0x7076 ; udp_input + 260
        0x0000705c:    e005        ..      B        0x706a ; udp_input + 248
        0x0000705e:    4627        'F      MOV      r7,r4
        0x00007060:    68e4        .h      LDR      r4,[r4,#0xc]
        0x00007062:    2c00        .,      CMP      r4,#0
        0x00007064:    d1c9        ..      BNE      0x6ffa ; udp_input + 136
        0x00007066:    0004        ..      MOVS     r4,r0
        0x00007068:    d105        ..      BNE      0x7076 ; udp_input + 260
        0x0000706a:    48c6        .H      LDR      r0,[pc,#792] ; [0x7384] = 0x200000d8
        0x0000706c:    f8da1004    ....    LDR      r1,[r10,#4]
        0x00007070:    6800        .h      LDR      r0,[r0,#0]
        0x00007072:    4281        .B      CMP      r1,r0
        0x00007074:    d145        E.      BNE      0x7102 ; udp_input + 400
        0x00007076:    f8bb0006    ....    LDRH     r0,[r11,#6]
        0x0000707a:    b140        @.      CBZ      r0,0x708e ; udp_input + 284
        0x0000707c:    892b        +.      LDRH     r3,[r5,#8]
        0x0000707e:    9300        ..      STR      r3,[sp,#0]
        0x00007080:    2311        .#      MOVS     r3,#0x11
        0x00007082:    4ac0        .J      LDR      r2,[pc,#768] ; [0x7384] = 0x200000d8
        0x00007084:    49c0        .I      LDR      r1,[pc,#768] ; [0x7388] = 0x200000d4
        0x00007086:    4628        (F      MOV      r0,r5
        0x00007088:    f000fbb1    ....    BL       inet_chksum_pseudo ; 0x77ee
        0x0000708c:    bbc8        ..      CBNZ     r0,0x7102 ; udp_input + 400
        0x0000708e:    f06f0107    o...    MVN      r1,#7
        0x00007092:    4628        (F      MOV      r0,r5
        0x00007094:    f7fcfa0a    ....    BL       pbuf_header ; 0x34ac
        0x00007098:    b138        8.      CBZ      r0,0x70aa ; udp_input + 312
        0x0000709a:    a3bd        ..      ADR      r3,{pc}+0x2f6 ; 0x7390
        0x0000709c:    f44f72ac    O..r    MOV      r2,#0x158
        0x000070a0:    a1c7        ..      ADR      r1,{pc}+0x320 ; 0x73c0
        0x000070a2:    a0cc        ..      ADR      r0,{pc}+0x332 ; 0x73d4
        0x000070a4:    f002fb78    ..x.    BL       __0printf$5 ; 0x9798
        0x000070a8:    e02b        +.      B        0x7102 ; udp_input + 400
        0x000070aa:    b154        T.      CBZ      r4,0x70c2 ; udp_input + 336
        0x000070ac:    69a6        .i      LDR      r6,[r4,#0x18]
        0x000070ae:    b346        F.      CBZ      r6,0x7102 ; udp_input + 400
        0x000070b0:    f8cd9000    ....    STR      r9,[sp,#0]
        0x000070b4:    4bb4        .K      LDR      r3,[pc,#720] ; [0x7388] = 0x200000d4
        0x000070b6:    462a        *F      MOV      r2,r5
        0x000070b8:    4621        !F      MOV      r1,r4
        0x000070ba:    69e0        .i      LDR      r0,[r4,#0x1c]
        0x000070bc:    47b0        .G      BLX      r6
        0x000070be:    e8bd9ffc    ....    POP      {r2-r12,pc}
        0x000070c2:    b9f6        ..      CBNZ     r6,0x7102 ; udp_input + 400
        0x000070c4:    48af        .H      LDR      r0,[pc,#700] ; [0x7384] = 0x200000d8
        0x000070c6:    6800        .h      LDR      r0,[r0,#0]
        0x000070c8:    f3c01003    ....    UBFX     r0,r0,#4,#4
        0x000070cc:    280e        .(      CMP      r0,#0xe
        0x000070ce:    d018        ..      BEQ      0x7102 ; udp_input + 400
        0x000070d0:    9801        ..      LDR      r0,[sp,#4]
        0x000070d2:    7800        .x      LDRB     r0,[r0,#0]
        0x000070d4:    f000010f    ....    AND      r1,r0,#0xf
        0x000070d8:    2008        .       MOVS     r0,#8
        0x000070da:    eb000181    ....    ADD      r1,r0,r1,LSL #2
        0x000070de:    4628        (F      MOV      r0,r5
        0x000070e0:    f7fcf9e4    ....    BL       pbuf_header ; 0x34ac
        0x000070e4:    6869        ih      LDR      r1,[r5,#4]
        0x000070e6:    9801        ..      LDR      r0,[sp,#4]
        0x000070e8:    4281        .B      CMP      r1,r0
        0x000070ea:    d006        ..      BEQ      0x70fa ; udp_input + 392
        0x000070ec:    a3a8        ..      ADR      r3,{pc}+0x2a4 ; 0x7390
        0x000070ee:    f24012a3    @...    MOV      r2,#0x1a3
        0x000070f2:    a1c2        ..      ADR      r1,{pc}+0x30a ; 0x73fc
        0x000070f4:    a0b7        ..      ADR      r0,{pc}+0x2e0 ; 0x73d4
        0x000070f6:    f002fb4f    ..O.    BL       __0printf$5 ; 0x9798
        0x000070fa:    2103        .!      MOVS     r1,#3
        0x000070fc:    4628        (F      MOV      r0,r5
        0x000070fe:    f000fa86    ....    BL       icmp_dest_unreach ; 0x760e
        0x00007102:    4628        (F      MOV      r0,r5
        0x00007104:    e8bd5ffc    ..._    POP      {r2-r12,lr}
        0x00007108:    f7fcb840    ..@.    B        pbuf_free ; 0x318c
    udp_bind
        0x0000710c:    e92d5ff0    -.._    PUSH     {r4-r12,lr}
        0x00007110:    f8df9278    ..x.    LDR      r9,[pc,#632] ; [0x738c] = 0x200000c0
        0x00007114:    460f        .F      MOV      r7,r1
        0x00007116:    4605        .F      MOV      r5,r0
        0x00007118:    4616        .F      MOV      r6,r2
        0x0000711a:    2100        .!      MOVS     r1,#0
        0x0000711c:    f06f0b07    o...    MVN      r11,#7
        0x00007120:    f240380d    @..8    MOV      r8,#0x30d
        0x00007124:    f8d94004    ...@    LDR      r4,[r9,#4]
        0x00007128:    e016        ..      B        0x7158 ; udp_bind + 76
        0x0000712a:    42a5        .B      CMP      r5,r4
        0x0000712c:    d108        ..      BNE      0x7140 ; udp_bind + 52
        0x0000712e:    b129        ).      CBZ      r1,0x713c ; udp_bind + 48
        0x00007130:    a397        ..      ADR      r3,{pc}+0x260 ; 0x7390
        0x00007132:    4642        BF      MOV      r2,r8
        0x00007134:    a1b6        ..      ADR      r1,{pc}+0x2dc ; 0x7410
        0x00007136:    a0a7        ..      ADR      r0,{pc}+0x29e ; 0x73d4
        0x00007138:    f002fb2e    ....    BL       __0printf$5 ; 0x9798
        0x0000713c:    2101        .!      MOVS     r1,#1
        0x0000713e:    e00a        ..      B        0x7156 ; udp_bind + 74
        0x00007140:    8a60        `.      LDRH     r0,[r4,#0x12]
        0x00007142:    42b0        .B      CMP      r0,r6
        0x00007144:    d107        ..      BNE      0x7156 ; udp_bind + 74
        0x00007146:    b3ac        ..      CBZ      r4,0x71b4 ; udp_bind + 168
        0x00007148:    6822        "h      LDR      r2,[r4,#0]
        0x0000714a:    b39a        ..      CBZ      r2,0x71b4 ; udp_bind + 168
        0x0000714c:    b397        ..      CBZ      r7,0x71b4 ; udp_bind + 168
        0x0000714e:    6838        8h      LDR      r0,[r7,#0]
        0x00007150:    b380        ..      CBZ      r0,0x71b4 ; udp_bind + 168
        0x00007152:    4282        .B      CMP      r2,r0
        0x00007154:    d02f        /.      BEQ      0x71b6 ; udp_bind + 170
        0x00007156:    68e4        .h      LDR      r4,[r4,#0xc]
        0x00007158:    2c00        .,      CMP      r4,#0
        0x0000715a:    d1e6        ..      BNE      0x712a ; udp_bind + 30
        0x0000715c:    b11f        ..      CBZ      r7,0x7166 ; udp_bind + 90
        0x0000715e:    6838        8h      LDR      r0,[r7,#0]
        0x00007160:    6028        (`      STR      r0,[r5,#0]
        0x00007162:    b116        ..      CBZ      r6,0x716a ; udp_bind + 94
        0x00007164:    e023        #.      B        0x71ae ; udp_bind + 162
        0x00007166:    2000        .       MOVS     r0,#0
        0x00007168:    e7fa        ..      B        0x7160 ; udp_bind + 84
        0x0000716a:    f8d94004    ...@    LDR      r4,[r9,#4]
        0x0000716e:    2300        .#      MOVS     r3,#0
        0x00007170:    f64f7cff    O..|    MOV      r12,#0xffff
        0x00007174:    f44f4840    O.@H    MOV      r8,#0xc000
        0x00007178:    464e        NF      MOV      r6,r9
        0x0000717a:    f44f4a80    O..J    MOV      r10,#0x4000
        0x0000717e:    8832        2.      LDRH     r2,[r6,#0]
        0x00007180:    1c50        P.      ADDS     r0,r2,#1
        0x00007182:    8030        0.      STRH     r0,[r6,#0]
        0x00007184:    4562        bE      CMP      r2,r12
        0x00007186:    d101        ..      BNE      0x718c ; udp_bind + 128
        0x00007188:    f8a68000    ....    STRH     r8,[r6,#0]
        0x0000718c:    4620         F      MOV      r0,r4
        0x0000718e:    8832        2.      LDRH     r2,[r6,#0]
        0x00007190:    e009        ..      B        0x71a6 ; udp_bind + 154
        0x00007192:    8a47        G.      LDRH     r7,[r0,#0x12]
        0x00007194:    4297        .B      CMP      r7,r2
        0x00007196:    d105        ..      BNE      0x71a4 ; udp_bind + 152
        0x00007198:    1c5b        [.      ADDS     r3,r3,#1
        0x0000719a:    b29b        ..      UXTH     r3,r3
        0x0000719c:    4553        SE      CMP      r3,r10
        0x0000719e:    d3ee        ..      BCC      0x717e ; udp_bind + 114
        0x000071a0:    2600        .&      MOVS     r6,#0
        0x000071a2:    e003        ..      B        0x71ac ; udp_bind + 160
        0x000071a4:    68c0        .h      LDR      r0,[r0,#0xc]
        0x000071a6:    2800        .(      CMP      r0,#0
        0x000071a8:    d1f3        ..      BNE      0x7192 ; udp_bind + 134
        0x000071aa:    b296        ..      UXTH     r6,r2
        0x000071ac:    b116        ..      CBZ      r6,0x71b4 ; udp_bind + 168
        0x000071ae:    826e        n.      STRH     r6,[r5,#0x12]
        0x000071b0:    b121        !.      CBZ      r1,0x71bc ; udp_bind + 176
        0x000071b2:    e008        ..      B        0x71c6 ; udp_bind + 186
        0x000071b4:    e7ff        ..      B        0x71b6 ; udp_bind + 170
        0x000071b6:    4658        XF      MOV      r0,r11
        0x000071b8:    e8bd9ff0    ....    POP      {r4-r12,pc}
        0x000071bc:    f8d91004    ....    LDR      r1,[r9,#4]
        0x000071c0:    60e9        .`      STR      r1,[r5,#0xc]
        0x000071c2:    f8c95004    ...P    STR      r5,[r9,#4]
        0x000071c6:    2000        .       MOVS     r0,#0
        0x000071c8:    e7f6        ..      B        0x71b8 ; udp_bind + 172
    udp_sendto_if
        0x000071ca:    e92d4ffe    -..O    PUSH     {r1-r11,lr}
        0x000071ce:    4692        .F      MOV      r10,r2
        0x000071d0:    8a42        B.      LDRH     r2,[r0,#0x12]
        0x000071d2:    f8dd9030    ..0.    LDR      r9,[sp,#0x30]
        0x000071d6:    4605        .F      MOV      r5,r0
        0x000071d8:    460f        .F      MOV      r7,r1
        0x000071da:    4698        .F      MOV      r8,r3
        0x000071dc:    b92a        *.      CBNZ     r2,0x71ea ; udp_sendto_if + 32
        0x000071de:    4601        .F      MOV      r1,r0
        0x000071e0:    4628        (F      MOV      r0,r5
        0x000071e2:    f7ffff93    ....    BL       udp_bind ; 0x710c
        0x000071e6:    2800        .(      CMP      r0,#0
        0x000071e8:    d114        ..      BNE      0x7214 ; udp_sendto_if + 74
        0x000071ea:    2108        .!      MOVS     r1,#8
        0x000071ec:    4638        8F      MOV      r0,r7
        0x000071ee:    f7fcf95d    ..].    BL       pbuf_header ; 0x34ac
        0x000071f2:    b188        ..      CBZ      r0,0x7218 ; udp_sendto_if + 78
        0x000071f4:    2200        ."      MOVS     r2,#0
        0x000071f6:    2108        .!      MOVS     r1,#8
        0x000071f8:    2001        .       MOVS     r0,#1
        0x000071fa:    f7fcf80f    ....    BL       pbuf_alloc ; 0x321c
        0x000071fe:    0004        ..      MOVS     r4,r0
        0x00007200:    d006        ..      BEQ      0x7210 ; udp_sendto_if + 70
        0x00007202:    8938        8.      LDRH     r0,[r7,#8]
        0x00007204:    b148        H.      CBZ      r0,0x721a ; udp_sendto_if + 80
        0x00007206:    4639        9F      MOV      r1,r7
        0x00007208:    4620         F      MOV      r0,r4
        0x0000720a:    f7fcfb19    ....    BL       pbuf_chain ; 0x3840
        0x0000720e:    e004        ..      B        0x721a ; udp_sendto_if + 80
        0x00007210:    f04f30ff    O..0    MOV      r0,#0xffffffff
        0x00007214:    e8bd8ffe    ....    POP      {r1-r11,pc}
        0x00007218:    463c        <F      MOV      r4,r7
        0x0000721a:    8960        `.      LDRH     r0,[r4,#0xa]
        0x0000721c:    2808        .(      CMP      r0,#8
        0x0000721e:    d206        ..      BCS      0x722e ; udp_sendto_if + 100
        0x00007220:    a35b        [.      ADR      r3,{pc}+0x170 ; 0x7390
        0x00007222:    f2402261    @.a"    MOV      r2,#0x261
        0x00007226:    a17d        }.      ADR      r1,{pc}+0x1f6 ; 0x741c
        0x00007228:    a06a        j.      ADR      r0,{pc}+0x1ac ; 0x73d4
        0x0000722a:    f002fab5    ....    BL       __0printf$5 ; 0x9798
        0x0000722e:    8a68        h.      LDRH     r0,[r5,#0x12]
        0x00007230:    6866        fh      LDR      r6,[r4,#4]
        0x00007232:    f7f9fd8f    ....    BL       lwip_htons ; 0xd54
        0x00007236:    8030        0.      STRH     r0,[r6,#0]
        0x00007238:    4640        @F      MOV      r0,r8
        0x0000723a:    f7f9fd8b    ....    BL       lwip_htons ; 0xd54
        0x0000723e:    8070        p.      STRH     r0,[r6,#2]
        0x00007240:    2000        .       MOVS     r0,#0
        0x00007242:    80f0        ..      STRH     r0,[r6,#6]
        0x00007244:    b16d        m.      CBZ      r5,0x7262 ; udp_sendto_if + 152
        0x00007246:    6828        (h      LDR      r0,[r5,#0]
        0x00007248:    b158        X.      CBZ      r0,0x7262 ; udp_sendto_if + 152
        0x0000724a:    f8d91004    ....    LDR      r1,[r9,#4]
        0x0000724e:    4288        .B      CMP      r0,r1
        0x00007250:    d00a        ..      BEQ      0x7268 ; udp_sendto_if + 158
        0x00007252:    42bc        .B      CMP      r4,r7
        0x00007254:    d002        ..      BEQ      0x725c ; udp_sendto_if + 146
        0x00007256:    4620         F      MOV      r0,r4
        0x00007258:    f7fbff98    ....    BL       pbuf_free ; 0x318c
        0x0000725c:    f06f0005    o...    MVN      r0,#5
        0x00007260:    e7d8        ..      B        0x7214 ; udp_sendto_if + 74
        0x00007262:    f1090804    ....    ADD      r8,r9,#4
        0x00007266:    e000        ..      B        0x726a ; udp_sendto_if + 160
        0x00007268:    46a8        .F      MOV      r8,r5
        0x0000726a:    8920         .      LDRH     r0,[r4,#8]
        0x0000726c:    f7f9fd72    ..r.    BL       lwip_htons ; 0xd54
        0x00007270:    80b0        ..      STRH     r0,[r6,#4]
        0x00007272:    7c28        (|      LDRB     r0,[r5,#0x10]
        0x00007274:    07c0        ..      LSLS     r0,r0,#31
        0x00007276:    d10b        ..      BNE      0x7290 ; udp_sendto_if + 198
        0x00007278:    8923        #.      LDRH     r3,[r4,#8]
        0x0000727a:    9300        ..      STR      r3,[sp,#0]
        0x0000727c:    2311        .#      MOVS     r3,#0x11
        0x0000727e:    4652        RF      MOV      r2,r10
        0x00007280:    4641        AF      MOV      r1,r8
        0x00007282:    4620         F      MOV      r0,r4
        0x00007284:    f000fab3    ....    BL       inet_chksum_pseudo ; 0x77ee
        0x00007288:    b908        ..      CBNZ     r0,0x728e ; udp_sendto_if + 196
        0x0000728a:    f64f70ff    O..p    MOV      r0,#0xffff
        0x0000728e:    80f0        ..      STRH     r0,[r6,#6]
        0x00007290:    7a69        iz      LDRB     r1,[r5,#9]
        0x00007292:    2211        ."      MOVS     r2,#0x11
        0x00007294:    e88d0206    ....    STM      sp,{r1,r2,r9}
        0x00007298:    7aab        .z      LDRB     r3,[r5,#0xa]
        0x0000729a:    4652        RF      MOV      r2,r10
        0x0000729c:    4641        AF      MOV      r1,r8
        0x0000729e:    4620         F      MOV      r0,r4
        0x000072a0:    f000fc7a    ..z.    BL       ip_output_if ; 0x7b98
        0x000072a4:    4605        .F      MOV      r5,r0
        0x000072a6:    42bc        .B      CMP      r4,r7
        0x000072a8:    d002        ..      BEQ      0x72b0 ; udp_sendto_if + 230
        0x000072aa:    4620         F      MOV      r0,r4
        0x000072ac:    f7fbff6e    ..n.    BL       pbuf_free ; 0x318c
        0x000072b0:    4628        (F      MOV      r0,r5
        0x000072b2:    e7af        ..      B        0x7214 ; udp_sendto_if + 74
    udp_sendto
        0x000072b4:    b5f8        ..      PUSH     {r3-r7,lr}
        0x000072b6:    4605        .F      MOV      r5,r0
        0x000072b8:    460e        .F      MOV      r6,r1
        0x000072ba:    461f        .F      MOV      r7,r3
        0x000072bc:    4614        .F      MOV      r4,r2
        0x000072be:    4610        .F      MOV      r0,r2
        0x000072c0:    f000fb96    ....    BL       ip_route ; 0x79f0
        0x000072c4:    b138        8.      CBZ      r0,0x72d6 ; udp_sendto + 34
        0x000072c6:    9000        ..      STR      r0,[sp,#0]
        0x000072c8:    463b        ;F      MOV      r3,r7
        0x000072ca:    4622        "F      MOV      r2,r4
        0x000072cc:    4631        1F      MOV      r1,r6
        0x000072ce:    4628        (F      MOV      r0,r5
        0x000072d0:    f7ffff7b    ..{.    BL       udp_sendto_if ; 0x71ca
        0x000072d4:    bdf8        ..      POP      {r3-r7,pc}
        0x000072d6:    f06f0003    o...    MVN      r0,#3
        0x000072da:    bdf8        ..      POP      {r3-r7,pc}
    udp_send
        0x000072dc:    8a83        ..      LDRH     r3,[r0,#0x14]
        0x000072de:    1d02        ..      ADDS     r2,r0,#4
        0x000072e0:    e7e8        ..      B        udp_sendto ; 0x72b4
    udp_connect
        0x000072e2:    b570        p.      PUSH     {r4-r6,lr}
        0x000072e4:    4616        .F      MOV      r6,r2
        0x000072e6:    8a42        B.      LDRH     r2,[r0,#0x12]
        0x000072e8:    460d        .F      MOV      r5,r1
        0x000072ea:    4604        .F      MOV      r4,r0
        0x000072ec:    b92a        *.      CBNZ     r2,0x72fa ; udp_connect + 24
        0x000072ee:    4601        .F      MOV      r1,r0
        0x000072f0:    4620         F      MOV      r0,r4
        0x000072f2:    f7ffff0b    ....    BL       udp_bind ; 0x710c
        0x000072f6:    2800        .(      CMP      r0,#0
        0x000072f8:    d110        ..      BNE      0x731c ; udp_connect + 58
        0x000072fa:    b155        U.      CBZ      r5,0x7312 ; udp_connect + 48
        0x000072fc:    6828        (h      LDR      r0,[r5,#0]
        0x000072fe:    6060        ``      STR      r0,[r4,#4]
        0x00007300:    82a6        ..      STRH     r6,[r4,#0x14]
        0x00007302:    7c20         |      LDRB     r0,[r4,#0x10]
        0x00007304:    4a21        !J      LDR      r2,[pc,#132] ; [0x738c] = 0x200000c0
        0x00007306:    f0400004    @...    ORR      r0,r0,#4
        0x0000730a:    7420         t      STRB     r0,[r4,#0x10]
        0x0000730c:    6850        Ph      LDR      r0,[r2,#4]
        0x0000730e:    4601        .F      MOV      r1,r0
        0x00007310:    e006        ..      B        0x7320 ; udp_connect + 62
        0x00007312:    2000        .       MOVS     r0,#0
        0x00007314:    e7f3        ..      B        0x72fe ; udp_connect + 28
        0x00007316:    4284        .B      CMP      r4,r0
        0x00007318:    d101        ..      BNE      0x731e ; udp_connect + 60
        0x0000731a:    2000        .       MOVS     r0,#0
        0x0000731c:    bd70        p.      POP      {r4-r6,pc}
        0x0000731e:    68c0        .h      LDR      r0,[r0,#0xc]
        0x00007320:    2800        .(      CMP      r0,#0
        0x00007322:    d1f8        ..      BNE      0x7316 ; udp_connect + 52
        0x00007324:    60e1        .`      STR      r1,[r4,#0xc]
        0x00007326:    6054        T`      STR      r4,[r2,#4]
        0x00007328:    e7f7        ..      B        0x731a ; udp_connect + 56
    udp_disconnect
        0x0000732a:    2100        .!      MOVS     r1,#0
        0x0000732c:    6041        A`      STR      r1,[r0,#4]
        0x0000732e:    8281        ..      STRH     r1,[r0,#0x14]
        0x00007330:    7c01        .|      LDRB     r1,[r0,#0x10]
        0x00007332:    f0210104    !...    BIC      r1,r1,#4
        0x00007336:    7401        .t      STRB     r1,[r0,#0x10]
        0x00007338:    4770        pG      BX       lr
    udp_recv
        0x0000733a:    e9c01206    ....    STRD     r1,r2,[r0,#0x18]
        0x0000733e:    4770        pG      BX       lr
    udp_remove
        0x00007340:    4912        .I      LDR      r1,[pc,#72] ; [0x738c] = 0x200000c0
        0x00007342:    684a        Jh      LDR      r2,[r1,#4]
        0x00007344:    4282        .B      CMP      r2,r0
        0x00007346:    d109        ..      BNE      0x735c ; udp_remove + 28
        0x00007348:    68d2        .h      LDR      r2,[r2,#0xc]
        0x0000734a:    604a        J`      STR      r2,[r1,#4]
        0x0000734c:    e008        ..      B        0x7360 ; udp_remove + 32
        0x0000734e:    68d1        .h      LDR      r1,[r2,#0xc]
        0x00007350:    b119        ..      CBZ      r1,0x735a ; udp_remove + 26
        0x00007352:    4281        .B      CMP      r1,r0
        0x00007354:    d101        ..      BNE      0x735a ; udp_remove + 26
        0x00007356:    68c1        .h      LDR      r1,[r0,#0xc]
        0x00007358:    60d1        .`      STR      r1,[r2,#0xc]
        0x0000735a:    460a        .F      MOV      r2,r1
        0x0000735c:    2a00        .*      CMP      r2,#0
        0x0000735e:    d1f6        ..      BNE      0x734e ; udp_remove + 14
        0x00007360:    4601        .F      MOV      r1,r0
        0x00007362:    2000        .       MOVS     r0,#0
        0x00007364:    f7fbbd5c    ..\.    B        memp_free ; 0x2e20
    udp_new
        0x00007368:    b510        ..      PUSH     {r4,lr}
        0x0000736a:    2000        .       MOVS     r0,#0
        0x0000736c:    f7fbfd39    ..9.    BL       memp_malloc ; 0x2de2
        0x00007370:    0004        ..      MOVS     r4,r0
        0x00007372:    d004        ..      BEQ      0x737e ; udp_new + 22
        0x00007374:    2120         !      MOVS     r1,#0x20
        0x00007376:    f002f9af    ....    BL       __aeabi_memclr ; 0x96d8
        0x0000737a:    20ff        .       MOVS     r0,#0xff
        0x0000737c:    72a0        .r      STRB     r0,[r4,#0xa]
        0x0000737e:    4620         F      MOV      r0,r4
        0x00007380:    bd10        ..      POP      {r4,pc}
    $d
        0x00007382:    0000        ..      DCW    0
        0x00007384:    200000d8    ...     DCD    536871128
        0x00007388:    200000d4    ...     DCD    536871124
        0x0000738c:    200000c0    ...     DCD    536871104
        0x00007390:    2e5c2e2e    ..\.    DCD    777793070
        0x00007394:    2e2e5c2e    .\..    DCD    774790190
        0x00007398:    6968545c    \Thi    DCD    1768445020
        0x0000739c:    61506472    rdPa    DCD    1632658546
        0x000073a0:    5c797472    rty\    DCD    1551463538
        0x000073a4:    7069776c    lwip    DCD    1885960044
        0x000073a8:    342e312d    -1.4    DCD    875442477
        0x000073ac:    735c312e    .1\s    DCD    1935421742
        0x000073b0:    635c6372    rc\c    DCD    1666999154
        0x000073b4:    5c65726f    ore\    DCD    1550152303
        0x000073b8:    2e706475    udp.    DCD    779117685
        0x000073bc:    00000063    c...    DCD    99
        0x000073c0:    66756270    pbuf    DCD    1718968944
        0x000073c4:    6165685f    _hea    DCD    1634035807
        0x000073c8:    20726564    der     DCD    544367972
        0x000073cc:    6c696166    fail    DCD    1818845542
        0x000073d0:    000a6465    ed..    DCD    681061
        0x000073d4:    65737341    Asse    DCD    1702064961
        0x000073d8:    6f697472    rtio    DCD    1869182066
        0x000073dc:    2522206e    n "%    DCD    622993518
        0x000073e0:    66202273    s" f    DCD    1713382003
        0x000073e4:    656c6961    aile    DCD    1701603681
        0x000073e8:    74612064    d at    DCD    1952522340
        0x000073ec:    6e696c20     lin    DCD    1852402720
        0x000073f0:    64252065    e %d    DCD    1680154725
        0x000073f4:    206e6920     in     DCD    544106784
        0x000073f8:    000a7325    %s..    DCD    684837
        0x000073fc:    703e2d70    p->p    DCD    1883123056
        0x00007400:    6f6c7961    aylo    DCD    1869379937
        0x00007404:    3d206461    ad =    DCD    1025533025
        0x00007408:    7069203d    = ip    DCD    1885937725
        0x0000740c:    00726468    hdr.    DCD    7496808
        0x00007410:    69626572    rebi    DCD    1768056178
        0x00007414:    3d20646e    nd =    DCD    1025533038
        0x00007418:    0030203d    = 0.    DCD    3153981
        0x0000741c:    63656863    chec    DCD    1667590243
        0x00007420:    6874206b    k th    DCD    1752440939
        0x00007424:    66207461    at f    DCD    1713402977
        0x00007428:    74737269    irst    DCD    1953722985
        0x0000742c:    75627020     pbu    DCD    1969385504
        0x00007430:    61632066    f ca    DCD    1633886310
        0x00007434:    6f68206e    n ho    DCD    1869095022
        0x00007438:    7320646c    ld s    DCD    1931502700
        0x0000743c:    63757274    truc    DCD    1668641396
        0x00007440:    64752074    t ud    DCD    1685397620
        0x00007444:    64685f70    p_hd    DCD    1684561776
        0x00007448:    00000072    r...    DCD    114
    $t
    .text
    icmp_input
        0x0000744c:    e92d4ffe    -..O    PUSH     {r1-r11,lr}
        0x00007450:    6844        Dh      LDR      r4,[r0,#4]
        0x00007452:    4605        .F      MOV      r5,r0
        0x00007454:    4689        .F      MOV      r9,r1
        0x00007456:    7820         x      LDRB     r0,[r4,#0]
        0x00007458:    0700        ..      LSLS     r0,r0,#28
        0x0000745a:    0e87        ..      LSRS     r7,r0,#26
        0x0000745c:    4279        yB      RSBS     r1,r7,#0
        0x0000745e:    4688        .F      MOV      r8,r1
        0x00007460:    4628        (F      MOV      r0,r5
        0x00007462:    f7fcf823    ..#.    BL       pbuf_header ; 0x34ac
        0x00007466:    bbf0        ..      CBNZ     r0,0x74e6 ; icmp_input + 154
        0x00007468:    8928        (.      LDRH     r0,[r5,#8]
        0x0000746a:    2804        .(      CMP      r0,#4
        0x0000746c:    d33b        ;.      BCC      0x74e6 ; icmp_input + 154
        0x0000746e:    6868        hh      LDR      r0,[r5,#4]
        0x00007470:    7800        .x      LDRB     r0,[r0,#0]
        0x00007472:    b3c0        ..      CBZ      r0,0x74e6 ; icmp_input + 154
        0x00007474:    2808        .(      CMP      r0,#8
        0x00007476:    d136        6.      BNE      0x74e6 ; icmp_input + 154
        0x00007478:    4a68        hJ      LDR      r2,[pc,#416] ; [0x761c] = 0x200000d8
        0x0000747a:    2601        .&      MOVS     r6,#1
        0x0000747c:    6810        .h      LDR      r0,[r2,#0]
        0x0000747e:    f3c01103    ....    UBFX     r1,r0,#4,#4
        0x00007482:    290e        .)      CMP      r1,#0xe
        0x00007484:    d100        ..      BNE      0x7488 ; icmp_input + 60
        0x00007486:    2600        .&      MOVS     r6,#0
        0x00007488:    4692        .F      MOV      r10,r2
        0x0000748a:    4649        IF      MOV      r1,r9
        0x0000748c:    f000fc6c    ..l.    BL       ip4_addr_isbroadcast ; 0x7d68
        0x00007490:    bb48        H.      CBNZ     r0,0x74e6 ; icmp_input + 154
        0x00007492:    b346        F.      CBZ      r6,0x74e6 ; icmp_input + 154
        0x00007494:    8928        (.      LDRH     r0,[r5,#8]
        0x00007496:    2808        .(      CMP      r0,#8
        0x00007498:    d377        w.      BCC      0x758a ; icmp_input + 318
        0x0000749a:    4628        (F      MOV      r0,r5
        0x0000749c:    f000fa4b    ..K.    BL       inet_chksum_pbuf ; 0x7936
        0x000074a0:    bb08        ..      CBNZ     r0,0x74e6 ; icmp_input + 154
        0x000074a2:    2124        $!      MOVS     r1,#0x24
        0x000074a4:    4628        (F      MOV      r0,r5
        0x000074a6:    f7fcf801    ....    BL       pbuf_header ; 0x34ac
        0x000074aa:    b398        ..      CBZ      r0,0x7514 ; icmp_input + 200
        0x000074ac:    4639        9F      MOV      r1,r7
        0x000074ae:    4628        (F      MOV      r0,r5
        0x000074b0:    f7fbfffc    ....    BL       pbuf_header ; 0x34ac
        0x000074b4:    b118        ..      CBZ      r0,0x74be ; icmp_input + 114
        0x000074b6:    a35a        Z.      ADR      r3,{pc}+0x16a ; 0x7620
        0x000074b8:    2298        ."      MOVS     r2,#0x98
        0x000074ba:    a166        f.      ADR      r1,{pc}+0x19a ; 0x7654
        0x000074bc:    e057        W.      B        0x756e ; icmp_input + 290
        0x000074be:    8929        ).      LDRH     r1,[r5,#8]
        0x000074c0:    2200        ."      MOVS     r2,#0
        0x000074c2:    2002        .       MOVS     r0,#2
        0x000074c4:    f7fbfeaa    ....    BL       pbuf_alloc ; 0x321c
        0x000074c8:    0006        ..      MOVS     r6,r0
        0x000074ca:    d05e        ^.      BEQ      0x758a ; icmp_input + 318
        0x000074cc:    8971        q.      LDRH     r1,[r6,#0xa]
        0x000074ce:    f1070008    ....    ADD      r0,r7,#8
        0x000074d2:    4281        .B      CMP      r1,r0
        0x000074d4:    d205        ..      BCS      0x74e2 ; icmp_input + 150
        0x000074d6:    a352        R.      ADR      r3,{pc}+0x14a ; 0x7620
        0x000074d8:    22a1        ."      MOVS     r2,#0xa1
        0x000074da:    a16b        k.      ADR      r1,{pc}+0x1ae ; 0x7688
        0x000074dc:    a078        x.      ADR      r0,{pc}+0x1e4 ; 0x76c0
        0x000074de:    f002f95b    ..[.    BL       __0printf$5 ; 0x9798
        0x000074e2:    4629        )F      MOV      r1,r5
        0x000074e4:    e000        ..      B        0x74e8 ; icmp_input + 156
        0x000074e6:    e050        P.      B        0x758a ; icmp_input + 318
        0x000074e8:    4630        0F      MOV      r0,r6
        0x000074ea:    f7fcf9e4    ....    BL       pbuf_copy ; 0x38b6
        0x000074ee:    b118        ..      CBZ      r0,0x74f8 ; icmp_input + 172
        0x000074f0:    a34b        K.      ADR      r3,{pc}+0x130 ; 0x7620
        0x000074f2:    22a5        ."      MOVS     r2,#0xa5
        0x000074f4:    a17c        |.      ADR      r1,{pc}+0x1f4 ; 0x76e8
        0x000074f6:    e03a        :.      B        0x756e ; icmp_input + 290
        0x000074f8:    4641        AF      MOV      r1,r8
        0x000074fa:    4630        0F      MOV      r0,r6
        0x000074fc:    6874        th      LDR      r4,[r6,#4]
        0x000074fe:    f7fbffd5    ....    BL       pbuf_header ; 0x34ac
        0x00007502:    b110        ..      CBZ      r0,0x750a ; icmp_input + 190
        0x00007504:    a346        F.      ADR      r3,{pc}+0x11c ; 0x7620
        0x00007506:    22ab        ."      MOVS     r2,#0xab
        0x00007508:    e00d        ..      B        0x7526 ; icmp_input + 218
        0x0000750a:    4628        (F      MOV      r0,r5
        0x0000750c:    f7fbfe3e    ..>.    BL       pbuf_free ; 0x318c
        0x00007510:    4635        5F      MOV      r5,r6
        0x00007512:    e00a        ..      B        0x752a ; icmp_input + 222
        0x00007514:    e7ff        ..      B        0x7516 ; icmp_input + 202
        0x00007516:    f06f0123    o.#.    MVN      r1,#0x23
        0x0000751a:    4628        (F      MOV      r0,r5
        0x0000751c:    f7fbffc6    ....    BL       pbuf_header ; 0x34ac
        0x00007520:    b118        ..      CBZ      r0,0x752a ; icmp_input + 222
        0x00007522:    a33f        ?.      ADR      r3,{pc}+0xfe ; 0x7620
        0x00007524:    22b5        ."      MOVS     r2,#0xb5
        0x00007526:    a17a        z.      ADR      r1,{pc}+0x1ea ; 0x7710
        0x00007528:    e021        !.      B        0x756e ; icmp_input + 290
        0x0000752a:    6868        hh      LDR      r0,[r5,#4]
        0x0000752c:    f8da1000    ....    LDR      r1,[r10,#0]
        0x00007530:    60e1        .`      STR      r1,[r4,#0xc]
        0x00007532:    4984        .I      LDR      r1,[pc,#528] ; [0x7744] = 0x200000d4
        0x00007534:    2300        .#      MOVS     r3,#0
        0x00007536:    f64f72f7    O..r    MOV      r2,#0xfff7
        0x0000753a:    6809        .h      LDR      r1,[r1,#0]
        0x0000753c:    6121        !a      STR      r1,[r4,#0x10]
        0x0000753e:    7003        .p      STRB     r3,[r0,#0]
        0x00007540:    8841        A.      LDRH     r1,[r0,#2]
        0x00007542:    4291        .B      CMP      r1,r2
        0x00007544:    d301        ..      BCC      0x754a ; icmp_input + 254
        0x00007546:    3109        .1      ADDS     r1,r1,#9
        0x00007548:    e000        ..      B        0x754c ; icmp_input + 256
        0x0000754a:    3108        .1      ADDS     r1,r1,#8
        0x0000754c:    8041        A.      STRH     r1,[r0,#2]
        0x0000754e:    20ff        .       MOVS     r0,#0xff
        0x00007550:    7220         r      STRB     r0,[r4,#8]
        0x00007552:    8163        c.      STRH     r3,[r4,#0xa]
        0x00007554:    2114        .!      MOVS     r1,#0x14
        0x00007556:    4620         F      MOV      r0,r4
        0x00007558:    f000f9e7    ....    BL       inet_chksum ; 0x792a
        0x0000755c:    8160        `.      STRH     r0,[r4,#0xa]
        0x0000755e:    4639        9F      MOV      r1,r7
        0x00007560:    4628        (F      MOV      r0,r5
        0x00007562:    f7fbffa3    ....    BL       pbuf_header ; 0x34ac
        0x00007566:    b130        0.      CBZ      r0,0x7576 ; icmp_input + 298
        0x00007568:    a32d        -.      ADR      r3,{pc}+0xb8 ; 0x7620
        0x0000756a:    22da        ."      MOVS     r2,#0xda
        0x0000756c:    a176        v.      ADR      r1,{pc}+0x1dc ; 0x7748
        0x0000756e:    a054        T.      ADR      r0,{pc}+0x152 ; 0x76c0
        0x00007570:    f002f912    ....    BL       __0printf$5 ; 0x9798
        0x00007574:    e009        ..      B        0x758a ; icmp_input + 318
        0x00007576:    2201        ."      MOVS     r2,#1
        0x00007578:    2100        .!      MOVS     r1,#0
        0x0000757a:    e88d0206    ....    STM      sp,{r1,r2,r9}
        0x0000757e:    460a        .F      MOV      r2,r1
        0x00007580:    23ff        .#      MOVS     r3,#0xff
        0x00007582:    4926        &I      LDR      r1,[pc,#152] ; [0x761c] = 0x200000d8
        0x00007584:    4628        (F      MOV      r0,r5
        0x00007586:    f000fb07    ....    BL       ip_output_if ; 0x7b98
        0x0000758a:    4628        (F      MOV      r0,r5
        0x0000758c:    e8bd4ffe    ...O    POP      {r1-r11,lr}
        0x00007590:    f7fbbdfc    ....    B        pbuf_free ; 0x318c
    icmp_send_response
        0x00007594:    e92d43fe    -..C    PUSH     {r1-r9,lr}
        0x00007598:    4606        .F      MOV      r6,r0
        0x0000759a:    460f        .F      MOV      r7,r1
        0x0000759c:    4691        .F      MOV      r9,r2
        0x0000759e:    2200        ."      MOVS     r2,#0
        0x000075a0:    2124        $!      MOVS     r1,#0x24
        0x000075a2:    2001        .       MOVS     r0,#1
        0x000075a4:    f7fbfe3a    ..:.    BL       pbuf_alloc ; 0x321c
        0x000075a8:    0005        ..      MOVS     r5,r0
        0x000075aa:    d02e        ..      BEQ      0x760a ; icmp_send_response + 118
        0x000075ac:    8968        h.      LDRH     r0,[r5,#0xa]
        0x000075ae:    2824        $(      CMP      r0,#0x24
        0x000075b0:    d206        ..      BCS      0x75c0 ; icmp_send_response + 44
        0x000075b2:    a31b        ..      ADR      r3,{pc}+0x6e ; 0x7620
        0x000075b4:    f44f7299    O..r    MOV      r2,#0x132
        0x000075b8:    a16c        l.      ADR      r1,{pc}+0x1b4 ; 0x776c
        0x000075ba:    a041        A.      ADR      r0,{pc}+0x106 ; 0x76c0
        0x000075bc:    f002f8ec    ....    BL       __0printf$5 ; 0x9798
        0x000075c0:    686c        lh      LDR      r4,[r5,#4]
        0x000075c2:    f8d68004    ....    LDR      r8,[r6,#4]
        0x000075c6:    221c        ."      MOVS     r2,#0x1c
        0x000075c8:    7027        'p      STRB     r7,[r4,#0]
        0x000075ca:    f8849001    ....    STRB     r9,[r4,#1]
        0x000075ce:    2700        .'      MOVS     r7,#0
        0x000075d0:    80a7        ..      STRH     r7,[r4,#4]
        0x000075d2:    80e7        ..      STRH     r7,[r4,#6]
        0x000075d4:    6868        hh      LDR      r0,[r5,#4]
        0x000075d6:    6871        qh      LDR      r1,[r6,#4]
        0x000075d8:    3008        .0      ADDS     r0,r0,#8
        0x000075da:    f002f864    ..d.    BL       __aeabi_memcpy ; 0x96a6
        0x000075de:    8067        g.      STRH     r7,[r4,#2]
        0x000075e0:    8969        i.      LDRH     r1,[r5,#0xa]
        0x000075e2:    4620         F      MOV      r0,r4
        0x000075e4:    f000f9a1    ....    BL       inet_chksum ; 0x792a
        0x000075e8:    8060        `.      STRH     r0,[r4,#2]
        0x000075ea:    f8d8000c    ....    LDR      r0,[r8,#0xc]
        0x000075ee:    2200        ."      MOVS     r2,#0
        0x000075f0:    9200        ..      STR      r2,[sp,#0]
        0x000075f2:    2301        .#      MOVS     r3,#1
        0x000075f4:    e9cd3001    ...0    STRD     r3,r0,[sp,#4]
        0x000075f8:    23ff        .#      MOVS     r3,#0xff
        0x000075fa:    aa02        ..      ADD      r2,sp,#8
        0x000075fc:    2100        .!      MOVS     r1,#0
        0x000075fe:    4628        (F      MOV      r0,r5
        0x00007600:    f000fb3a    ..:.    BL       ip_output ; 0x7c78
        0x00007604:    4628        (F      MOV      r0,r5
        0x00007606:    f7fbfdc1    ....    BL       pbuf_free ; 0x318c
        0x0000760a:    e8bd83fe    ....    POP      {r1-r9,pc}
    icmp_dest_unreach
        0x0000760e:    460a        .F      MOV      r2,r1
        0x00007610:    2103        .!      MOVS     r1,#3
        0x00007612:    e7bf        ..      B        icmp_send_response ; 0x7594
    icmp_time_exceeded
        0x00007614:    460a        .F      MOV      r2,r1
        0x00007616:    210b        .!      MOVS     r1,#0xb
        0x00007618:    e7bc        ..      B        icmp_send_response ; 0x7594
    $d
        0x0000761a:    0000        ..      DCW    0
        0x0000761c:    200000d8    ...     DCD    536871128
        0x00007620:    2e5c2e2e    ..\.    DCD    777793070
        0x00007624:    2e2e5c2e    .\..    DCD    774790190
        0x00007628:    6968545c    \Thi    DCD    1768445020
        0x0000762c:    61506472    rdPa    DCD    1632658546
        0x00007630:    5c797472    rty\    DCD    1551463538
        0x00007634:    7069776c    lwip    DCD    1885960044
        0x00007638:    342e312d    -1.4    DCD    875442477
        0x0000763c:    735c312e    .1\s    DCD    1935421742
        0x00007640:    635c6372    rc\c    DCD    1666999154
        0x00007644:    5c65726f    ore\    DCD    1550152303
        0x00007648:    34767069    ipv4    DCD    880177257
        0x0000764c:    6d63695c    \icm    DCD    1835231580
        0x00007650:    00632e70    p.c.    DCD    6499952
        0x00007654:    706d6369    icmp    DCD    1886217065
        0x00007658:    706e695f    _inp    DCD    1886284127
        0x0000765c:    203a7475    ut:     DCD    540701813
        0x00007660:    69766f6d    movi    DCD    1769369453
        0x00007664:    7020676e    ng p    DCD    1881171822
        0x00007668:    61703e2d    ->pa    DCD    1634745901
        0x0000766c:    616f6c79    yloa    DCD    1634692217
        0x00007670:    6f742064    d to    DCD    1869881444
        0x00007674:    20706920     ip     DCD    544237856
        0x00007678:    64616568    head    DCD    1684104552
        0x0000767c:    66207265    er f    DCD    1713402469
        0x00007680:    656c6961    aile    DCD    1701603681
        0x00007684:    00000a64    d...    DCD    2660
        0x00007688:    63656863    chec    DCD    1667590243
        0x0000768c:    6874206b    k th    DCD    1752440939
        0x00007690:    66207461    at f    DCD    1713402977
        0x00007694:    74737269    irst    DCD    1953722985
        0x00007698:    75627020     pbu    DCD    1969385504
        0x0000769c:    61632066    f ca    DCD    1633886310
        0x000076a0:    6f68206e    n ho    DCD    1869095022
        0x000076a4:    7320646c    ld s    DCD    1931502700
        0x000076a8:    63757274    truc    DCD    1668641396
        0x000076ac:    68742074    t th    DCD    1752440948
        0x000076b0:    43492065    e IC    DCD    1128865893
        0x000076b4:    6820504d    MP h    DCD    1746948173
        0x000076b8:    65646165    eade    DCD    1701077349
        0x000076bc:    00000072    r...    DCD    114
        0x000076c0:    65737341    Asse    DCD    1702064961
        0x000076c4:    6f697472    rtio    DCD    1869182066
        0x000076c8:    2522206e    n "%    DCD    622993518
        0x000076cc:    66202273    s" f    DCD    1713382003
        0x000076d0:    656c6961    aile    DCD    1701603681
        0x000076d4:    74612064    d at    DCD    1952522340
        0x000076d8:    6e696c20     lin    DCD    1852402720
        0x000076dc:    64252065    e %d    DCD    1680154725
        0x000076e0:    206e6920     in     DCD    544106784
        0x000076e4:    000a7325    %s..    DCD    684837
        0x000076e8:    706d6369    icmp    DCD    1886217065
        0x000076ec:    706e695f    _inp    DCD    1886284127
        0x000076f0:    203a7475    ut:     DCD    540701813
        0x000076f4:    79706f63    copy    DCD    2037411683
        0x000076f8:    20676e69    ing     DCD    543649385
        0x000076fc:    6e206f74    to n    DCD    1847619444
        0x00007700:    70207765    ew p    DCD    1881175909
        0x00007704:    20667562    buf     DCD    543585634
        0x00007708:    6c696166    fail    DCD    1818845542
        0x0000770c:    000a6465    ed..    DCD    681061
        0x00007710:    706d6369    icmp    DCD    1886217065
        0x00007714:    706e695f    _inp    DCD    1886284127
        0x00007718:    203a7475    ut:     DCD    540701813
        0x0000771c:    74736572    rest    DCD    1953719666
        0x00007720:    6e69726f    orin    DCD    1852404335
        0x00007724:    726f2067    g or    DCD    1919885415
        0x00007728:    6e696769    igin    DCD    1852401513
        0x0000772c:    70206c61    al p    DCD    1881173089
        0x00007730:    61703e2d    ->pa    DCD    1634745901
        0x00007734:    616f6c79    yloa    DCD    1634692217
        0x00007738:    61662064    d fa    DCD    1634082916
        0x0000773c:    64656c69    iled    DCD    1684368489
        0x00007740:    0000000a    ....    DCD    10
        0x00007744:    200000d4    ...     DCD    536871124
        0x00007748:    276e6143    Can'    DCD    661545283
        0x0000774c:    6f6d2074    t mo    DCD    1869422708
        0x00007750:    6f206576    ve o    DCD    1864394102
        0x00007754:    20726576    ver     DCD    544367990
        0x00007758:    64616568    head    DCD    1684104552
        0x0000775c:    69207265    er i    DCD    1763734117
        0x00007760:    6170206e    n pa    DCD    1634738286
        0x00007764:    74656b63    cket    DCD    1952803683
        0x00007768:    00000000    ....    DCD    0
        0x0000776c:    63656863    chec    DCD    1667590243
        0x00007770:    6874206b    k th    DCD    1752440939
        0x00007774:    66207461    at f    DCD    1713402977
        0x00007778:    74737269    irst    DCD    1953722985
        0x0000777c:    75627020     pbu    DCD    1969385504
        0x00007780:    61632066    f ca    DCD    1633886310
        0x00007784:    6f68206e    n ho    DCD    1869095022
        0x00007788:    6920646c    ld i    DCD    1763730540
        0x0000778c:    20706d63    cmp     DCD    544238947
        0x00007790:    7373656d    mess    DCD    1936942445
        0x00007794:    00656761    age.    DCD    6645601
    $t
    .text
    lwip_standard_chksum
        0x00007798:    b518        ..      PUSH     {r3,r4,lr}
        0x0000779a:    2200        ."      MOVS     r2,#0
        0x0000779c:    f8ad2000    ...     STRH     r2,[sp,#0]
        0x000077a0:    f0100301    ....    ANDS     r3,r0,#1
        0x000077a4:    d00b        ..      BEQ      0x77be ; lwip_standard_chksum + 38
        0x000077a6:    2900        .)      CMP      r1,#0
        0x000077a8:    dd09        ..      BLE      0x77be ; lwip_standard_chksum + 38
        0x000077aa:    f8104b01    ...K    LDRB     r4,[r0],#1
        0x000077ae:    f88d4001    ...@    STRB     r4,[sp,#1]
        0x000077b2:    1e49        I.      SUBS     r1,r1,#1
        0x000077b4:    e003        ..      B        0x77be ; lwip_standard_chksum + 38
        0x000077b6:    f8304b02    0..K    LDRH     r4,[r0],#2
        0x000077ba:    1e89        ..      SUBS     r1,r1,#2
        0x000077bc:    4422        "D      ADD      r2,r2,r4
        0x000077be:    2901        .)      CMP      r1,#1
        0x000077c0:    dcf9        ..      BGT      0x77b6 ; lwip_standard_chksum + 30
        0x000077c2:    2900        .)      CMP      r1,#0
        0x000077c4:    dd02        ..      BLE      0x77cc ; lwip_standard_chksum + 52
        0x000077c6:    7800        .x      LDRB     r0,[r0,#0]
        0x000077c8:    f88d0000    ....    STRB     r0,[sp,#0]
        0x000077cc:    f8bd0000    ....    LDRH     r0,[sp,#0]
        0x000077d0:    4410        .D      ADD      r0,r0,r2
        0x000077d2:    0c01        ..      LSRS     r1,r0,#16
        0x000077d4:    fa11f080    ....    UXTAH    r0,r1,r0
        0x000077d8:    0c01        ..      LSRS     r1,r0,#16
        0x000077da:    fa11f080    ....    UXTAH    r0,r1,r0
        0x000077de:    b123        #.      CBZ      r3,0x77ea ; lwip_standard_chksum + 82
        0x000077e0:    b2c1        ..      UXTB     r1,r0
        0x000077e2:    f3c02007    ...     UBFX     r0,r0,#8,#8
        0x000077e6:    ea402001    @..     ORR      r0,r0,r1,LSL #8
        0x000077ea:    b280        ..      UXTH     r0,r0
        0x000077ec:    bd18        ..      POP      {r3,r4,pc}
    inet_chksum_pseudo
        0x000077ee:    e92d47f0    -..G    PUSH     {r4-r10,lr}
        0x000077f2:    2400        .$      MOVS     r4,#0
        0x000077f4:    460f        .F      MOV      r7,r1
        0x000077f6:    4690        .F      MOV      r8,r2
        0x000077f8:    4699        .F      MOV      r9,r3
        0x000077fa:    4626        &F      MOV      r6,r4
        0x000077fc:    4605        .F      MOV      r5,r0
        0x000077fe:    f8dda020    .. .    LDR      r10,[sp,#0x20]
        0x00007802:    e013        ..      B        0x782c ; inet_chksum_pseudo + 62
        0x00007804:    8969        i.      LDRH     r1,[r5,#0xa]
        0x00007806:    6868        hh      LDR      r0,[r5,#4]
        0x00007808:    f7ffffc6    ....    BL       lwip_standard_chksum ; 0x7798
        0x0000780c:    4420         D      ADD      r0,r0,r4
        0x0000780e:    0c01        ..      LSRS     r1,r0,#16
        0x00007810:    fa11f480    ....    UXTAH    r4,r1,r0
        0x00007814:    8968        h.      LDRH     r0,[r5,#0xa]
        0x00007816:    07c0        ..      LSLS     r0,r0,#31
        0x00007818:    d007        ..      BEQ      0x782a ; inet_chksum_pseudo + 60
        0x0000781a:    f1c60001    ....    RSB      r0,r6,#1
        0x0000781e:    b2c6        ..      UXTB     r6,r0
        0x00007820:    b2e0        ..      UXTB     r0,r4
        0x00007822:    f3c42107    ...!    UBFX     r1,r4,#8,#8
        0x00007826:    ea412400    A..$    ORR      r4,r1,r0,LSL #8
        0x0000782a:    682d        -h      LDR      r5,[r5,#0]
        0x0000782c:    2d00        .-      CMP      r5,#0
        0x0000782e:    d1e9        ..      BNE      0x7804 ; inet_chksum_pseudo + 22
        0x00007830:    b126        &.      CBZ      r6,0x783c ; inet_chksum_pseudo + 78
        0x00007832:    b2e0        ..      UXTB     r0,r4
        0x00007834:    f3c42107    ...!    UBFX     r1,r4,#8,#8
        0x00007838:    ea412400    A..$    ORR      r4,r1,r0,LSL #8
        0x0000783c:    6838        8h      LDR      r0,[r7,#0]
        0x0000783e:    fa14f180    ....    UXTAH    r1,r4,r0
        0x00007842:    eb014110    ...A    ADD      r1,r1,r0,LSR #16
        0x00007846:    f8d80000    ....    LDR      r0,[r8,#0]
        0x0000784a:    fa11f180    ....    UXTAH    r1,r1,r0
        0x0000784e:    eb014410    ...D    ADD      r4,r1,r0,LSR #16
        0x00007852:    4648        HF      MOV      r0,r9
        0x00007854:    f7f9fa7e    ..~.    BL       lwip_htons ; 0xd54
        0x00007858:    4404        .D      ADD      r4,r4,r0
        0x0000785a:    4650        PF      MOV      r0,r10
        0x0000785c:    f7f9fa7a    ..z.    BL       lwip_htons ; 0xd54
        0x00007860:    4420         D      ADD      r0,r0,r4
        0x00007862:    0c01        ..      LSRS     r1,r0,#16
        0x00007864:    fa11f080    ....    UXTAH    r0,r1,r0
        0x00007868:    0c01        ..      LSRS     r1,r0,#16
        0x0000786a:    fa11f080    ....    UXTAH    r0,r1,r0
        0x0000786e:    43c0        .C      MVNS     r0,r0
        0x00007870:    b280        ..      UXTH     r0,r0
        0x00007872:    e8bd87f0    ....    POP      {r4-r10,pc}
    inet_chksum_pseudo_partial
        0x00007876:    e92d5fff    -.._    PUSH     {r0-r12,lr}
        0x0000787a:    2400        .$      MOVS     r4,#0
        0x0000787c:    4689        .F      MOV      r9,r1
        0x0000787e:    4692        .F      MOV      r10,r2
        0x00007880:    469b        .F      MOV      r11,r3
        0x00007882:    46a0        .F      MOV      r8,r4
        0x00007884:    4605        .F      MOV      r5,r0
        0x00007886:    9e0f        ..      LDR      r6,[sp,#0x3c]
        0x00007888:    e025        %.      B        0x78d6 ; inet_chksum_pseudo_partial + 96
        0x0000788a:    896f        o.      LDRH     r7,[r5,#0xa]
        0x0000788c:    42b7        .B      CMP      r7,r6
        0x0000788e:    d900        ..      BLS      0x7892 ; inet_chksum_pseudo_partial + 28
        0x00007890:    4637        7F      MOV      r7,r6
        0x00007892:    4639        9F      MOV      r1,r7
        0x00007894:    6868        hh      LDR      r0,[r5,#4]
        0x00007896:    f7ffff7f    ....    BL       lwip_standard_chksum ; 0x7798
        0x0000789a:    4404        .D      ADD      r4,r4,r0
        0x0000789c:    1bf0        ..      SUBS     r0,r6,r7
        0x0000789e:    b286        ..      UXTH     r6,r0
        0x000078a0:    f64770ff    G..p    MOV      r0,#0x7fff
        0x000078a4:    4286        .B      CMP      r6,r0
        0x000078a6:    d306        ..      BCC      0x78b6 ; inet_chksum_pseudo_partial + 64
        0x000078a8:    a335        5.      ADR      r3,{pc}+0xd8 ; 0x7980
        0x000078aa:    f44f72b1    O..r    MOV      r2,#0x162
        0x000078ae:    a143        C.      ADR      r1,{pc}+0x10e ; 0x79bc
        0x000078b0:    a045        E.      ADR      r0,{pc}+0x118 ; 0x79c8
        0x000078b2:    f001ff71    ..q.    BL       __0printf$5 ; 0x9798
        0x000078b6:    0c20         .      LSRS     r0,r4,#16
        0x000078b8:    fa10f484    ....    UXTAH    r4,r0,r4
        0x000078bc:    8968        h.      LDRH     r0,[r5,#0xa]
        0x000078be:    07c0        ..      LSLS     r0,r0,#31
        0x000078c0:    d008        ..      BEQ      0x78d4 ; inet_chksum_pseudo_partial + 94
        0x000078c2:    f1c80001    ....    RSB      r0,r8,#1
        0x000078c6:    f00008ff    ....    AND      r8,r0,#0xff
        0x000078ca:    b2e0        ..      UXTB     r0,r4
        0x000078cc:    f3c42107    ...!    UBFX     r1,r4,#8,#8
        0x000078d0:    ea412400    A..$    ORR      r4,r1,r0,LSL #8
        0x000078d4:    682d        -h      LDR      r5,[r5,#0]
        0x000078d6:    b10d        ..      CBZ      r5,0x78dc ; inet_chksum_pseudo_partial + 102
        0x000078d8:    2e00        ..      CMP      r6,#0
        0x000078da:    d1d6        ..      BNE      0x788a ; inet_chksum_pseudo_partial + 20
        0x000078dc:    f1b80f00    ....    CMP      r8,#0
        0x000078e0:    d004        ..      BEQ      0x78ec ; inet_chksum_pseudo_partial + 118
        0x000078e2:    b2e0        ..      UXTB     r0,r4
        0x000078e4:    f3c42107    ...!    UBFX     r1,r4,#8,#8
        0x000078e8:    ea412400    A..$    ORR      r4,r1,r0,LSL #8
        0x000078ec:    f8d90000    ....    LDR      r0,[r9,#0]
        0x000078f0:    fa14f180    ....    UXTAH    r1,r4,r0
        0x000078f4:    eb014110    ...A    ADD      r1,r1,r0,LSR #16
        0x000078f8:    f8da0000    ....    LDR      r0,[r10,#0]
        0x000078fc:    fa11f180    ....    UXTAH    r1,r1,r0
        0x00007900:    eb014410    ...D    ADD      r4,r1,r0,LSR #16
        0x00007904:    4658        XF      MOV      r0,r11
        0x00007906:    f7f9fa25    ..%.    BL       lwip_htons ; 0xd54
        0x0000790a:    4404        .D      ADD      r4,r4,r0
        0x0000790c:    980e        ..      LDR      r0,[sp,#0x38]
        0x0000790e:    f7f9fa21    ..!.    BL       lwip_htons ; 0xd54
        0x00007912:    4420         D      ADD      r0,r0,r4
        0x00007914:    0c01        ..      LSRS     r1,r0,#16
        0x00007916:    fa11f080    ....    UXTAH    r0,r1,r0
        0x0000791a:    0c01        ..      LSRS     r1,r0,#16
        0x0000791c:    fa11f080    ....    UXTAH    r0,r1,r0
        0x00007920:    43c0        .C      MVNS     r0,r0
        0x00007922:    b004        ..      ADD      sp,sp,#0x10
        0x00007924:    b280        ..      UXTH     r0,r0
        0x00007926:    e8bd9ff0    ....    POP      {r4-r12,pc}
    inet_chksum
        0x0000792a:    b510        ..      PUSH     {r4,lr}
        0x0000792c:    f7ffff34    ..4.    BL       lwip_standard_chksum ; 0x7798
        0x00007930:    43c0        .C      MVNS     r0,r0
        0x00007932:    b280        ..      UXTH     r0,r0
        0x00007934:    bd10        ..      POP      {r4,pc}
    inet_chksum_pbuf
        0x00007936:    b570        p.      PUSH     {r4-r6,lr}
        0x00007938:    2400        .$      MOVS     r4,#0
        0x0000793a:    4605        .F      MOV      r5,r0
        0x0000793c:    4626        &F      MOV      r6,r4
        0x0000793e:    e013        ..      B        0x7968 ; inet_chksum_pbuf + 50
        0x00007940:    8969        i.      LDRH     r1,[r5,#0xa]
        0x00007942:    6868        hh      LDR      r0,[r5,#4]
        0x00007944:    f7ffff28    ..(.    BL       lwip_standard_chksum ; 0x7798
        0x00007948:    4420         D      ADD      r0,r0,r4
        0x0000794a:    0c01        ..      LSRS     r1,r0,#16
        0x0000794c:    fa11f480    ....    UXTAH    r4,r1,r0
        0x00007950:    8968        h.      LDRH     r0,[r5,#0xa]
        0x00007952:    07c0        ..      LSLS     r0,r0,#31
        0x00007954:    d007        ..      BEQ      0x7966 ; inet_chksum_pbuf + 48
        0x00007956:    f1c60001    ....    RSB      r0,r6,#1
        0x0000795a:    b2c6        ..      UXTB     r6,r0
        0x0000795c:    b2e0        ..      UXTB     r0,r4
        0x0000795e:    f3c42107    ...!    UBFX     r1,r4,#8,#8
        0x00007962:    ea412400    A..$    ORR      r4,r1,r0,LSL #8
        0x00007966:    682d        -h      LDR      r5,[r5,#0]
        0x00007968:    2d00        .-      CMP      r5,#0
        0x0000796a:    d1e9        ..      BNE      0x7940 ; inet_chksum_pbuf + 10
        0x0000796c:    b126        &.      CBZ      r6,0x7978 ; inet_chksum_pbuf + 66
        0x0000796e:    b2e0        ..      UXTB     r0,r4
        0x00007970:    f3c42107    ...!    UBFX     r1,r4,#8,#8
        0x00007974:    ea412400    A..$    ORR      r4,r1,r0,LSL #8
        0x00007978:    43e0        .C      MVNS     r0,r4
        0x0000797a:    b280        ..      UXTH     r0,r0
        0x0000797c:    bd70        p.      POP      {r4-r6,pc}
    $d
        0x0000797e:    0000        ..      DCW    0
        0x00007980:    2e5c2e2e    ..\.    DCD    777793070
        0x00007984:    2e2e5c2e    .\..    DCD    774790190
        0x00007988:    6968545c    \Thi    DCD    1768445020
        0x0000798c:    61506472    rdPa    DCD    1632658546
        0x00007990:    5c797472    rty\    DCD    1551463538
        0x00007994:    7069776c    lwip    DCD    1885960044
        0x00007998:    342e312d    -1.4    DCD    875442477
        0x0000799c:    735c312e    .1\s    DCD    1935421742
        0x000079a0:    635c6372    rc\c    DCD    1666999154
        0x000079a4:    5c65726f    ore\    DCD    1550152303
        0x000079a8:    34767069    ipv4    DCD    880177257
        0x000079ac:    656e695c    \ine    DCD    1701734748
        0x000079b0:    68635f74    t_ch    DCD    1751342964
        0x000079b4:    6d75736b    ksum    DCD    1836413803
        0x000079b8:    0000632e    .c..    DCD    25390
        0x000079bc:    656c6564    dele    DCD    1701602660
        0x000079c0:    6d206574    te m    DCD    1830839668
        0x000079c4:    00000065    e...    DCD    101
        0x000079c8:    65737341    Asse    DCD    1702064961
        0x000079cc:    6f697472    rtio    DCD    1869182066
        0x000079d0:    2522206e    n "%    DCD    622993518
        0x000079d4:    66202273    s" f    DCD    1713382003
        0x000079d8:    656c6961    aile    DCD    1701603681
        0x000079dc:    74612064    d at    DCD    1952522340
        0x000079e0:    6e696c20     lin    DCD    1852402720
        0x000079e4:    64252065    e %d    DCD    1680154725
        0x000079e8:    206e6920     in     DCD    544106784
        0x000079ec:    000a7325    %s..    DCD    684837
    $t
    .text
    ip_route
        0x000079f0:    4684        .F      MOV      r12,r0
        0x000079f2:    48b4        .H      LDR      r0,[pc,#720] ; [0x7cc4] = 0x20000078
        0x000079f4:    e00b        ..      B        0x7a0e ; ip_route + 30
        0x000079f6:    f890102d    ..-.    LDRB     r1,[r0,#0x2d]
        0x000079fa:    07c9        ..      LSLS     r1,r1,#31
        0x000079fc:    d007        ..      BEQ      0x7a0e ; ip_route + 30
        0x000079fe:    6881        .h      LDR      r1,[r0,#8]
        0x00007a00:    f8dc2000    ...     LDR      r2,[r12,#0]
        0x00007a04:    6843        Ch      LDR      r3,[r0,#4]
        0x00007a06:    400a        .@      ANDS     r2,r2,r1
        0x00007a08:    400b        .@      ANDS     r3,r3,r1
        0x00007a0a:    429a        .B      CMP      r2,r3
        0x00007a0c:    d00a        ..      BEQ      0x7a24 ; ip_route + 52
        0x00007a0e:    6800        .h      LDR      r0,[r0,#0]
        0x00007a10:    2800        .(      CMP      r0,#0
        0x00007a12:    d1f0        ..      BNE      0x79f6 ; ip_route + 6
        0x00007a14:    48ac        .H      LDR      r0,[pc,#688] ; [0x7cc8] = 0x2000007c
        0x00007a16:    6800        .h      LDR      r0,[r0,#0]
        0x00007a18:    b118        ..      CBZ      r0,0x7a22 ; ip_route + 50
        0x00007a1a:    f890102d    ..-.    LDRB     r1,[r0,#0x2d]
        0x00007a1e:    07c9        ..      LSLS     r1,r1,#31
        0x00007a20:    d100        ..      BNE      0x7a24 ; ip_route + 52
        0x00007a22:    2000        .       MOVS     r0,#0
        0x00007a24:    4770        pG      BX       lr
    ip_input
        0x00007a26:    e92d5ff0    -.._    PUSH     {r4-r12,lr}
        0x00007a2a:    6845        Eh      LDR      r5,[r0,#4]
        0x00007a2c:    4606        .F      MOV      r6,r0
        0x00007a2e:    460f        .F      MOV      r7,r1
        0x00007a30:    7828        (x      LDRB     r0,[r5,#0]
        0x00007a32:    2104        .!      MOVS     r1,#4
        0x00007a34:    f04f0a01    O...    MOV      r10,#1
        0x00007a38:    ebb11f10    ....    CMP      r1,r0,LSR #4
        0x00007a3c:    d111        ..      BNE      0x7a62 ; ip_input + 60
        0x00007a3e:    0700        ..      LSLS     r0,r0,#28
        0x00007a40:    ea4f6990    O..i    LSR      r9,r0,#26
        0x00007a44:    8868        h.      LDRH     r0,[r5,#2]
        0x00007a46:    f7f9f987    ....    BL       lwip_ntohs ; 0xd58
        0x00007a4a:    4604        .F      MOV      r4,r0
        0x00007a4c:    8970        p.      LDRH     r0,[r6,#0xa]
        0x00007a4e:    4548        HE      CMP      r0,r9
        0x00007a50:    d307        ..      BCC      0x7a62 ; ip_input + 60
        0x00007a52:    8930        0.      LDRH     r0,[r6,#8]
        0x00007a54:    42a0        .B      CMP      r0,r4
        0x00007a56:    d304        ..      BCC      0x7a62 ; ip_input + 60
        0x00007a58:    4649        IF      MOV      r1,r9
        0x00007a5a:    4628        (F      MOV      r0,r5
        0x00007a5c:    f7ffff65    ..e.    BL       inet_chksum ; 0x792a
        0x00007a60:    b118        ..      CBZ      r0,0x7a6a ; ip_input + 68
        0x00007a62:    4630        0F      MOV      r0,r6
        0x00007a64:    f7fbfb92    ....    BL       pbuf_free ; 0x318c
        0x00007a68:    e06c        l.      B        0x7b44 ; ip_input + 286
        0x00007a6a:    4621        !F      MOV      r1,r4
        0x00007a6c:    4630        0F      MOV      r0,r6
        0x00007a6e:    f7fbfcbf    ....    BL       pbuf_realloc ; 0x33f0
        0x00007a72:    4896        .H      LDR      r0,[pc,#600] ; [0x7ccc] = 0x200000d8
        0x00007a74:    6929        )i      LDR      r1,[r5,#0x10]
        0x00007a76:    f04f0801    O...    MOV      r8,#1
        0x00007a7a:    6001        .`      STR      r1,[r0,#0]
        0x00007a7c:    1f01        ..      SUBS     r1,r0,#4
        0x00007a7e:    68ea        .h      LDR      r2,[r5,#0xc]
        0x00007a80:    463c        <F      MOV      r4,r7
        0x00007a82:    4683        .F      MOV      r11,r0
        0x00007a84:    600a        .`      STR      r2,[r1,#0]
        0x00007a86:    f894002d    ..-.    LDRB     r0,[r4,#0x2d]
        0x00007a8a:    07c0        ..      LSLS     r0,r0,#31
        0x00007a8c:    d00d        ..      BEQ      0x7aaa ; ip_input + 132
        0x00007a8e:    1d20         .      ADDS     r0,r4,#4
        0x00007a90:    d00b        ..      BEQ      0x7aaa ; ip_input + 132
        0x00007a92:    6861        ah      LDR      r1,[r4,#4]
        0x00007a94:    b149        I.      CBZ      r1,0x7aaa ; ip_input + 132
        0x00007a96:    f8db0000    ....    LDR      r0,[r11,#0]
        0x00007a9a:    4288        .B      CMP      r0,r1
        0x00007a9c:    d003        ..      BEQ      0x7aa6 ; ip_input + 128
        0x00007a9e:    4621        !F      MOV      r1,r4
        0x00007aa0:    f000f962    ..b.    BL       ip4_addr_isbroadcast ; 0x7d68
        0x00007aa4:    b108        ..      CBZ      r0,0x7aaa ; ip_input + 132
        0x00007aa6:    b174        t.      CBZ      r4,0x7ac6 ; ip_input + 160
        0x00007aa8:    e016        ..      B        0x7ad8 ; ip_input + 178
        0x00007aaa:    f1b80f00    ....    CMP      r8,#0
        0x00007aae:    d004        ..      BEQ      0x7aba ; ip_input + 148
        0x00007ab0:    4884        .H      LDR      r0,[pc,#528] ; [0x7cc4] = 0x20000078
        0x00007ab2:    f04f0800    O...    MOV      r8,#0
        0x00007ab6:    6804        .h      LDR      r4,[r0,#0]
        0x00007ab8:    e000        ..      B        0x7abc ; ip_input + 150
        0x00007aba:    6824        $h      LDR      r4,[r4,#0]
        0x00007abc:    42bc        .B      CMP      r4,r7
        0x00007abe:    d100        ..      BNE      0x7ac2 ; ip_input + 156
        0x00007ac0:    6824        $h      LDR      r4,[r4,#0]
        0x00007ac2:    2c00        .,      CMP      r4,#0
        0x00007ac4:    d1df        ..      BNE      0x7a86 ; ip_input + 96
        0x00007ac6:    7a68        hz      LDRB     r0,[r5,#9]
        0x00007ac8:    2811        .(      CMP      r0,#0x11
        0x00007aca:    d105        ..      BNE      0x7ad8 ; ip_input + 178
        0x00007acc:    eb050009    ....    ADD      r0,r5,r9
        0x00007ad0:    8840        @.      LDRH     r0,[r0,#2]
        0x00007ad2:    f5b04f88    ...O    CMP      r0,#0x4400
        0x00007ad6:    d033        3.      BEQ      0x7b40 ; ip_input + 282
        0x00007ad8:    f1ba0f00    ....    CMP      r10,#0
        0x00007adc:    d00f        ..      BEQ      0x7afe ; ip_input + 216
        0x00007ade:    497b        {I      LDR      r1,[pc,#492] ; [0x7ccc] = 0x200000d8
        0x00007ae0:    1f09        ..      SUBS     r1,r1,#4
        0x00007ae2:    6808        .h      LDR      r0,[r1,#0]
        0x00007ae4:    b158        X.      CBZ      r0,0x7afe ; ip_input + 216
        0x00007ae6:    4688        .F      MOV      r8,r1
        0x00007ae8:    4639        9F      MOV      r1,r7
        0x00007aea:    f000f93d    ..=.    BL       ip4_addr_isbroadcast ; 0x7d68
        0x00007aee:    2800        .(      CMP      r0,#0
        0x00007af0:    d1b7        ..      BNE      0x7a62 ; ip_input + 60
        0x00007af2:    f8d80000    ....    LDR      r0,[r8,#0]
        0x00007af6:    f3c01003    ....    UBFX     r0,r0,#4,#4
        0x00007afa:    280e        .(      CMP      r0,#0xe
        0x00007afc:    d0b1        ..      BEQ      0x7a62 ; ip_input + 60
        0x00007afe:    2c00        .,      CMP      r4,#0
        0x00007b00:    d0af        ..      BEQ      0x7a62 ; ip_input + 60
        0x00007b02:    88e8        ..      LDRH     r0,[r5,#6]
        0x00007b04:    f03000c0    0...    BICS     r0,r0,#0xc0
        0x00007b08:    d005        ..      BEQ      0x7b16 ; ip_input + 240
        0x00007b0a:    4630        0F      MOV      r0,r6
        0x00007b0c:    f000fbda    ....    BL       ip_reass ; 0x82c4
        0x00007b10:    0006        ..      MOVS     r6,r0
        0x00007b12:    d017        ..      BEQ      0x7b44 ; ip_input + 286
        0x00007b14:    6875        uh      LDR      r5,[r6,#4]
        0x00007b16:    f8df81b4    ....    LDR      r8,[pc,#436] ; [0x7ccc] = 0x200000d8
        0x00007b1a:    f1a80810    ....    SUB      r8,r8,#0x10
        0x00007b1e:    e9c87501    ...u    STRD     r7,r5,[r8,#4]
        0x00007b22:    7a68        hz      LDRB     r0,[r5,#9]
        0x00007b24:    2801        .(      CMP      r0,#1
        0x00007b26:    d01a        ..      BEQ      0x7b5e ; ip_input + 312
        0x00007b28:    2806        .(      CMP      r0,#6
        0x00007b2a:    d013        ..      BEQ      0x7b54 ; ip_input + 302
        0x00007b2c:    2811        .(      CMP      r0,#0x11
        0x00007b2e:    d00c        ..      BEQ      0x7b4a ; ip_input + 292
        0x00007b30:    465c        \F      MOV      r4,r11
        0x00007b32:    4639        9F      MOV      r1,r7
        0x00007b34:    f8db0000    ....    LDR      r0,[r11,#0]
        0x00007b38:    f000f916    ....    BL       ip4_addr_isbroadcast ; 0x7d68
        0x00007b3c:    b1a0        ..      CBZ      r0,0x7b68 ; ip_input + 322
        0x00007b3e:    e01d        ..      B        0x7b7c ; ip_input + 342
        0x00007b40:    463c        <F      MOV      r4,r7
        0x00007b42:    e7dc        ..      B        0x7afe ; ip_input + 216
        0x00007b44:    2000        .       MOVS     r0,#0
        0x00007b46:    e8bd9ff0    ....    POP      {r4-r12,pc}
        0x00007b4a:    4639        9F      MOV      r1,r7
        0x00007b4c:    4630        0F      MOV      r0,r6
        0x00007b4e:    f7fffa10    ....    BL       udp_input ; 0x6f72
        0x00007b52:    e016        ..      B        0x7b82 ; ip_input + 348
        0x00007b54:    4639        9F      MOV      r1,r7
        0x00007b56:    4630        0F      MOV      r0,r6
        0x00007b58:    f7fdff28    ..(.    BL       tcp_input ; 0x59ac
        0x00007b5c:    e011        ..      B        0x7b82 ; ip_input + 348
        0x00007b5e:    4639        9F      MOV      r1,r7
        0x00007b60:    4630        0F      MOV      r0,r6
        0x00007b62:    f7fffc73    ..s.    BL       icmp_input ; 0x744c
        0x00007b66:    e00c        ..      B        0x7b82 ; ip_input + 348
        0x00007b68:    6820         h      LDR      r0,[r4,#0]
        0x00007b6a:    f3c01003    ....    UBFX     r0,r0,#4,#4
        0x00007b6e:    280e        .(      CMP      r0,#0xe
        0x00007b70:    d004        ..      BEQ      0x7b7c ; ip_input + 342
        0x00007b72:    2102        .!      MOVS     r1,#2
        0x00007b74:    4630        0F      MOV      r0,r6
        0x00007b76:    6075        u`      STR      r5,[r6,#4]
        0x00007b78:    f7fffd49    ..I.    BL       icmp_dest_unreach ; 0x760e
        0x00007b7c:    4630        0F      MOV      r0,r6
        0x00007b7e:    f7fbfb05    ....    BL       pbuf_free ; 0x318c
        0x00007b82:    2000        .       MOVS     r0,#0
        0x00007b84:    4951        QI      LDR      r1,[pc,#324] ; [0x7ccc] = 0x200000d8
        0x00007b86:    f8c80004    ....    STR      r0,[r8,#4]
        0x00007b8a:    1f09        ..      SUBS     r1,r1,#4
        0x00007b8c:    f8c80008    ....    STR      r0,[r8,#8]
        0x00007b90:    6008        .`      STR      r0,[r1,#0]
        0x00007b92:    f8cb0000    ....    STR      r0,[r11,#0]
        0x00007b96:    e7d5        ..      B        0x7b44 ; ip_input + 286
    ip_output_if
        0x00007b98:    e92d4ff8    -..O    PUSH     {r3-r11,lr}
        0x00007b9c:    4605        .F      MOV      r5,r0
        0x00007b9e:    e9dda90b    ....    LDRD     r10,r9,[sp,#0x2c]
        0x00007ba2:    89c0        ..      LDRH     r0,[r0,#0xe]
        0x00007ba4:    f8ddb028    ..(.    LDR      r11,[sp,#0x28]
        0x00007ba8:    4688        .F      MOV      r8,r1
        0x00007baa:    4616        .F      MOV      r6,r2
        0x00007bac:    461f        .F      MOV      r7,r3
        0x00007bae:    2801        .(      CMP      r0,#1
        0x00007bb0:    d006        ..      BEQ      0x7bc0 ; ip_output_if + 40
        0x00007bb2:    a347        G.      ADR      r3,{pc}+0x11e ; 0x7cd0
        0x00007bb4:    f44f7227    O.'r    MOV      r2,#0x29c
        0x00007bb8:    a152        R.      ADR      r1,{pc}+0x14c ; 0x7d04
        0x00007bba:    a055        U.      ADR      r0,{pc}+0x156 ; 0x7d10
        0x00007bbc:    f001fdec    ....    BL       __0printf$5 ; 0x9798
        0x00007bc0:    b3f6        ..      CBZ      r6,0x7c40 ; ip_output_if + 168
        0x00007bc2:    2114        .!      MOVS     r1,#0x14
        0x00007bc4:    4628        (F      MOV      r0,r5
        0x00007bc6:    f7fbfc71    ..q.    BL       pbuf_header ; 0x34ac
        0x00007bca:    b118        ..      CBZ      r0,0x7bd4 ; ip_output_if + 60
        0x00007bcc:    f06f0001    o...    MVN      r0,#1
        0x00007bd0:    e8bd8ff8    ....    POP      {r3-r11,pc}
        0x00007bd4:    8968        h.      LDRH     r0,[r5,#0xa]
        0x00007bd6:    686c        lh      LDR      r4,[r5,#4]
        0x00007bd8:    2814        .(      CMP      r0,#0x14
        0x00007bda:    d206        ..      BCS      0x7bea ; ip_output_if + 82
        0x00007bdc:    a33c        <.      ADR      r3,{pc}+0xf4 ; 0x7cd0
        0x00007bde:    f24022c9    @.."    MOV      r2,#0x2c9
        0x00007be2:    a155        U.      ADR      r1,{pc}+0x156 ; 0x7d38
        0x00007be4:    a04a        J.      ADR      r0,{pc}+0x12c ; 0x7d10
        0x00007be6:    f001fdd7    ....    BL       __0printf$5 ; 0x9798
        0x00007bea:    7227        'r      STRB     r7,[r4,#8]
        0x00007bec:    f884a009    ....    STRB     r10,[r4,#9]
        0x00007bf0:    6830        0h      LDR      r0,[r6,#0]
        0x00007bf2:    ea47210a    G..!    ORR      r1,r7,r10,LSL #8
        0x00007bf6:    6120         a      STR      r0,[r4,#0x10]
        0x00007bf8:    fa11f180    ....    UXTAH    r1,r1,r0
        0x00007bfc:    eb014010    ...@    ADD      r0,r1,r0,LSR #16
        0x00007c00:    2145        E!      MOVS     r1,#0x45
        0x00007c02:    7021        !p      STRB     r1,[r4,#0]
        0x00007c04:    ea41210b    A..!    ORR      r1,r1,r11,LSL #8
        0x00007c08:    f884b001    ....    STRB     r11,[r4,#1]
        0x00007c0c:    180f        ..      ADDS     r7,r1,r0
        0x00007c0e:    8928        (.      LDRH     r0,[r5,#8]
        0x00007c10:    f7f9f8a0    ....    BL       lwip_htons ; 0xd54
        0x00007c14:    eb000a07    ....    ADD      r10,r0,r7
        0x00007c18:    4f2c        ,O      LDR      r7,[pc,#176] ; [0x7ccc] = 0x200000d8
        0x00007c1a:    8060        `.      STRH     r0,[r4,#2]
        0x00007c1c:    2000        .       MOVS     r0,#0
        0x00007c1e:    3f10        .?      SUBS     r7,r7,#0x10
        0x00007c20:    80e0        ..      STRH     r0,[r4,#6]
        0x00007c22:    8838        8.      LDRH     r0,[r7,#0]
        0x00007c24:    f7f9f896    ....    BL       lwip_htons ; 0xd54
        0x00007c28:    80a0        ..      STRH     r0,[r4,#4]
        0x00007c2a:    eb00010a    ....    ADD      r1,r0,r10
        0x00007c2e:    8838        8.      LDRH     r0,[r7,#0]
        0x00007c30:    1c40        @.      ADDS     r0,r0,#1
        0x00007c32:    8038        8.      STRH     r0,[r7,#0]
        0x00007c34:    f1b80f00    ....    CMP      r8,#0
        0x00007c38:    d004        ..      BEQ      0x7c44 ; ip_output_if + 172
        0x00007c3a:    f8d80000    ....    LDR      r0,[r8,#0]
        0x00007c3e:    e000        ..      B        0x7c42 ; ip_output_if + 170
        0x00007c40:    e00f        ..      B        0x7c62 ; ip_output_if + 202
        0x00007c42:    b908        ..      CBNZ     r0,0x7c48 ; ip_output_if + 176
        0x00007c44:    f8d90004    ....    LDR      r0,[r9,#4]
        0x00007c48:    60e0        .`      STR      r0,[r4,#0xc]
        0x00007c4a:    fa11f180    ....    UXTAH    r1,r1,r0
        0x00007c4e:    eb014010    ...@    ADD      r0,r1,r0,LSR #16
        0x00007c52:    0c01        ..      LSRS     r1,r0,#16
        0x00007c54:    fa11f080    ....    UXTAH    r0,r1,r0
        0x00007c58:    eb004010    ...@    ADD      r0,r0,r0,LSR #16
        0x00007c5c:    43c0        .C      MVNS     r0,r0
        0x00007c5e:    8160        `.      STRH     r0,[r4,#0xa]
        0x00007c60:    e003        ..      B        0x7c6a ; ip_output_if + 210
        0x00007c62:    6868        hh      LDR      r0,[r5,#4]
        0x00007c64:    466e        nF      MOV      r6,sp
        0x00007c66:    6900        .i      LDR      r0,[r0,#0x10]
        0x00007c68:    9000        ..      STR      r0,[sp,#0]
        0x00007c6a:    f8d93014    ...0    LDR      r3,[r9,#0x14]
        0x00007c6e:    4632        2F      MOV      r2,r6
        0x00007c70:    4629        )F      MOV      r1,r5
        0x00007c72:    4648        HF      MOV      r0,r9
        0x00007c74:    4798        .G      BLX      r3
        0x00007c76:    e7ab        ..      B        0x7bd0 ; ip_output_if + 56
    ip_output
        0x00007c78:    e92d43fe    -..C    PUSH     {r1-r9,lr}
        0x00007c7c:    4604        .F      MOV      r4,r0
        0x00007c7e:    e9dd890a    ....    LDRD     r8,r9,[sp,#0x28]
        0x00007c82:    89c0        ..      LDRH     r0,[r0,#0xe]
        0x00007c84:    460e        .F      MOV      r6,r1
        0x00007c86:    4615        .F      MOV      r5,r2
        0x00007c88:    461f        .F      MOV      r7,r3
        0x00007c8a:    2801        .(      CMP      r0,#1
        0x00007c8c:    d006        ..      BEQ      0x7c9c ; ip_output + 36
        0x00007c8e:    a310        ..      ADR      r3,{pc}+0x42 ; 0x7cd0
        0x00007c90:    f2403239    @.92    MOV      r2,#0x339
        0x00007c94:    a11b        ..      ADR      r1,{pc}+0x70 ; 0x7d04
        0x00007c96:    a01e        ..      ADR      r0,{pc}+0x7a ; 0x7d10
        0x00007c98:    f001fd7e    ..~.    BL       __0printf$5 ; 0x9798
        0x00007c9c:    4628        (F      MOV      r0,r5
        0x00007c9e:    f7fffea7    ....    BL       ip_route ; 0x79f0
        0x00007ca2:    b158        X.      CBZ      r0,0x7cbc ; ip_output + 68
        0x00007ca4:    f8cd8000    ....    STR      r8,[sp,#0]
        0x00007ca8:    e9cd9001    ....    STRD     r9,r0,[sp,#4]
        0x00007cac:    463b        ;F      MOV      r3,r7
        0x00007cae:    462a        *F      MOV      r2,r5
        0x00007cb0:    4631        1F      MOV      r1,r6
        0x00007cb2:    4620         F      MOV      r0,r4
        0x00007cb4:    f7ffff70    ..p.    BL       ip_output_if ; 0x7b98
        0x00007cb8:    e8bd83fe    ....    POP      {r1-r9,pc}
        0x00007cbc:    f06f0003    o...    MVN      r0,#3
        0x00007cc0:    e7fa        ..      B        0x7cb8 ; ip_output + 64
    $d
        0x00007cc2:    0000        ..      DCW    0
        0x00007cc4:    20000078    x..     DCD    536871032
        0x00007cc8:    2000007c    |..     DCD    536871036
        0x00007ccc:    200000d8    ...     DCD    536871128
        0x00007cd0:    2e5c2e2e    ..\.    DCD    777793070
        0x00007cd4:    2e2e5c2e    .\..    DCD    774790190
        0x00007cd8:    6968545c    \Thi    DCD    1768445020
        0x00007cdc:    61506472    rdPa    DCD    1632658546
        0x00007ce0:    5c797472    rty\    DCD    1551463538
        0x00007ce4:    7069776c    lwip    DCD    1885960044
        0x00007ce8:    342e312d    -1.4    DCD    875442477
        0x00007cec:    735c312e    .1\s    DCD    1935421742
        0x00007cf0:    635c6372    rc\c    DCD    1666999154
        0x00007cf4:    5c65726f    ore\    DCD    1550152303
        0x00007cf8:    34767069    ipv4    DCD    880177257
        0x00007cfc:    2e70695c    \ip.    DCD    779118940
        0x00007d00:    00000063    c...    DCD    99
        0x00007d04:    723e2d70    p->r    DCD    1916677488
        0x00007d08:    3d206665    ef =    DCD    1025533541
        0x00007d0c:    0031203d    = 1.    DCD    3219517
        0x00007d10:    65737341    Asse    DCD    1702064961
        0x00007d14:    6f697472    rtio    DCD    1869182066
        0x00007d18:    2522206e    n "%    DCD    622993518
        0x00007d1c:    66202273    s" f    DCD    1713382003
        0x00007d20:    656c6961    aile    DCD    1701603681
        0x00007d24:    74612064    d at    DCD    1952522340
        0x00007d28:    6e696c20     lin    DCD    1852402720
        0x00007d2c:    64252065    e %d    DCD    1680154725
        0x00007d30:    206e6920     in     DCD    544106784
        0x00007d34:    000a7325    %s..    DCD    684837
        0x00007d38:    63656863    chec    DCD    1667590243
        0x00007d3c:    6874206b    k th    DCD    1752440939
        0x00007d40:    66207461    at f    DCD    1713402977
        0x00007d44:    74737269    irst    DCD    1953722985
        0x00007d48:    75627020     pbu    DCD    1969385504
        0x00007d4c:    61632066    f ca    DCD    1633886310
        0x00007d50:    6f68206e    n ho    DCD    1869095022
        0x00007d54:    7320646c    ld s    DCD    1931502700
        0x00007d58:    63757274    truc    DCD    1668641396
        0x00007d5c:    70692074    t ip    DCD    1885937780
        0x00007d60:    7264685f    _hdr    DCD    1919182943
        0x00007d64:    00000000    ....    DCD    0
    $t
    .text
    ip4_addr_isbroadcast
        0x00007d68:    1c42        B.      ADDS     r2,r0,#1
        0x00007d6a:    d012        ..      BEQ      0x7d92 ; ip4_addr_isbroadcast + 42
        0x00007d6c:    b188        ..      CBZ      r0,0x7d92 ; ip4_addr_isbroadcast + 42
        0x00007d6e:    f891202d    ..-     LDRB     r2,[r1,#0x2d]
        0x00007d72:    0792        ..      LSLS     r2,r2,#30
        0x00007d74:    d50b        ..      BPL      0x7d8e ; ip4_addr_isbroadcast + 38
        0x00007d76:    684a        Jh      LDR      r2,[r1,#4]
        0x00007d78:    4282        .B      CMP      r2,r0
        0x00007d7a:    d008        ..      BEQ      0x7d8e ; ip4_addr_isbroadcast + 38
        0x00007d7c:    6889        .h      LDR      r1,[r1,#8]
        0x00007d7e:    ea000301    ....    AND      r3,r0,r1
        0x00007d82:    400a        .@      ANDS     r2,r2,r1
        0x00007d84:    4293        .B      CMP      r3,r2
        0x00007d86:    d102        ..      BNE      0x7d8e ; ip4_addr_isbroadcast + 38
        0x00007d88:    4301        .C      ORRS     r1,r1,r0
        0x00007d8a:    1c49        I.      ADDS     r1,r1,#1
        0x00007d8c:    d001        ..      BEQ      0x7d92 ; ip4_addr_isbroadcast + 42
        0x00007d8e:    2000        .       MOVS     r0,#0
        0x00007d90:    4770        pG      BX       lr
        0x00007d92:    2001        .       MOVS     r0,#1
        0x00007d94:    4770        pG      BX       lr
    ip4_addr_netmask_valid
        0x00007d96:    b510        ..      PUSH     {r4,lr}
        0x00007d98:    f7f8ffe0    ....    BL       lwip_htonl ; 0xd5c
        0x00007d9c:    f04f4100    O..A    MOV      r1,#0x80000000
        0x00007da0:    4208        .B      TST      r0,r1
        0x00007da2:    d007        ..      BEQ      0x7db4 ; ip4_addr_netmask_valid + 30
        0x00007da4:    0849        I.      LSRS     r1,r1,#1
        0x00007da6:    d1fb        ..      BNE      0x7da0 ; ip4_addr_netmask_valid + 10
        0x00007da8:    e006        ..      B        0x7db8 ; ip4_addr_netmask_valid + 34
        0x00007daa:    4208        .B      TST      r0,r1
        0x00007dac:    d001        ..      BEQ      0x7db2 ; ip4_addr_netmask_valid + 28
        0x00007dae:    2000        .       MOVS     r0,#0
        0x00007db0:    bd10        ..      POP      {r4,pc}
        0x00007db2:    0849        I.      LSRS     r1,r1,#1
        0x00007db4:    2900        .)      CMP      r1,#0
        0x00007db6:    d1f8        ..      BNE      0x7daa ; ip4_addr_netmask_valid + 20
        0x00007db8:    2001        .       MOVS     r0,#1
        0x00007dba:    bd10        ..      POP      {r4,pc}
    ipaddr_aton
        0x00007dbc:    e92d41ff    -..A    PUSH     {r0-r8,lr}
        0x00007dc0:    4602        .F      MOV      r2,r0
        0x00007dc2:    4688        .F      MOV      r8,r1
        0x00007dc4:    466d        mF      MOV      r5,sp
        0x00007dc6:    e042        B.      B        0x7e4e ; ipaddr_aton + 146
        0x00007dc8:    2400        .$      MOVS     r4,#0
        0x00007dca:    230a        .#      MOVS     r3,#0xa
        0x00007dcc:    2830        0(      CMP      r0,#0x30
        0x00007dce:    d106        ..      BNE      0x7dde ; ipaddr_aton + 34
        0x00007dd0:    f8120f01    ....    LDRB     r0,[r2,#1]!
        0x00007dd4:    2878        x(      CMP      r0,#0x78
        0x00007dd6:    d00a        ..      BEQ      0x7dee ; ipaddr_aton + 50
        0x00007dd8:    2858        X(      CMP      r0,#0x58
        0x00007dda:    d008        ..      BEQ      0x7dee ; ipaddr_aton + 50
        0x00007ddc:    2308        .#      MOVS     r3,#8
        0x00007dde:    2761        a'      MOVS     r7,#0x61
        0x00007de0:    f1a00130    ..0.    SUB      r1,r0,#0x30
        0x00007de4:    2909        .)      CMP      r1,#9
        0x00007de6:    d806        ..      BHI      0x7df6 ; ipaddr_aton + 58
        0x00007de8:    fb041403    ....    MLA      r4,r4,r3,r1
        0x00007dec:    e017        ..      B        0x7e1e ; ipaddr_aton + 98
        0x00007dee:    2310        .#      MOVS     r3,#0x10
        0x00007df0:    f8120f01    ....    LDRB     r0,[r2,#1]!
        0x00007df4:    e7f3        ..      B        0x7dde ; ipaddr_aton + 34
        0x00007df6:    2b10        .+      CMP      r3,#0x10
        0x00007df8:    d114        ..      BNE      0x7e24 ; ipaddr_aton + 104
        0x00007dfa:    f1a00c61    ..a.    SUB      r12,r0,#0x61
        0x00007dfe:    f1bc0f05    ....    CMP      r12,#5
        0x00007e02:    d903        ..      BLS      0x7e0c ; ipaddr_aton + 80
        0x00007e04:    f1a00641    ..A.    SUB      r6,r0,#0x41
        0x00007e08:    2e05        ..      CMP      r6,#5
        0x00007e0a:    d80b        ..      BHI      0x7e24 ; ipaddr_aton + 104
        0x00007e0c:    463e        >F      MOV      r6,r7
        0x00007e0e:    f1bc0f19    ....    CMP      r12,#0x19
        0x00007e12:    d900        ..      BLS      0x7e16 ; ipaddr_aton + 90
        0x00007e14:    2641        A&      MOVS     r6,#0x41
        0x00007e16:    1b80        ..      SUBS     r0,r0,r6
        0x00007e18:    300a        .0      ADDS     r0,r0,#0xa
        0x00007e1a:    ea401404    @...    ORR      r4,r0,r4,LSL #4
        0x00007e1e:    f8120f01    ....    LDRB     r0,[r2,#1]!
        0x00007e22:    e7dd        ..      B        0x7de0 ; ipaddr_aton + 36
        0x00007e24:    282e        .(      CMP      r0,#0x2e
        0x00007e26:    d00d        ..      BEQ      0x7e44 ; ipaddr_aton + 136
        0x00007e28:    b1b8        ..      CBZ      r0,0x7e5a ; ipaddr_aton + 158
        0x00007e2a:    2820         (      CMP      r0,#0x20
        0x00007e2c:    d015        ..      BEQ      0x7e5a ; ipaddr_aton + 158
        0x00007e2e:    280c        .(      CMP      r0,#0xc
        0x00007e30:    d013        ..      BEQ      0x7e5a ; ipaddr_aton + 158
        0x00007e32:    280a        .(      CMP      r0,#0xa
        0x00007e34:    d011        ..      BEQ      0x7e5a ; ipaddr_aton + 158
        0x00007e36:    280d        .(      CMP      r0,#0xd
        0x00007e38:    d00f        ..      BEQ      0x7e5a ; ipaddr_aton + 158
        0x00007e3a:    2809        .(      CMP      r0,#9
        0x00007e3c:    d00d        ..      BEQ      0x7e5a ; ipaddr_aton + 158
        0x00007e3e:    280b        .(      CMP      r0,#0xb
        0x00007e40:    d129        ).      BNE      0x7e96 ; ipaddr_aton + 218
        0x00007e42:    e00a        ..      B        0x7e5a ; ipaddr_aton + 158
        0x00007e44:    a803        ..      ADD      r0,sp,#0xc
        0x00007e46:    4285        .B      CMP      r5,r0
        0x00007e48:    d225        %.      BCS      0x7e96 ; ipaddr_aton + 218
        0x00007e4a:    c510        ..      STM      r5!,{r4}
        0x00007e4c:    1c52        R.      ADDS     r2,r2,#1
        0x00007e4e:    7810        .x      LDRB     r0,[r2,#0]
        0x00007e50:    f1a00130    ..0.    SUB      r1,r0,#0x30
        0x00007e54:    290a        .)      CMP      r1,#0xa
        0x00007e56:    d21e        ..      BCS      0x7e96 ; ipaddr_aton + 218
        0x00007e58:    e7b6        ..      B        0x7dc8 ; ipaddr_aton + 12
        0x00007e5a:    4668        hF      MOV      r0,sp
        0x00007e5c:    1a28        (.      SUBS     r0,r5,r0
        0x00007e5e:    2101        .!      MOVS     r1,#1
        0x00007e60:    eb0100a0    ....    ADD      r0,r1,r0,ASR #2
        0x00007e64:    2805        .(      CMP      r0,#5
        0x00007e66:    d224        $.      BCS      0x7eb2 ; ipaddr_aton + 246
        0x00007e68:    e8dff000    ....    TBB      [pc,r0]
    $d
        0x00007e6c:    0a032915    .)..    DCD    167979285
        0x00007e70:    0013        ..      DCW    19
    $t
        0x00007e72:    f1b47f80    ....    CMP      r4,#0x1000000
        0x00007e76:    d20e        ..      BCS      0x7e96 ; ipaddr_aton + 218
        0x00007e78:    9800        ..      LDR      r0,[sp,#0]
        0x00007e7a:    ea446400    D..d    ORR      r4,r4,r0,LSL #24
        0x00007e7e:    e01e        ..      B        0x7ebe ; ipaddr_aton + 258
        0x00007e80:    f5b43f80    ...?    CMP      r4,#0x10000
        0x00007e84:    d207        ..      BCS      0x7e96 ; ipaddr_aton + 218
        0x00007e86:    9800        ..      LDR      r0,[sp,#0]
        0x00007e88:    9901        ..      LDR      r1,[sp,#4]
        0x00007e8a:    0600        ..      LSLS     r0,r0,#24
        0x00007e8c:    ea404001    @..@    ORR      r0,r0,r1,LSL #16
        0x00007e90:    e00d        ..      B        0x7eae ; ipaddr_aton + 242
        0x00007e92:    2cff        .,      CMP      r4,#0xff
        0x00007e94:    d903        ..      BLS      0x7e9e ; ipaddr_aton + 226
        0x00007e96:    2000        .       MOVS     r0,#0
        0x00007e98:    b004        ..      ADD      sp,sp,#0x10
        0x00007e9a:    e8bd81f0    ....    POP      {r4-r8,pc}
        0x00007e9e:    9800        ..      LDR      r0,[sp,#0]
        0x00007ea0:    9901        ..      LDR      r1,[sp,#4]
        0x00007ea2:    0600        ..      LSLS     r0,r0,#24
        0x00007ea4:    ea404001    @..@    ORR      r0,r0,r1,LSL #16
        0x00007ea8:    9902        ..      LDR      r1,[sp,#8]
        0x00007eaa:    ea402001    @..     ORR      r0,r0,r1,LSL #8
        0x00007eae:    4304        .C      ORRS     r4,r4,r0
        0x00007eb0:    e005        ..      B        0x7ebe ; ipaddr_aton + 258
        0x00007eb2:    a330        0.      ADR      r3,{pc}+0xc2 ; 0x7f74
        0x00007eb4:    22f3        ."      MOVS     r2,#0xf3
        0x00007eb6:    a13d        =.      ADR      r1,{pc}+0xf6 ; 0x7fac
        0x00007eb8:    a03f        ?.      ADR      r0,{pc}+0x100 ; 0x7fb8
        0x00007eba:    f001fc6d    ..m.    BL       __0printf$5 ; 0x9798
        0x00007ebe:    f1b80f00    ....    CMP      r8,#0
        0x00007ec2:    d004        ..      BEQ      0x7ece ; ipaddr_aton + 274
        0x00007ec4:    4620         F      MOV      r0,r4
        0x00007ec6:    f7f8ff49    ..I.    BL       lwip_htonl ; 0xd5c
        0x00007eca:    f8c80000    ....    STR      r0,[r8,#0]
        0x00007ece:    2001        .       MOVS     r0,#1
        0x00007ed0:    e7e2        ..      B        0x7e98 ; ipaddr_aton + 220
    ipaddr_addr
        0x00007ed2:    b508        ..      PUSH     {r3,lr}
        0x00007ed4:    4669        iF      MOV      r1,sp
        0x00007ed6:    f7ffff71    ..q.    BL       ipaddr_aton ; 0x7dbc
        0x00007eda:    b108        ..      CBZ      r0,0x7ee0 ; ipaddr_addr + 14
        0x00007edc:    9800        ..      LDR      r0,[sp,#0]
        0x00007ede:    bd08        ..      POP      {r3,pc}
        0x00007ee0:    f04f30ff    O..0    MOV      r0,#0xffffffff
        0x00007ee4:    bd08        ..      POP      {r3,pc}
    ipaddr_ntoa_r
        0x00007ee6:    e92d4ffc    -..O    PUSH     {r2-r11,lr}
        0x00007eea:    4603        .F      MOV      r3,r0
        0x00007eec:    4608        .F      MOV      r0,r1
        0x00007eee:    2500        .%      MOVS     r5,#0
        0x00007ef0:    6819        .h      LDR      r1,[r3,#0]
        0x00007ef2:    4604        .F      MOV      r4,r0
        0x00007ef4:    466e        nF      MOV      r6,sp
        0x00007ef6:    462f        /F      MOV      r7,r5
        0x00007ef8:    f04f0b0a    O...    MOV      r11,#0xa
        0x00007efc:    f10d0804    ....    ADD      r8,sp,#4
        0x00007f00:    9100        ..      STR      r1,[sp,#0]
        0x00007f02:    2300        .#      MOVS     r3,#0
        0x00007f04:    4659        YF      MOV      r1,r11
        0x00007f06:    f896a000    ....    LDRB     r10,[r6,#0]
        0x00007f0a:    fbbafcf1    ....    UDIV     r12,r10,r1
        0x00007f0e:    fb01a91c    ....    MLS      r9,r1,r12,r10
        0x00007f12:    f886c000    ....    STRB     r12,[r6,#0]
        0x00007f16:    f1090930    ..0.    ADD      r9,r9,#0x30
        0x00007f1a:    f8089003    ....    STRB     r9,[r8,r3]
        0x00007f1e:    1c5b        [.      ADDS     r3,r3,#1
        0x00007f20:    b2db        ..      UXTB     r3,r3
        0x00007f22:    f1bc0f00    ....    CMP      r12,#0
        0x00007f26:    d1ee        ..      BNE      0x7f06 ; ipaddr_ntoa_r + 32
        0x00007f28:    e007        ..      B        0x7f3a ; ipaddr_ntoa_r + 84
        0x00007f2a:    46ac        .F      MOV      r12,r5
        0x00007f2c:    1c6d        m.      ADDS     r5,r5,#1
        0x00007f2e:    4594        .E      CMP      r12,r2
        0x00007f30:    da0d        ..      BGE      0x7f4e ; ipaddr_ntoa_r + 104
        0x00007f32:    f818c003    ....    LDRB     r12,[r8,r3]
        0x00007f36:    f804cb01    ....    STRB     r12,[r4],#1
        0x00007f3a:    ea5f0c03    _...    MOVS     r12,r3
        0x00007f3e:    f1a30301    ....    SUB      r3,r3,#1
        0x00007f42:    b2db        ..      UXTB     r3,r3
        0x00007f44:    d1f1        ..      BNE      0x7f2a ; ipaddr_ntoa_r + 68
        0x00007f46:    4629        )F      MOV      r1,r5
        0x00007f48:    1c6d        m.      ADDS     r5,r5,#1
        0x00007f4a:    4291        .B      CMP      r1,r2
        0x00007f4c:    db02        ..      BLT      0x7f54 ; ipaddr_ntoa_r + 110
        0x00007f4e:    2000        .       MOVS     r0,#0
        0x00007f50:    e8bd8ffc    ....    POP      {r2-r11,pc}
        0x00007f54:    212e        .!      MOVS     r1,#0x2e
        0x00007f56:    1c7f        ..      ADDS     r7,r7,#1
        0x00007f58:    1c76        v.      ADDS     r6,r6,#1
        0x00007f5a:    b2ff        ..      UXTB     r7,r7
        0x00007f5c:    f8041b01    ....    STRB     r1,[r4],#1
        0x00007f60:    2f04        ./      CMP      r7,#4
        0x00007f62:    d3ce        ..      BCC      0x7f02 ; ipaddr_ntoa_r + 28
        0x00007f64:    2100        .!      MOVS     r1,#0
        0x00007f66:    f8041c01    ....    STRB     r1,[r4,#-1]
        0x00007f6a:    e7f1        ..      B        0x7f50 ; ipaddr_ntoa_r + 106
    ipaddr_ntoa
        0x00007f6c:    2210        ."      MOVS     r2,#0x10
        0x00007f6e:    491c        .I      LDR      r1,[pc,#112] ; [0x7fe0] = 0x200071ec
        0x00007f70:    e7b9        ..      B        ipaddr_ntoa_r ; 0x7ee6
    $d
        0x00007f72:    0000        ..      DCW    0
        0x00007f74:    2e5c2e2e    ..\.    DCD    777793070
        0x00007f78:    2e2e5c2e    .\..    DCD    774790190
        0x00007f7c:    6968545c    \Thi    DCD    1768445020
        0x00007f80:    61506472    rdPa    DCD    1632658546
        0x00007f84:    5c797472    rty\    DCD    1551463538
        0x00007f88:    7069776c    lwip    DCD    1885960044
        0x00007f8c:    342e312d    -1.4    DCD    875442477
        0x00007f90:    735c312e    .1\s    DCD    1935421742
        0x00007f94:    635c6372    rc\c    DCD    1666999154
        0x00007f98:    5c65726f    ore\    DCD    1550152303
        0x00007f9c:    34767069    ipv4    DCD    880177257
        0x00007fa0:    5f70695c    \ip_    DCD    1601202524
        0x00007fa4:    72646461    addr    DCD    1919181921
        0x00007fa8:    0000632e    .c..    DCD    25390
        0x00007fac:    61686e75    unha    DCD    1634233973
        0x00007fb0:    656c646e    ndle    DCD    1701602414
        0x00007fb4:    00000064    d...    DCD    100
        0x00007fb8:    65737341    Asse    DCD    1702064961
        0x00007fbc:    6f697472    rtio    DCD    1869182066
        0x00007fc0:    2522206e    n "%    DCD    622993518
        0x00007fc4:    66202273    s" f    DCD    1713382003
        0x00007fc8:    656c6961    aile    DCD    1701603681
        0x00007fcc:    74612064    d at    DCD    1952522340
        0x00007fd0:    6e696c20     lin    DCD    1852402720
        0x00007fd4:    64252065    e %d    DCD    1680154725
        0x00007fd8:    206e6920     in     DCD    544106784
        0x00007fdc:    000a7325    %s..    DCD    684837
        0x00007fe0:    200071ec    .q.     DCD    536900076
    $t
    .text
    ip_reass_dequeue_datagram
        0x00007fe4:    b570        p.      PUSH     {r4-r6,lr}
        0x00007fe6:    4604        .F      MOV      r4,r0
        0x00007fe8:    48ee        .H      LDR      r0,[pc,#952] ; [0x83a4] = 0x200000dc
        0x00007fea:    460d        .F      MOV      r5,r1
        0x00007fec:    6841        Ah      LDR      r1,[r0,#4]
        0x00007fee:    42a1        .B      CMP      r1,r4
        0x00007ff0:    d102        ..      BNE      0x7ff8 ; ip_reass_dequeue_datagram + 20
        0x00007ff2:    6821        !h      LDR      r1,[r4,#0]
        0x00007ff4:    6041        A`      STR      r1,[r0,#4]
        0x00007ff6:    e009        ..      B        0x800c ; ip_reass_dequeue_datagram + 40
        0x00007ff8:    b935        5.      CBNZ     r5,0x8008 ; ip_reass_dequeue_datagram + 36
        0x00007ffa:    a3eb        ..      ADR      r3,{pc}+0x3ae ; 0x83a8
        0x00007ffc:    f2401239    @.9.    MOV      r2,#0x139
        0x00008000:    a1f7        ..      ADR      r1,{pc}+0x3e0 ; 0x83e0
        0x00008002:    a0fe        ..      ADR      r0,{pc}+0x3fa ; 0x83fc
        0x00008004:    f001fbc8    ....    BL       __0printf$5 ; 0x9798
        0x00008008:    6820         h      LDR      r0,[r4,#0]
        0x0000800a:    6028        (`      STR      r0,[r5,#0]
        0x0000800c:    4621        !F      MOV      r1,r4
        0x0000800e:    e8bd4070    ..p@    POP      {r4-r6,lr}
        0x00008012:    2004        .       MOVS     r0,#4
        0x00008014:    f7fabf04    ....    B        memp_free ; 0x2e20
    ip_reass_free_complete_datagram
        0x00008018:    e92d47f0    -..G    PUSH     {r4-r10,lr}
        0x0000801c:    2500        .%      MOVS     r5,#0
        0x0000801e:    4606        .F      MOV      r6,r0
        0x00008020:    460f        .F      MOV      r7,r1
        0x00008022:    4281        .B      CMP      r1,r0
        0x00008024:    d105        ..      BNE      0x8032 ; ip_reass_free_complete_datagram + 26
        0x00008026:    a3e0        ..      ADR      r3,{pc}+0x382 ; 0x83a8
        0x00008028:    22a5        ."      MOVS     r2,#0xa5
        0x0000802a:    a1fe        ..      ADR      r1,{pc}+0x3fa ; 0x8424
        0x0000802c:    a0f3        ..      ADR      r0,{pc}+0x3d0 ; 0x83fc
        0x0000802e:    f001fbb3    ....    BL       __0printf$5 ; 0x9798
        0x00008032:    b147        G.      CBZ      r7,0x8046 ; ip_reass_free_complete_datagram + 46
        0x00008034:    6838        8h      LDR      r0,[r7,#0]
        0x00008036:    42b0        .B      CMP      r0,r6
        0x00008038:    d005        ..      BEQ      0x8046 ; ip_reass_free_complete_datagram + 46
        0x0000803a:    a3db        ..      ADR      r3,{pc}+0x36e ; 0x83a8
        0x0000803c:    22a7        ."      MOVS     r2,#0xa7
        0x0000803e:    a1fc        ..      ADR      r1,{pc}+0x3f2 ; 0x8430
        0x00008040:    a0ee        ..      ADR      r0,{pc}+0x3bc ; 0x83fc
        0x00008042:    f001fba9    ....    BL       __0printf$5 ; 0x9798
        0x00008046:    6874        th      LDR      r4,[r6,#4]
        0x00008048:    f44f3880    O..8    MOV      r8,#0x10000
        0x0000804c:    6860        `h      LDR      r0,[r4,#4]
        0x0000804e:    8881        ..      LDRH     r1,[r0,#4]
        0x00008050:    b9d1        ..      CBNZ     r1,0x8088 ; ip_reass_free_complete_datagram + 112
        0x00008052:    6800        .h      LDR      r0,[r0,#0]
        0x00008054:    6070        p`      STR      r0,[r6,#4]
        0x00008056:    2214        ."      MOVS     r2,#0x14
        0x00008058:    f1060108    ....    ADD      r1,r6,#8
        0x0000805c:    6860        `h      LDR      r0,[r4,#4]
        0x0000805e:    f001fb22    ..".    BL       __aeabi_memcpy ; 0x96a6
        0x00008062:    2101        .!      MOVS     r1,#1
        0x00008064:    4620         F      MOV      r0,r4
        0x00008066:    f7fffad5    ....    BL       icmp_time_exceeded ; 0x7614
        0x0000806a:    4620         F      MOV      r0,r4
        0x0000806c:    f7fbfba4    ....    BL       pbuf_clen ; 0x37b8
        0x00008070:    4605        .F      MOV      r5,r0
        0x00008072:    4540        @E      CMP      r0,r8
        0x00008074:    d305        ..      BCC      0x8082 ; ip_reass_free_complete_datagram + 106
        0x00008076:    a3cc        ..      ADR      r3,{pc}+0x332 ; 0x83a8
        0x00008078:    22b6        ."      MOVS     r2,#0xb6
        0x0000807a:    a1f2        ..      ADR      r1,{pc}+0x3ca ; 0x8444
        0x0000807c:    a0df        ..      ADR      r0,{pc}+0x380 ; 0x83fc
        0x0000807e:    f001fb8b    ....    BL       __0printf$5 ; 0x9798
        0x00008082:    4620         F      MOV      r0,r4
        0x00008084:    f7fbf882    ....    BL       pbuf_free ; 0x318c
        0x00008088:    46c1        .F      MOV      r9,r8
        0x0000808a:    6874        th      LDR      r4,[r6,#4]
        0x0000808c:    e012        ..      B        0x80b4 ; ip_reass_free_complete_datagram + 156
        0x0000808e:    6860        `h      LDR      r0,[r4,#4]
        0x00008090:    46a0        .F      MOV      r8,r4
        0x00008092:    6804        .h      LDR      r4,[r0,#0]
        0x00008094:    4640        @F      MOV      r0,r8
        0x00008096:    f7fbfb8f    ....    BL       pbuf_clen ; 0x37b8
        0x0000809a:    4405        .D      ADD      r5,r5,r0
        0x0000809c:    454d        ME      CMP      r5,r9
        0x0000809e:    d305        ..      BCC      0x80ac ; ip_reass_free_complete_datagram + 148
        0x000080a0:    a3c1        ..      ADR      r3,{pc}+0x308 ; 0x83a8
        0x000080a2:    22c6        ."      MOVS     r2,#0xc6
        0x000080a4:    a1e7        ..      ADR      r1,{pc}+0x3a0 ; 0x8444
        0x000080a6:    a0d5        ..      ADR      r0,{pc}+0x356 ; 0x83fc
        0x000080a8:    f001fb76    ..v.    BL       __0printf$5 ; 0x9798
        0x000080ac:    b2ad        ..      UXTH     r5,r5
        0x000080ae:    4640        @F      MOV      r0,r8
        0x000080b0:    f7fbf86c    ..l.    BL       pbuf_free ; 0x318c
        0x000080b4:    2c00        .,      CMP      r4,#0
        0x000080b6:    d1ea        ..      BNE      0x808e ; ip_reass_free_complete_datagram + 118
        0x000080b8:    4639        9F      MOV      r1,r7
        0x000080ba:    4630        0F      MOV      r0,r6
        0x000080bc:    f7ffff92    ....    BL       ip_reass_dequeue_datagram ; 0x7fe4
        0x000080c0:    4cb8        .L      LDR      r4,[pc,#736] ; [0x83a4] = 0x200000dc
        0x000080c2:    8820         .      LDRH     r0,[r4,#0]
        0x000080c4:    42a8        .B      CMP      r0,r5
        0x000080c6:    d205        ..      BCS      0x80d4 ; ip_reass_free_complete_datagram + 188
        0x000080c8:    a3b7        ..      ADR      r3,{pc}+0x2e0 ; 0x83a8
        0x000080ca:    22cc        ."      MOVS     r2,#0xcc
        0x000080cc:    a1e5        ..      ADR      r1,{pc}+0x398 ; 0x8464
        0x000080ce:    a0cb        ..      ADR      r0,{pc}+0x32e ; 0x83fc
        0x000080d0:    f001fb62    ..b.    BL       __0printf$5 ; 0x9798
        0x000080d4:    8820         .      LDRH     r0,[r4,#0]
        0x000080d6:    1b40        @.      SUBS     r0,r0,r5
        0x000080d8:    8020         .      STRH     r0,[r4,#0]
        0x000080da:    4628        (F      MOV      r0,r5
        0x000080dc:    e8bd87f0    ....    POP      {r4-r10,pc}
    ip_reass_tmr
        0x000080e0:    b570        p.      PUSH     {r4-r6,lr}
        0x000080e2:    48b0        .H      LDR      r0,[pc,#704] ; [0x83a4] = 0x200000dc
        0x000080e4:    2500        .%      MOVS     r5,#0
        0x000080e6:    6844        Dh      LDR      r4,[r0,#4]
        0x000080e8:    e00b        ..      B        0x8102 ; ip_reass_tmr + 34
        0x000080ea:    7fe0        ..      LDRB     r0,[r4,#0x1f]
        0x000080ec:    b120         .      CBZ      r0,0x80f8 ; ip_reass_tmr + 24
        0x000080ee:    1e40        @.      SUBS     r0,r0,#1
        0x000080f0:    77e0        .w      STRB     r0,[r4,#0x1f]
        0x000080f2:    4625        %F      MOV      r5,r4
        0x000080f4:    6824        $h      LDR      r4,[r4,#0]
        0x000080f6:    e004        ..      B        0x8102 ; ip_reass_tmr + 34
        0x000080f8:    4620         F      MOV      r0,r4
        0x000080fa:    6824        $h      LDR      r4,[r4,#0]
        0x000080fc:    4629        )F      MOV      r1,r5
        0x000080fe:    f7ffff8b    ....    BL       ip_reass_free_complete_datagram ; 0x8018
        0x00008102:    2c00        .,      CMP      r4,#0
        0x00008104:    d1f1        ..      BNE      0x80ea ; ip_reass_tmr + 10
        0x00008106:    bd70        p.      POP      {r4-r6,pc}
    ip_reass_remove_oldest_datagram
        0x00008108:    e92d47f0    -..G    PUSH     {r4-r10,lr}
        0x0000810c:    f8df9294    ....    LDR      r9,[pc,#660] ; [0x83a4] = 0x200000dc
        0x00008110:    4605        .F      MOV      r5,r0
        0x00008112:    4688        .F      MOV      r8,r1
        0x00008114:    2600        .&      MOVS     r6,#0
        0x00008116:    2200        ."      MOVS     r2,#0
        0x00008118:    4611        .F      MOV      r1,r2
        0x0000811a:    4614        .F      MOV      r4,r2
        0x0000811c:    f8d90004    ....    LDR      r0,[r9,#4]
        0x00008120:    e016        ..      B        0x8150 ; ip_reass_remove_oldest_datagram + 72
        0x00008122:    6943        Ci      LDR      r3,[r0,#0x14]
        0x00008124:    68ef        .h      LDR      r7,[r5,#0xc]
        0x00008126:    42bb        .B      CMP      r3,r7
        0x00008128:    d107        ..      BNE      0x813a ; ip_reass_remove_oldest_datagram + 50
        0x0000812a:    6983        .i      LDR      r3,[r0,#0x18]
        0x0000812c:    692f        /i      LDR      r7,[r5,#0x10]
        0x0000812e:    42bb        .B      CMP      r3,r7
        0x00008130:    d103        ..      BNE      0x813a ; ip_reass_remove_oldest_datagram + 50
        0x00008132:    8983        ..      LDRH     r3,[r0,#0xc]
        0x00008134:    88af        ..      LDRH     r7,[r5,#4]
        0x00008136:    42bb        .B      CMP      r3,r7
        0x00008138:    d006        ..      BEQ      0x8148 ; ip_reass_remove_oldest_datagram + 64
        0x0000813a:    1c64        d.      ADDS     r4,r4,#1
        0x0000813c:    b11a        ..      CBZ      r2,0x8146 ; ip_reass_remove_oldest_datagram + 62
        0x0000813e:    7fc3        ..      LDRB     r3,[r0,#0x1f]
        0x00008140:    7fd7        ..      LDRB     r7,[r2,#0x1f]
        0x00008142:    42bb        .B      CMP      r3,r7
        0x00008144:    d800        ..      BHI      0x8148 ; ip_reass_remove_oldest_datagram + 64
        0x00008146:    4602        .F      MOV      r2,r0
        0x00008148:    6803        .h      LDR      r3,[r0,#0]
        0x0000814a:    b103        ..      CBZ      r3,0x814e ; ip_reass_remove_oldest_datagram + 70
        0x0000814c:    4601        .F      MOV      r1,r0
        0x0000814e:    4618        .F      MOV      r0,r3
        0x00008150:    2800        .(      CMP      r0,#0
        0x00008152:    d1e6        ..      BNE      0x8122 ; ip_reass_remove_oldest_datagram + 26
        0x00008154:    b11a        ..      CBZ      r2,0x815e ; ip_reass_remove_oldest_datagram + 86
        0x00008156:    4610        .F      MOV      r0,r2
        0x00008158:    f7ffff5e    ..^.    BL       ip_reass_free_complete_datagram ; 0x8018
        0x0000815c:    4406        .D      ADD      r6,r6,r0
        0x0000815e:    4546        FE      CMP      r6,r8
        0x00008160:    da01        ..      BGE      0x8166 ; ip_reass_remove_oldest_datagram + 94
        0x00008162:    2c01        .,      CMP      r4,#1
        0x00008164:    dcd7        ..      BGT      0x8116 ; ip_reass_remove_oldest_datagram + 14
        0x00008166:    4630        0F      MOV      r0,r6
        0x00008168:    e7b8        ..      B        0x80dc ; ip_reass_free_complete_datagram + 196
    ip_reass_chain_frag_into_datagram_and_validate
        0x0000816a:    e92d47f0    -..G    PUSH     {r4-r10,lr}
        0x0000816e:    684c        Lh      LDR      r4,[r1,#4]
        0x00008170:    4606        .F      MOV      r6,r0
        0x00008172:    4688        .F      MOV      r8,r1
        0x00008174:    2500        .%      MOVS     r5,#0
        0x00008176:    2701        .'      MOVS     r7,#1
        0x00008178:    8860        `.      LDRH     r0,[r4,#2]
        0x0000817a:    f7f8fded    ....    BL       lwip_ntohs ; 0xd58
        0x0000817e:    7821        !x      LDRB     r1,[r4,#0]
        0x00008180:    f001010f    ....    AND      r1,r1,#0xf
        0x00008184:    4249        IB      RSBS     r1,r1,#0
        0x00008186:    eb000981    ....    ADD      r9,r0,r1,LSL #2
        0x0000818a:    88e0        ..      LDRH     r0,[r4,#6]
        0x0000818c:    f7f8fde4    ....    BL       lwip_ntohs ; 0xd58
        0x00008190:    04c0        ..      LSLS     r0,r0,#19
        0x00008192:    f8d84004    ...@    LDR      r4,[r8,#4]
        0x00008196:    ea4f4c10    O..L    LSR      r12,r0,#16
        0x0000819a:    2000        .       MOVS     r0,#0
        0x0000819c:    6020         `      STR      r0,[r4,#0]
        0x0000819e:    eb0c0009    ....    ADD      r0,r12,r9
        0x000081a2:    f8a4c004    ....    STRH     r12,[r4,#4]
        0x000081a6:    fa1ff980    ....    UXTH     r9,r0
        0x000081aa:    f8a49006    ....    STRH     r9,[r4,#6]
        0x000081ae:    6872        rh      LDR      r2,[r6,#4]
        0x000081b0:    e01d        ..      B        0x81ee ; ip_reass_chain_frag_into_datagram_and_validate + 132
        0x000081b2:    6850        Ph      LDR      r0,[r2,#4]
        0x000081b4:    8883        ..      LDRH     r3,[r0,#4]
        0x000081b6:    459c        .E      CMP      r12,r3
        0x000081b8:    d20e        ..      BCS      0x81d8 ; ip_reass_chain_frag_into_datagram_and_validate + 110
        0x000081ba:    6022        "`      STR      r2,[r4,#0]
        0x000081bc:    b145        E.      CBZ      r5,0x81d0 ; ip_reass_chain_frag_into_datagram_and_validate + 102
        0x000081be:    88eb        ..      LDRH     r3,[r5,#6]
        0x000081c0:    459c        .E      CMP      r12,r3
        0x000081c2:    d372        r.      BCC      0x82aa ; ip_reass_chain_frag_into_datagram_and_validate + 320
        0x000081c4:    8880        ..      LDRH     r0,[r0,#4]
        0x000081c6:    4581        .E      CMP      r9,r0
        0x000081c8:    d86f        o.      BHI      0x82aa ; ip_reass_chain_frag_into_datagram_and_validate + 320
        0x000081ca:    f8c58000    ....    STR      r8,[r5,#0]
        0x000081ce:    e001        ..      B        0x81d4 ; ip_reass_chain_frag_into_datagram_and_validate + 106
        0x000081d0:    f8c68004    ....    STR      r8,[r6,#4]
        0x000081d4:    b16a        j.      CBZ      r2,0x81f2 ; ip_reass_chain_frag_into_datagram_and_validate + 136
        0x000081d6:    e02b        +.      B        0x8230 ; ip_reass_chain_frag_into_datagram_and_validate + 198
        0x000081d8:    d067        g.      BEQ      0x82aa ; ip_reass_chain_frag_into_datagram_and_validate + 320
        0x000081da:    88c1        ..      LDRH     r1,[r0,#6]
        0x000081dc:    458c        .E      CMP      r12,r1
        0x000081de:    d364        d.      BCC      0x82aa ; ip_reass_chain_frag_into_datagram_and_validate + 320
        0x000081e0:    b11d        ..      CBZ      r5,0x81ea ; ip_reass_chain_frag_into_datagram_and_validate + 128
        0x000081e2:    88e9        ..      LDRH     r1,[r5,#6]
        0x000081e4:    4299        .B      CMP      r1,r3
        0x000081e6:    d000        ..      BEQ      0x81ea ; ip_reass_chain_frag_into_datagram_and_validate + 128
        0x000081e8:    2700        .'      MOVS     r7,#0
        0x000081ea:    6802        .h      LDR      r2,[r0,#0]
        0x000081ec:    4605        .F      MOV      r5,r0
        0x000081ee:    2a00        .*      CMP      r2,#0
        0x000081f0:    d1df        ..      BNE      0x81b2 ; ip_reass_chain_frag_into_datagram_and_validate + 72
        0x000081f2:    b195        ..      CBZ      r5,0x821a ; ip_reass_chain_frag_into_datagram_and_validate + 176
        0x000081f4:    88e8        ..      LDRH     r0,[r5,#6]
        0x000081f6:    88a1        ..      LDRH     r1,[r4,#4]
        0x000081f8:    4288        .B      CMP      r0,r1
        0x000081fa:    d906        ..      BLS      0x820a ; ip_reass_chain_frag_into_datagram_and_validate + 160
        0x000081fc:    a36a        j.      ADR      r3,{pc}+0x1ac ; 0x83a8
        0x000081fe:    f2401293    @...    MOV      r2,#0x193
        0x00008202:    a19f        ..      ADR      r1,{pc}+0x27e ; 0x8480
        0x00008204:    a07d        }.      ADR      r0,{pc}+0x1f8 ; 0x83fc
        0x00008206:    f001fac7    ....    BL       __0printf$5 ; 0x9798
        0x0000820a:    f8c58000    ....    STR      r8,[r5,#0]
        0x0000820e:    88e8        ..      LDRH     r0,[r5,#6]
        0x00008210:    88a1        ..      LDRH     r1,[r4,#4]
        0x00008212:    4288        .B      CMP      r0,r1
        0x00008214:    d00c        ..      BEQ      0x8230 ; ip_reass_chain_frag_into_datagram_and_validate + 198
        0x00008216:    2700        .'      MOVS     r7,#0
        0x00008218:    e00a        ..      B        0x8230 ; ip_reass_chain_frag_into_datagram_and_validate + 198
        0x0000821a:    6870        ph      LDR      r0,[r6,#4]
        0x0000821c:    b130        0.      CBZ      r0,0x822c ; ip_reass_chain_frag_into_datagram_and_validate + 194
        0x0000821e:    a362        b.      ADR      r3,{pc}+0x18a ; 0x83a8
        0x00008220:    f240129b    @...    MOV      r2,#0x19b
        0x00008224:    a19e        ..      ADR      r1,{pc}+0x27c ; 0x84a0
        0x00008226:    a075        u.      ADR      r0,{pc}+0x1d6 ; 0x83fc
        0x00008228:    f001fab6    ....    BL       __0printf$5 ; 0x9798
        0x0000822c:    f8c68004    ....    STR      r8,[r6,#4]
        0x00008230:    7fb0        ..      LDRB     r0,[r6,#0x1e]
        0x00008232:    07c0        ..      LSLS     r0,r0,#31
        0x00008234:    d037        7.      BEQ      0x82a6 ; ip_reass_chain_frag_into_datagram_and_validate + 316
        0x00008236:    b3af        ..      CBZ      r7,0x82a4 ; ip_reass_chain_frag_into_datagram_and_validate + 314
        0x00008238:    6872        rh      LDR      r2,[r6,#4]
        0x0000823a:    6850        Ph      LDR      r0,[r2,#4]
        0x0000823c:    8880        ..      LDRH     r0,[r0,#4]
        0x0000823e:    b938        8.      CBNZ     r0,0x8250 ; ip_reass_chain_frag_into_datagram_and_validate + 230
        0x00008240:    6820         h      LDR      r0,[r4,#0]
        0x00008242:    4621        !F      MOV      r1,r4
        0x00008244:    b130        0.      CBZ      r0,0x8254 ; ip_reass_chain_frag_into_datagram_and_validate + 234
        0x00008246:    6844        Dh      LDR      r4,[r0,#4]
        0x00008248:    88c8        ..      LDRH     r0,[r1,#6]
        0x0000824a:    88a1        ..      LDRH     r1,[r4,#4]
        0x0000824c:    4288        .B      CMP      r0,r1
        0x0000824e:    d0f7        ..      BEQ      0x8240 ; ip_reass_chain_frag_into_datagram_and_validate + 214
        0x00008250:    2700        .'      MOVS     r7,#0
        0x00008252:    e027        '.      B        0x82a4 ; ip_reass_chain_frag_into_datagram_and_validate + 314
        0x00008254:    b337        7.      CBZ      r7,0x82a4 ; ip_reass_chain_frag_into_datagram_and_validate + 314
        0x00008256:    b932        2.      CBNZ     r2,0x8266 ; ip_reass_chain_frag_into_datagram_and_validate + 252
        0x00008258:    a353        S.      ADR      r3,{pc}+0x150 ; 0x83a8
        0x0000825a:    f44f72de    O..r    MOV      r2,#0x1bc
        0x0000825e:    a19e        ..      ADR      r1,{pc}+0x27a ; 0x84d8
        0x00008260:    a066        f.      ADR      r0,{pc}+0x19c ; 0x83fc
        0x00008262:    f001fa99    ....    BL       __0printf$5 ; 0x9798
        0x00008266:    6870        ph      LDR      r0,[r6,#4]
        0x00008268:    6840        @h      LDR      r0,[r0,#4]
        0x0000826a:    42a0        .B      CMP      r0,r4
        0x0000826c:    d106        ..      BNE      0x827c ; ip_reass_chain_frag_into_datagram_and_validate + 274
        0x0000826e:    a34e        N.      ADR      r3,{pc}+0x13a ; 0x83a8
        0x00008270:    f24012bd    @...    MOV      r2,#0x1bd
        0x00008274:    a198        ..      ADR      r1,{pc}+0x264 ; 0x84d8
        0x00008276:    a061        a.      ADR      r0,{pc}+0x186 ; 0x83fc
        0x00008278:    f001fa8e    ....    BL       __0printf$5 ; 0x9798
        0x0000827c:    6820         h      LDR      r0,[r4,#0]
        0x0000827e:    b130        0.      CBZ      r0,0x828e ; ip_reass_chain_frag_into_datagram_and_validate + 292
        0x00008280:    a349        I.      ADR      r3,{pc}+0x128 ; 0x83a8
        0x00008282:    f24012bf    @...    MOV      r2,#0x1bf
        0x00008286:    a198        ..      ADR      r1,{pc}+0x262 ; 0x84e8
        0x00008288:    a05c        \.      ADR      r0,{pc}+0x174 ; 0x83fc
        0x0000828a:    f001fa85    ....    BL       __0printf$5 ; 0x9798
        0x0000828e:    88e0        ..      LDRH     r0,[r4,#6]
        0x00008290:    8bb1        ..      LDRH     r1,[r6,#0x1c]
        0x00008292:    4288        .B      CMP      r0,r1
        0x00008294:    d006        ..      BEQ      0x82a4 ; ip_reass_chain_frag_into_datagram_and_validate + 314
        0x00008296:    a344        D.      ADR      r3,{pc}+0x112 ; 0x83a8
        0x00008298:    f24012c1    @...    MOV      r2,#0x1c1
        0x0000829c:    a19b        ..      ADR      r1,{pc}+0x270 ; 0x850c
        0x0000829e:    a057        W.      ADR      r0,{pc}+0x15e ; 0x83fc
        0x000082a0:    f001fa7a    ..z.    BL       __0printf$5 ; 0x9798
        0x000082a4:    4638        8F      MOV      r0,r7
        0x000082a6:    e719        ..      B        0x80dc ; ip_reass_free_complete_datagram + 196
        0x000082a8:    e7ff        ..      B        0x82aa ; ip_reass_chain_frag_into_datagram_and_validate + 320
        0x000082aa:    4640        @F      MOV      r0,r8
        0x000082ac:    f7fbfa84    ....    BL       pbuf_clen ; 0x37b8
        0x000082b0:    4601        .F      MOV      r1,r0
        0x000082b2:    483c        <H      LDR      r0,[pc,#240] ; [0x83a4] = 0x200000dc
        0x000082b4:    8802        ..      LDRH     r2,[r0,#0]
        0x000082b6:    1a51        Q.      SUBS     r1,r2,r1
        0x000082b8:    8001        ..      STRH     r1,[r0,#0]
        0x000082ba:    4640        @F      MOV      r0,r8
        0x000082bc:    f7faff66    ..f.    BL       pbuf_free ; 0x318c
        0x000082c0:    2000        .       MOVS     r0,#0
        0x000082c2:    e70b        ..      B        0x80dc ; ip_reass_free_complete_datagram + 196
    ip_reass
        0x000082c4:    e92d5ff0    -.._    PUSH     {r4-r12,lr}
        0x000082c8:    6845        Eh      LDR      r5,[r0,#4]
        0x000082ca:    4682        .F      MOV      r10,r0
        0x000082cc:    2700        .'      MOVS     r7,#0
        0x000082ce:    7828        (x      LDRB     r0,[r5,#0]
        0x000082d0:    f000000f    ....    AND      r0,r0,#0xf
        0x000082d4:    2805        .(      CMP      r0,#5
        0x000082d6:    d15c        \.      BNE      0x8392 ; ip_reass + 206
        0x000082d8:    88e8        ..      LDRH     r0,[r5,#6]
        0x000082da:    f7f8fd3d    ..=.    BL       lwip_ntohs ; 0xd58
        0x000082de:    04c0        ..      LSLS     r0,r0,#19
        0x000082e0:    ea4f4810    O..H    LSR      r8,r0,#16
        0x000082e4:    8868        h.      LDRH     r0,[r5,#2]
        0x000082e6:    f7f8fd37    ..7.    BL       lwip_ntohs ; 0xd58
        0x000082ea:    7829        )x      LDRB     r1,[r5,#0]
        0x000082ec:    f001010f    ....    AND      r1,r1,#0xf
        0x000082f0:    4249        IB      RSBS     r1,r1,#0
        0x000082f2:    eb000081    ....    ADD      r0,r0,r1,LSL #2
        0x000082f6:    fa1ff980    ....    UXTH     r9,r0
        0x000082fa:    4650        PF      MOV      r0,r10
        0x000082fc:    f7fbfa5c    ..\.    BL       pbuf_clen ; 0x37b8
        0x00008300:    4c28        (L      LDR      r4,[pc,#160] ; [0x83a4] = 0x200000dc
        0x00008302:    4606        .F      MOV      r6,r0
        0x00008304:    8820         .      LDRH     r0,[r4,#0]
        0x00008306:    4430        0D      ADD      r0,r0,r6
        0x00008308:    2804        .(      CMP      r0,#4
        0x0000830a:    d908        ..      BLS      0x831e ; ip_reass + 90
        0x0000830c:    4631        1F      MOV      r1,r6
        0x0000830e:    4628        (F      MOV      r0,r5
        0x00008310:    f7fffefa    ....    BL       ip_reass_remove_oldest_datagram ; 0x8108
        0x00008314:    b3e8        ..      CBZ      r0,0x8392 ; ip_reass + 206
        0x00008316:    8820         .      LDRH     r0,[r4,#0]
        0x00008318:    4430        0D      ADD      r0,r0,r6
        0x0000831a:    2804        .(      CMP      r0,#4
        0x0000831c:    d839        9.      BHI      0x8392 ; ip_reass + 206
        0x0000831e:    46a3        .F      MOV      r11,r4
        0x00008320:    6864        dh      LDR      r4,[r4,#4]
        0x00008322:    e00d        ..      B        0x8340 ; ip_reass + 124
        0x00008324:    6960        `i      LDR      r0,[r4,#0x14]
        0x00008326:    68e9        .h      LDR      r1,[r5,#0xc]
        0x00008328:    4288        .B      CMP      r0,r1
        0x0000832a:    d107        ..      BNE      0x833c ; ip_reass + 120
        0x0000832c:    69a0        .i      LDR      r0,[r4,#0x18]
        0x0000832e:    6929        )i      LDR      r1,[r5,#0x10]
        0x00008330:    4288        .B      CMP      r0,r1
        0x00008332:    d103        ..      BNE      0x833c ; ip_reass + 120
        0x00008334:    89a0        ..      LDRH     r0,[r4,#0xc]
        0x00008336:    88a9        ..      LDRH     r1,[r5,#4]
        0x00008338:    4288        .B      CMP      r0,r1
        0x0000833a:    d004        ..      BEQ      0x8346 ; ip_reass + 130
        0x0000833c:    4627        'F      MOV      r7,r4
        0x0000833e:    6824        $h      LDR      r4,[r4,#0]
        0x00008340:    2c00        .,      CMP      r4,#0
        0x00008342:    d1ef        ..      BNE      0x8324 ; ip_reass + 96
        0x00008344:    e006        ..      B        0x8354 ; ip_reass + 144
        0x00008346:    b12c        ,.      CBZ      r4,0x8354 ; ip_reass + 144
        0x00008348:    88e8        ..      LDRH     r0,[r5,#6]
        0x0000834a:    f7f8fd05    ....    BL       lwip_ntohs ; 0xd58
        0x0000834e:    04c0        ..      LSLS     r0,r0,#19
        0x00008350:    d025        %.      BEQ      0x839e ; ip_reass + 218
        0x00008352:    e100        ..      B        0x8556 ; ip_reass + 658
        0x00008354:    2004        .       MOVS     r0,#4
        0x00008356:    f7fafd44    ..D.    BL       memp_malloc ; 0x2de2
        0x0000835a:    0004        ..      MOVS     r4,r0
        0x0000835c:    d10a        ..      BNE      0x8374 ; ip_reass + 176
        0x0000835e:    4631        1F      MOV      r1,r6
        0x00008360:    4628        (F      MOV      r0,r5
        0x00008362:    f7fffed1    ....    BL       ip_reass_remove_oldest_datagram ; 0x8108
        0x00008366:    42b0        .B      CMP      r0,r6
        0x00008368:    db1a        ..      BLT      0x83a0 ; ip_reass + 220
        0x0000836a:    2004        .       MOVS     r0,#4
        0x0000836c:    f7fafd39    ..9.    BL       memp_malloc ; 0x2de2
        0x00008370:    0004        ..      MOVS     r4,r0
        0x00008372:    d015        ..      BEQ      0x83a0 ; ip_reass + 220
        0x00008374:    2120         !      MOVS     r1,#0x20
        0x00008376:    f001f9af    ....    BL       __aeabi_memclr ; 0x96d8
        0x0000837a:    2003        .       MOVS     r0,#3
        0x0000837c:    77e0        .w      STRB     r0,[r4,#0x1f]
        0x0000837e:    f8db1004    ....    LDR      r1,[r11,#4]
        0x00008382:    6021        !`      STR      r1,[r4,#0]
        0x00008384:    2214        ."      MOVS     r2,#0x14
        0x00008386:    4629        )F      MOV      r1,r5
        0x00008388:    f1040008    ....    ADD      r0,r4,#8
        0x0000838c:    f8cb4004    ...@    STR      r4,[r11,#4]
        0x00008390:    e000        ..      B        0x8394 ; ip_reass + 208
        0x00008392:    e003        ..      B        0x839c ; ip_reass + 216
        0x00008394:    f001f987    ....    BL       __aeabi_memcpy ; 0x96a6
        0x00008398:    b104        ..      CBZ      r4,0x839c ; ip_reass + 216
        0x0000839a:    e0dc        ..      B        0x8556 ; ip_reass + 658
        0x0000839c:    e128        (.      B        0x85f0 ; ip_reass + 812
        0x0000839e:    e0cf        ..      B        0x8540 ; ip_reass + 636
        0x000083a0:    e0cc        ..      B        0x853c ; ip_reass + 632
    $d
        0x000083a2:    0000        ..      DCW    0
        0x000083a4:    200000dc    ...     DCD    536871132
        0x000083a8:    2e5c2e2e    ..\.    DCD    777793070
        0x000083ac:    2e2e5c2e    .\..    DCD    774790190
        0x000083b0:    6968545c    \Thi    DCD    1768445020
        0x000083b4:    61506472    rdPa    DCD    1632658546
        0x000083b8:    5c797472    rty\    DCD    1551463538
        0x000083bc:    7069776c    lwip    DCD    1885960044
        0x000083c0:    342e312d    -1.4    DCD    875442477
        0x000083c4:    735c312e    .1\s    DCD    1935421742
        0x000083c8:    635c6372    rc\c    DCD    1666999154
        0x000083cc:    5c65726f    ore\    DCD    1550152303
        0x000083d0:    34767069    ipv4    DCD    880177257
        0x000083d4:    5f70695c    \ip_    DCD    1601202524
        0x000083d8:    67617266    frag    DCD    1734439526
        0x000083dc:    0000632e    .c..    DCD    25390
        0x000083e0:    696e6173    sani    DCD    1768841587
        0x000083e4:    63207974    ty c    DCD    1663072628
        0x000083e8:    6b636568    heck    DCD    1801676136
        0x000083ec:    6e696c20     lin    DCD    1852402720
        0x000083f0:    2064656b    ked     DCD    543450475
        0x000083f4:    7473696c    list    DCD    1953720684
        0x000083f8:    00000000    ....    DCD    0
        0x000083fc:    65737341    Asse    DCD    1702064961
        0x00008400:    6f697472    rtio    DCD    1869182066
        0x00008404:    2522206e    n "%    DCD    622993518
        0x00008408:    66202273    s" f    DCD    1713382003
        0x0000840c:    656c6961    aile    DCD    1701603681
        0x00008410:    74612064    d at    DCD    1952522340
        0x00008414:    6e696c20     lin    DCD    1852402720
        0x00008418:    64252065    e %d    DCD    1680154725
        0x0000841c:    206e6920     in     DCD    544106784
        0x00008420:    000a7325    %s..    DCD    684837
        0x00008424:    76657270    prev    DCD    1986359920
        0x00008428:    203d2120     !=     DCD    540877088
        0x0000842c:    00727069    ipr.    DCD    7499881
        0x00008430:    76657270    prev    DCD    1986359920
        0x00008434:    656e3e2d    ->ne    DCD    1701723693
        0x00008438:    3d207478    xt =    DCD    1025537144
        0x0000843c:    7069203d    = ip    DCD    1885937725
        0x00008440:    00000072    r...    DCD    114
        0x00008444:    66756270    pbuf    DCD    1718968944
        0x00008448:    72665f73    s_fr    DCD    1919311731
        0x0000844c:    20646565    eed     DCD    543450469
        0x00008450:    6c63202b    + cl    DCD    1818435627
        0x00008454:    3c206e65    en <    DCD    1008758373
        0x00008458:    7830203d    = 0x    DCD    2016419901
        0x0000845c:    66666666    ffff    DCD    1717986918
        0x00008460:    00000000    ....    DCD    0
        0x00008464:    725f7069    ip_r    DCD    1918857321
        0x00008468:    73736165    eass    DCD    1936941413
        0x0000846c:    7562705f    _pbu    DCD    1969385567
        0x00008470:    756f6366    fcou    DCD    1970234214
        0x00008474:    3e20746e    nt >    DCD    1042314350
        0x00008478:    6c63203d    = cl    DCD    1818435645
        0x0000847c:    00006e65    en..    DCD    28261
        0x00008480:    63656863    chec    DCD    1667590243
        0x00008484:    7266206b    k fr    DCD    1919295595
        0x00008488:    656d6761    agme    DCD    1701668705
        0x0000848c:    2073746e    nts     DCD    544437358
        0x00008490:    276e6f64    don'    DCD    661548900
        0x00008494:    766f2074    t ov    DCD    1986994292
        0x00008498:    616c7265    erla    DCD    1634497125
        0x0000849c:    00000070    p...    DCD    112
        0x000084a0:    70206f6e    no p    DCD    1881173870
        0x000084a4:    69766572    revi    DCD    1769366898
        0x000084a8:    2073756f    ous     DCD    544437615
        0x000084ac:    67617266    frag    DCD    1734439526
        0x000084b0:    746e656d    ment    DCD    1953391981
        0x000084b4:    6874202c    , th    DCD    1752440876
        0x000084b8:    6d207369    is m    DCD    1830843241
        0x000084bc:    20747375    ust     DCD    544502645
        0x000084c0:    74206562    be t    DCD    1948280162
        0x000084c4:    66206568    he f    DCD    1713399144
        0x000084c8:    74737269    irst    DCD    1953722985
        0x000084cc:    61726620     fra    DCD    1634887200
        0x000084d0:    6e656d67    gmen    DCD    1852140903
        0x000084d4:    00002174    t!..    DCD    8564
        0x000084d8:    696e6173    sani    DCD    1768841587
        0x000084dc:    63207974    ty c    DCD    1663072628
        0x000084e0:    6b636568    heck    DCD    1801676136
        0x000084e4:    00000000    ....    DCD    0
        0x000084e8:    696c6176    vali    DCD    1768710518
        0x000084ec:    65746164    date    DCD    1702125924
        0x000084f0:    7461645f    _dat    DCD    1952539743
        0x000084f4:    61726761    agra    DCD    1634887521
        0x000084f8:    656e3a6d    m:ne    DCD    1701722733
        0x000084fc:    705f7478    xt_p    DCD    1885303928
        0x00008500:    21667562    buf!    DCD    560362850
        0x00008504:    4c554e3d    =NUL    DCD    1280659005
        0x00008508:    0000004c    L...    DCD    76
        0x0000850c:    696c6176    vali    DCD    1768710518
        0x00008510:    65746164    date    DCD    1702125924
        0x00008514:    7461645f    _dat    DCD    1952539743
        0x00008518:    61726761    agra    DCD    1634887521
        0x0000851c:    61643a6d    m:da    DCD    1633958509
        0x00008520:    72676174    tagr    DCD    1919377780
        0x00008524:    65206d61    am e    DCD    1696623969
        0x00008528:    3d21646e    nd!=    DCD    1025598574
        0x0000852c:    61746164    data    DCD    1635017060
        0x00008530:    6d617267    gram    DCD    1835102823
        0x00008534:    6e656c20     len    DCD    1852140576
        0x00008538:    00000000    ....    DCD    0
    $t
        0x0000853c:    2400        .$      MOVS     r4,#0
        0x0000853e:    e72b        +.      B        0x8398 ; ip_reass + 212
        0x00008540:    89e0        ..      LDRH     r0,[r4,#0xe]
        0x00008542:    f7f8fc09    ....    BL       lwip_ntohs ; 0xd58
        0x00008546:    04c0        ..      LSLS     r0,r0,#19
        0x00008548:    d005        ..      BEQ      0x8556 ; ip_reass + 658
        0x0000854a:    2214        ."      MOVS     r2,#0x14
        0x0000854c:    4629        )F      MOV      r1,r5
        0x0000854e:    f1040008    ....    ADD      r0,r4,#8
        0x00008552:    f001f8a8    ....    BL       __aeabi_memcpy ; 0x96a6
        0x00008556:    f8bb0000    ....    LDRH     r0,[r11,#0]
        0x0000855a:    4430        0D      ADD      r0,r0,r6
        0x0000855c:    f8ab0000    ....    STRH     r0,[r11,#0]
        0x00008560:    88e8        ..      LDRH     r0,[r5,#6]
        0x00008562:    0680        ..      LSLS     r0,r0,#26
        0x00008564:    d406        ..      BMI      0x8574 ; ip_reass + 688
        0x00008566:    7fa0        ..      LDRB     r0,[r4,#0x1e]
        0x00008568:    f0400001    @...    ORR      r0,r0,#1
        0x0000856c:    77a0        .w      STRB     r0,[r4,#0x1e]
        0x0000856e:    eb080009    ....    ADD      r0,r8,r9
        0x00008572:    83a0        ..      STRH     r0,[r4,#0x1c]
        0x00008574:    4651        QF      MOV      r1,r10
        0x00008576:    4620         F      MOV      r0,r4
        0x00008578:    f7fffdf7    ....    BL       ip_reass_chain_frag_into_datagram_and_validate ; 0x816a
        0x0000857c:    2800        .(      CMP      r0,#0
        0x0000857e:    d035        5.      BEQ      0x85ec ; ip_reass + 808
        0x00008580:    8ba0        ..      LDRH     r0,[r4,#0x1c]
        0x00008582:    2214        ."      MOVS     r2,#0x14
        0x00008584:    3014        .0      ADDS     r0,r0,#0x14
        0x00008586:    83a0        ..      STRH     r0,[r4,#0x1c]
        0x00008588:    6860        `h      LDR      r0,[r4,#4]
        0x0000858a:    f1040108    ....    ADD      r1,r4,#8
        0x0000858e:    6846        Fh      LDR      r6,[r0,#4]
        0x00008590:    4630        0F      MOV      r0,r6
        0x00008592:    6835        5h      LDR      r5,[r6,#0]
        0x00008594:    f001f887    ....    BL       __aeabi_memcpy ; 0x96a6
        0x00008598:    8ba0        ..      LDRH     r0,[r4,#0x1c]
        0x0000859a:    f7f8fbdb    ....    BL       lwip_htons ; 0xd54
        0x0000859e:    8070        p.      STRH     r0,[r6,#2]
        0x000085a0:    2000        .       MOVS     r0,#0
        0x000085a2:    80f0        ..      STRH     r0,[r6,#6]
        0x000085a4:    8170        p.      STRH     r0,[r6,#0xa]
        0x000085a6:    2114        .!      MOVS     r1,#0x14
        0x000085a8:    4630        0F      MOV      r0,r6
        0x000085aa:    f7fff9be    ....    BL       inet_chksum ; 0x792a
        0x000085ae:    8170        p.      STRH     r0,[r6,#0xa]
        0x000085b0:    f06f0913    o...    MVN      r9,#0x13
        0x000085b4:    f8d48004    ....    LDR      r8,[r4,#4]
        0x000085b8:    e009        ..      B        0x85ce ; ip_reass + 778
        0x000085ba:    4649        IF      MOV      r1,r9
        0x000085bc:    4628        (F      MOV      r0,r5
        0x000085be:    686e        nh      LDR      r6,[r5,#4]
        0x000085c0:    f7faff74    ..t.    BL       pbuf_header ; 0x34ac
        0x000085c4:    4629        )F      MOV      r1,r5
        0x000085c6:    4640        @F      MOV      r0,r8
        0x000085c8:    f7fbf905    ....    BL       pbuf_cat ; 0x37d6
        0x000085cc:    6835        5h      LDR      r5,[r6,#0]
        0x000085ce:    2d00        .-      CMP      r5,#0
        0x000085d0:    d1f3        ..      BNE      0x85ba ; ip_reass + 758
        0x000085d2:    4639        9F      MOV      r1,r7
        0x000085d4:    4620         F      MOV      r0,r4
        0x000085d6:    f7fffd05    ....    BL       ip_reass_dequeue_datagram ; 0x7fe4
        0x000085da:    4640        @F      MOV      r0,r8
        0x000085dc:    f7fbf8ec    ....    BL       pbuf_clen ; 0x37b8
        0x000085e0:    f8bb2000    ...     LDRH     r2,[r11,#0]
        0x000085e4:    1a10        ..      SUBS     r0,r2,r0
        0x000085e6:    f8ab0000    ....    STRH     r0,[r11,#0]
        0x000085ea:    4640        @F      MOV      r0,r8
        0x000085ec:    e8bd9ff0    ....    POP      {r4-r12,pc}
        0x000085f0:    4650        PF      MOV      r0,r10
        0x000085f2:    f7fafdcb    ....    BL       pbuf_free ; 0x318c
        0x000085f6:    2000        .       MOVS     r0,#0
        0x000085f8:    e7f8        ..      B        0x85ec ; ip_reass + 808
        0x000085fa:    0000        ..      MOVS     r0,r0
    .text
    etharp_free_entry
        0x000085fc:    b570        p.      PUSH     {r4-r6,lr}
        0x000085fe:    eb000480    ....    ADD      r4,r0,r0,LSL #2
        0x00008602:    4eff        .N      LDR      r6,[pc,#1020] ; [0x8a00] = 0x200071fc
        0x00008604:    2500        .%      MOVS     r5,#0
        0x00008606:    f8560024    V.$.    LDR      r0,[r6,r4,LSL #2]
        0x0000860a:    b118        ..      CBZ      r0,0x8614 ; etharp_free_entry + 24
        0x0000860c:    f7fafdbe    ....    BL       pbuf_free ; 0x318c
        0x00008610:    f8465024    F.$P    STR      r5,[r6,r4,LSL #2]
        0x00008614:    eb060084    ....    ADD      r0,r6,r4,LSL #2
        0x00008618:    49fa        .I      LDR      r1,[pc,#1000] ; [0x8a04] = 0x9c18
        0x0000861a:    7485        .t      STRB     r5,[r0,#0x12]
        0x0000861c:    74c5        .t      STRB     r5,[r0,#0x13]
        0x0000861e:    6085        .`      STR      r5,[r0,#8]
        0x00008620:    6045        E`      STR      r5,[r0,#4]
        0x00008622:    f8d12006    ...     LDR      r2,[r1,#6]
        0x00008626:    60c2        .`      STR      r2,[r0,#0xc]
        0x00008628:    8949        I.      LDRH     r1,[r1,#0xa]
        0x0000862a:    8201        ..      STRH     r1,[r0,#0x10]
        0x0000862c:    bd70        p.      POP      {r4-r6,pc}
    etharp_tmr
        0x0000862e:    b570        p.      PUSH     {r4-r6,lr}
        0x00008630:    4df3        .M      LDR      r5,[pc,#972] ; [0x8a00] = 0x200071fc
        0x00008632:    2400        .$      MOVS     r4,#0
        0x00008634:    eb040084    ....    ADD      r0,r4,r4,LSL #2
        0x00008638:    eb050080    ....    ADD      r0,r5,r0,LSL #2
        0x0000863c:    7c82        .|      LDRB     r2,[r0,#0x12]
        0x0000863e:    b192        ..      CBZ      r2,0x8666 ; etharp_tmr + 56
        0x00008640:    7cc1        .|      LDRB     r1,[r0,#0x13]
        0x00008642:    1c49        I.      ADDS     r1,r1,#1
        0x00008644:    b2c9        ..      UXTB     r1,r1
        0x00008646:    74c1        .t      STRB     r1,[r0,#0x13]
        0x00008648:    29f0        .)      CMP      r1,#0xf0
        0x0000864a:    d206        ..      BCS      0x865a ; etharp_tmr + 44
        0x0000864c:    2a01        .*      CMP      r2,#1
        0x0000864e:    d002        ..      BEQ      0x8656 ; etharp_tmr + 40
        0x00008650:    2a03        .*      CMP      r2,#3
        0x00008652:    d006        ..      BEQ      0x8662 ; etharp_tmr + 52
        0x00008654:    e007        ..      B        0x8666 ; etharp_tmr + 56
        0x00008656:    2902        .)      CMP      r1,#2
        0x00008658:    d305        ..      BCC      0x8666 ; etharp_tmr + 56
        0x0000865a:    4620         F      MOV      r0,r4
        0x0000865c:    f7ffffce    ....    BL       etharp_free_entry ; 0x85fc
        0x00008660:    e001        ..      B        0x8666 ; etharp_tmr + 56
        0x00008662:    2102        .!      MOVS     r1,#2
        0x00008664:    7481        .t      STRB     r1,[r0,#0x12]
        0x00008666:    1c64        d.      ADDS     r4,r4,#1
        0x00008668:    b2e4        ..      UXTB     r4,r4
        0x0000866a:    2c0a        .,      CMP      r4,#0xa
        0x0000866c:    d3e2        ..      BCC      0x8634 ; etharp_tmr + 6
        0x0000866e:    bd70        p.      POP      {r4-r6,pc}
    etharp_find_entry
        0x00008670:    e92d4ff3    -..O    PUSH     {r0,r1,r4-r11,lr}
        0x00008674:    4680        .F      MOV      r8,r0
        0x00008676:    200a        .       MOVS     r0,#0xa
        0x00008678:    b085        ..      SUB      sp,sp,#0x14
        0x0000867a:    2400        .$      MOVS     r4,#0
        0x0000867c:    e9cd0400    ....    STRD     r0,r4,[sp,#0]
        0x00008680:    e9cd4402    ...D    STRD     r4,r4,[sp,#8]
        0x00008684:    4681        .F      MOV      r9,r0
        0x00008686:    4607        .F      MOV      r7,r0
        0x00008688:    4620         F      MOV      r0,r4
        0x0000868a:    f04f0a0a    O...    MOV      r10,#0xa
        0x0000868e:    4622        "F      MOV      r2,r4
        0x00008690:    4adb        .J      LDR      r2,[pc,#876] ; [0x8a00] = 0x200071fc
        0x00008692:    eb040b84    ....    ADD      r11,r4,r4,LSL #2
        0x00008696:    eb02068b    ....    ADD      r6,r2,r11,LSL #2
        0x0000869a:    2f0a        ./      CMP      r7,#0xa
        0x0000869c:    7cb5        .|      LDRB     r5,[r6,#0x12]
        0x0000869e:    d017        ..      BEQ      0x86d0 ; etharp_find_entry + 96
        0x000086a0:    b32d        -.      CBZ      r5,0x86ee ; etharp_find_entry + 126
        0x000086a2:    2d01        .-      CMP      r5,#1
        0x000086a4:    d008        ..      BEQ      0x86b8 ; etharp_find_entry + 72
        0x000086a6:    2d02        .-      CMP      r5,#2
        0x000086a8:    d206        ..      BCS      0x86b8 ; etharp_find_entry + 72
        0x000086aa:    a3d7        ..      ADR      r3,{pc}+0x35e ; 0x8a08
        0x000086ac:    f240122b    @.+.    MOV      r2,#0x12b
        0x000086b0:    a1e2        ..      ADR      r1,{pc}+0x38c ; 0x8a3c
        0x000086b2:    a0f2        ..      ADR      r0,{pc}+0x3ca ; 0x8a7c
        0x000086b4:    f001f870    ..p.    BL       __0printf$5 ; 0x9798
        0x000086b8:    f1b80f00    ....    CMP      r8,#0
        0x000086bc:    d00c        ..      BEQ      0x86d8 ; etharp_find_entry + 104
        0x000086be:    f8d80000    ....    LDR      r0,[r8,#0]
        0x000086c2:    6872        rh      LDR      r2,[r6,#4]
        0x000086c4:    4290        .B      CMP      r0,r2
        0x000086c6:    d107        ..      BNE      0x86d8 ; etharp_find_entry + 104
        0x000086c8:    b260        `.      SXTB     r0,r4
        0x000086ca:    b007        ..      ADD      sp,sp,#0x1c
        0x000086cc:    e8bd8ff0    ....    POP      {r4-r11,pc}
        0x000086d0:    2d00        .-      CMP      r5,#0
        0x000086d2:    d1e6        ..      BNE      0x86a2 ; etharp_find_entry + 50
        0x000086d4:    b267        g.      SXTB     r7,r4
        0x000086d6:    e00a        ..      B        0x86ee ; etharp_find_entry + 126
        0x000086d8:    2d01        .-      CMP      r5,#1
        0x000086da:    d016        ..      BEQ      0x870a ; etharp_find_entry + 154
        0x000086dc:    2d02        .-      CMP      r5,#2
        0x000086de:    d306        ..      BCC      0x86ee ; etharp_find_entry + 126
        0x000086e0:    7cf0        .|      LDRB     r0,[r6,#0x13]
        0x000086e2:    9902        ..      LDR      r1,[sp,#8]
        0x000086e4:    4288        .B      CMP      r0,r1
        0x000086e6:    d302        ..      BCC      0x86ee ; etharp_find_entry + 126
        0x000086e8:    fa4ff984    O...    SXTB     r9,r4
        0x000086ec:    9002        ..      STR      r0,[sp,#8]
        0x000086ee:    1c64        d.      ADDS     r4,r4,#1
        0x000086f0:    b2e4        ..      UXTB     r4,r4
        0x000086f2:    2c0a        .,      CMP      r4,#0xa
        0x000086f4:    d3cc        ..      BCC      0x8690 ; etharp_find_entry + 32
        0x000086f6:    9806        ..      LDR      r0,[sp,#0x18]
        0x000086f8:    0781        ..      LSLS     r1,r0,#30
        0x000086fa:    f04f30ff    O..0    MOV      r0,#0xffffffff
        0x000086fe:    d4e4        ..      BMI      0x86ca ; etharp_find_entry + 90
        0x00008700:    2f0a        ./      CMP      r7,#0xa
        0x00008702:    d016        ..      BEQ      0x8732 ; etharp_find_entry + 194
        0x00008704:    da18        ..      BGE      0x8738 ; etharp_find_entry + 200
        0x00008706:    b2fc        ..      UXTB     r4,r7
        0x00008708:    e03f        ?.      B        0x878a ; etharp_find_entry + 282
        0x0000870a:    48bd        .H      LDR      r0,[pc,#756] ; [0x8a00] = 0x200071fc
        0x0000870c:    f850202b    P.+     LDR      r2,[r0,r11,LSL #2]
        0x00008710:    b13a        :.      CBZ      r2,0x8722 ; etharp_find_entry + 178
        0x00008712:    7cf2        .|      LDRB     r2,[r6,#0x13]
        0x00008714:    9b03        ..      LDR      r3,[sp,#0xc]
        0x00008716:    429a        .B      CMP      r2,r3
        0x00008718:    d3e9        ..      BCC      0x86ee ; etharp_find_entry + 126
        0x0000871a:    fa4ffa84    O...    SXTB     r10,r4
        0x0000871e:    9203        ..      STR      r2,[sp,#0xc]
        0x00008720:    e7e5        ..      B        0x86ee ; etharp_find_entry + 126
        0x00008722:    7cf0        .|      LDRB     r0,[r6,#0x13]
        0x00008724:    9901        ..      LDR      r1,[sp,#4]
        0x00008726:    4288        .B      CMP      r0,r1
        0x00008728:    d3e1        ..      BCC      0x86ee ; etharp_find_entry + 126
        0x0000872a:    b262        b.      SXTB     r2,r4
        0x0000872c:    e9cd2000    ...     STRD     r2,r0,[sp,#0]
        0x00008730:    e7dd        ..      B        0x86ee ; etharp_find_entry + 126
        0x00008732:    9906        ..      LDR      r1,[sp,#0x18]
        0x00008734:    07c9        ..      LSLS     r1,r1,#31
        0x00008736:    d0c8        ..      BEQ      0x86ca ; etharp_find_entry + 90
        0x00008738:    f1b90f0a    ....    CMP      r9,#0xa
        0x0000873c:    da0f        ..      BGE      0x875e ; etharp_find_entry + 238
        0x0000873e:    f00904ff    ....    AND      r4,r9,#0xff
        0x00008742:    48af        .H      LDR      r0,[pc,#700] ; [0x8a00] = 0x200071fc
        0x00008744:    eb040184    ....    ADD      r1,r4,r4,LSL #2
        0x00008748:    f8500021    P.!.    LDR      r0,[r0,r1,LSL #2]
        0x0000874c:    b188        ..      CBZ      r0,0x8772 ; etharp_find_entry + 258
        0x0000874e:    a3ae        ..      ADR      r3,{pc}+0x2ba ; 0x8a08
        0x00008750:    f2401271    @.q.    MOV      r2,#0x171
        0x00008754:    a1d3        ..      ADR      r1,{pc}+0x350 ; 0x8aa4
        0x00008756:    a0c9        ..      ADR      r0,{pc}+0x326 ; 0x8a7c
        0x00008758:    f001f81e    ....    BL       __0printf$5 ; 0x9798
        0x0000875c:    e009        ..      B        0x8772 ; etharp_find_entry + 258
        0x0000875e:    9900        ..      LDR      r1,[sp,#0]
        0x00008760:    290a        .)      CMP      r1,#0xa
        0x00008762:    da01        ..      BGE      0x8768 ; etharp_find_entry + 248
        0x00008764:    b2cc        ..      UXTB     r4,r1
        0x00008766:    e004        ..      B        0x8772 ; etharp_find_entry + 258
        0x00008768:    f1ba0f0a    ....    CMP      r10,#0xa
        0x0000876c:    daad        ..      BGE      0x86ca ; etharp_find_entry + 90
        0x0000876e:    f00a04ff    ....    AND      r4,r10,#0xff
        0x00008772:    2c0a        .,      CMP      r4,#0xa
        0x00008774:    d306        ..      BCC      0x8784 ; etharp_find_entry + 276
        0x00008776:    a3a4        ..      ADR      r3,{pc}+0x292 ; 0x8a08
        0x00008778:    f2401283    @...    MOV      r2,#0x183
        0x0000877c:    a1cf        ..      ADR      r1,{pc}+0x340 ; 0x8abc
        0x0000877e:    a0bf        ..      ADR      r0,{pc}+0x2fe ; 0x8a7c
        0x00008780:    f001f80a    ....    BL       __0printf$5 ; 0x9798
        0x00008784:    4620         F      MOV      r0,r4
        0x00008786:    f7ffff39    ..9.    BL       etharp_free_entry ; 0x85fc
        0x0000878a:    2c0a        .,      CMP      r4,#0xa
        0x0000878c:    d306        ..      BCC      0x879c ; etharp_find_entry + 300
        0x0000878e:    a39e        ..      ADR      r3,{pc}+0x27a ; 0x8a08
        0x00008790:    f2401287    @...    MOV      r2,#0x187
        0x00008794:    a1c9        ..      ADR      r1,{pc}+0x328 ; 0x8abc
        0x00008796:    a0b9        ..      ADR      r0,{pc}+0x2e6 ; 0x8a7c
        0x00008798:    f000fffe    ....    BL       __0printf$5 ; 0x9798
        0x0000879c:    4898        .H      LDR      r0,[pc,#608] ; [0x8a00] = 0x200071fc
        0x0000879e:    eb040184    ....    ADD      r1,r4,r4,LSL #2
        0x000087a2:    eb000581    ....    ADD      r5,r0,r1,LSL #2
        0x000087a6:    7ca8        .|      LDRB     r0,[r5,#0x12]
        0x000087a8:    b130        0.      CBZ      r0,0x87b8 ; etharp_find_entry + 328
        0x000087aa:    a397        ..      ADR      r3,{pc}+0x25e ; 0x8a08
        0x000087ac:    f44f72c4    O..r    MOV      r2,#0x188
        0x000087b0:    a1c7        ..      ADR      r1,{pc}+0x320 ; 0x8ad0
        0x000087b2:    a0b2        ..      ADR      r0,{pc}+0x2ca ; 0x8a7c
        0x000087b4:    f000fff0    ....    BL       __0printf$5 ; 0x9798
        0x000087b8:    f1b80f00    ....    CMP      r8,#0
        0x000087bc:    d002        ..      BEQ      0x87c4 ; etharp_find_entry + 340
        0x000087be:    f8d80000    ....    LDR      r0,[r8,#0]
        0x000087c2:    6068        h`      STR      r0,[r5,#4]
        0x000087c4:    2000        .       MOVS     r0,#0
        0x000087c6:    74e8        .t      STRB     r0,[r5,#0x13]
        0x000087c8:    e77e        ~.      B        0x86c8 ; etharp_find_entry + 88
    etharp_send_ip
        0x000087ca:    e92d41f0    -..A    PUSH     {r4-r8,lr}
        0x000087ce:    4605        .F      MOV      r5,r0
        0x000087d0:    f8900026    ..&.    LDRB     r0,[r0,#0x26]
        0x000087d4:    684c        Lh      LDR      r4,[r1,#4]
        0x000087d6:    4688        .F      MOV      r8,r1
        0x000087d8:    4616        .F      MOV      r6,r2
        0x000087da:    461f        .F      MOV      r7,r3
        0x000087dc:    2806        .(      CMP      r0,#6
        0x000087de:    d007        ..      BEQ      0x87f0 ; etharp_send_ip + 38
        0x000087e0:    4988        .I      LDR      r1,[pc,#544] ; [0x8a04] = 0x9c18
        0x000087e2:    a389        ..      ADR      r3,{pc}+0x226 ; 0x8a08
        0x000087e4:    f24012a3    @...    MOV      r2,#0x1a3
        0x000087e8:    310c        .1      ADDS     r1,r1,#0xc
        0x000087ea:    a0a4        ..      ADR      r0,{pc}+0x292 ; 0x8a7c
        0x000087ec:    f000ffd4    ....    BL       __0printf$5 ; 0x9798
        0x000087f0:    6838        8h      LDR      r0,[r7,#0]
        0x000087f2:    6020         `      STR      r0,[r4,#0]
        0x000087f4:    88b8        ..      LDRH     r0,[r7,#4]
        0x000087f6:    80a0        ..      STRH     r0,[r4,#4]
        0x000087f8:    6830        0h      LDR      r0,[r6,#0]
        0x000087fa:    f8c40006    ....    STR      r0,[r4,#6]
        0x000087fe:    88b0        ..      LDRH     r0,[r6,#4]
        0x00008800:    8160        `.      STRH     r0,[r4,#0xa]
        0x00008802:    2008        .       MOVS     r0,#8
        0x00008804:    81a0        ..      STRH     r0,[r4,#0xc]
        0x00008806:    4641        AF      MOV      r1,r8
        0x00008808:    4628        (F      MOV      r0,r5
        0x0000880a:    69aa        .i      LDR      r2,[r5,#0x18]
        0x0000880c:    e8bd41f0    ...A    POP      {r4-r8,lr}
        0x00008810:    4710        .G      BX       r2
    etharp_update_arp_entry
        0x00008812:    e92d41f0    -..A    PUSH     {r4-r8,lr}
        0x00008816:    4604        .F      MOV      r4,r0
        0x00008818:    f8900026    ..&.    LDRB     r0,[r0,#0x26]
        0x0000881c:    460d        .F      MOV      r5,r1
        0x0000881e:    4616        .F      MOV      r6,r2
        0x00008820:    461f        .F      MOV      r7,r3
        0x00008822:    2806        .(      CMP      r0,#6
        0x00008824:    d006        ..      BEQ      0x8834 ; etharp_update_arp_entry + 34
        0x00008826:    a378        x.      ADR      r3,{pc}+0x1e2 ; 0x8a08
        0x00008828:    f24012c3    @...    MOV      r2,#0x1c3
        0x0000882c:    a1b3        ..      ADR      r1,{pc}+0x2d0 ; 0x8afc
        0x0000882e:    a093        ..      ADR      r0,{pc}+0x24e ; 0x8a7c
        0x00008830:    f000ffb2    ....    BL       __0printf$5 ; 0x9798
        0x00008834:    b385        ..      CBZ      r5,0x8898 ; etharp_update_arp_entry + 134
        0x00008836:    6828        (h      LDR      r0,[r5,#0]
        0x00008838:    b370        p.      CBZ      r0,0x8898 ; etharp_update_arp_entry + 134
        0x0000883a:    4621        !F      MOV      r1,r4
        0x0000883c:    f7fffa94    ....    BL       ip4_addr_isbroadcast ; 0x7d68
        0x00008840:    bb50        P.      CBNZ     r0,0x8898 ; etharp_update_arp_entry + 134
        0x00008842:    6828        (h      LDR      r0,[r5,#0]
        0x00008844:    f3c01003    ....    UBFX     r0,r0,#4,#4
        0x00008848:    280e        .(      CMP      r0,#0xe
        0x0000884a:    d026        &.      BEQ      0x889a ; etharp_update_arp_entry + 136
        0x0000884c:    4639        9F      MOV      r1,r7
        0x0000884e:    4628        (F      MOV      r0,r5
        0x00008850:    f7ffff0e    ....    BL       etharp_find_entry ; 0x8670
        0x00008854:    2800        .(      CMP      r0,#0
        0x00008856:    db1d        ..      BLT      0x8894 ; etharp_update_arp_entry + 130
        0x00008858:    4a69        iJ      LDR      r2,[pc,#420] ; [0x8a00] = 0x200071fc
        0x0000885a:    eb000180    ....    ADD      r1,r0,r0,LSL #2
        0x0000885e:    eb020081    ....    ADD      r0,r2,r1,LSL #2
        0x00008862:    2302        .#      MOVS     r3,#2
        0x00008864:    7483        .t      STRB     r3,[r0,#0x12]
        0x00008866:    6084        .`      STR      r4,[r0,#8]
        0x00008868:    6833        3h      LDR      r3,[r6,#0]
        0x0000886a:    60c3        .`      STR      r3,[r0,#0xc]
        0x0000886c:    88b3        ..      LDRH     r3,[r6,#4]
        0x0000886e:    8203        ..      STRH     r3,[r0,#0x10]
        0x00008870:    2300        .#      MOVS     r3,#0
        0x00008872:    74c3        .t      STRB     r3,[r0,#0x13]
        0x00008874:    f8525021    R.!P    LDR      r5,[r2,r1,LSL #2]
        0x00008878:    b15d        ].      CBZ      r5,0x8892 ; etharp_update_arp_entry + 128
        0x0000887a:    f8423021    B.!0    STR      r3,[r2,r1,LSL #2]
        0x0000887e:    4633        3F      MOV      r3,r6
        0x00008880:    f1040227    ..'.    ADD      r2,r4,#0x27
        0x00008884:    4629        )F      MOV      r1,r5
        0x00008886:    4620         F      MOV      r0,r4
        0x00008888:    f7ffff9f    ....    BL       etharp_send_ip ; 0x87ca
        0x0000888c:    4628        (F      MOV      r0,r5
        0x0000888e:    f7fafc7d    ..}.    BL       pbuf_free ; 0x318c
        0x00008892:    2000        .       MOVS     r0,#0
        0x00008894:    e8bd81f0    ....    POP      {r4-r8,pc}
        0x00008898:    e7ff        ..      B        0x889a ; etharp_update_arp_entry + 136
        0x0000889a:    f06f000d    o...    MVN      r0,#0xd
        0x0000889e:    e7f9        ..      B        0x8894 ; etharp_update_arp_entry + 130
    etharp_cleanup_netif
        0x000088a0:    b570        p.      PUSH     {r4-r6,lr}
        0x000088a2:    4e57        WN      LDR      r6,[pc,#348] ; [0x8a00] = 0x200071fc
        0x000088a4:    4605        .F      MOV      r5,r0
        0x000088a6:    2400        .$      MOVS     r4,#0
        0x000088a8:    eb040084    ....    ADD      r0,r4,r4,LSL #2
        0x000088ac:    eb060080    ....    ADD      r0,r6,r0,LSL #2
        0x000088b0:    7c81        .|      LDRB     r1,[r0,#0x12]
        0x000088b2:    b129        ).      CBZ      r1,0x88c0 ; etharp_cleanup_netif + 32
        0x000088b4:    6880        .h      LDR      r0,[r0,#8]
        0x000088b6:    42a8        .B      CMP      r0,r5
        0x000088b8:    d102        ..      BNE      0x88c0 ; etharp_cleanup_netif + 32
        0x000088ba:    4620         F      MOV      r0,r4
        0x000088bc:    f7fffe9e    ....    BL       etharp_free_entry ; 0x85fc
        0x000088c0:    1c64        d.      ADDS     r4,r4,#1
        0x000088c2:    b2e4        ..      UXTB     r4,r4
        0x000088c4:    2c0a        .,      CMP      r4,#0xa
        0x000088c6:    d3ef        ..      BCC      0x88a8 ; etharp_cleanup_netif + 8
        0x000088c8:    bd70        p.      POP      {r4-r6,pc}
    etharp_find_addr
        0x000088ca:    b570        p.      PUSH     {r4-r6,lr}
        0x000088cc:    460e        .F      MOV      r6,r1
        0x000088ce:    0014        ..      MOVS     r4,r2
        0x000088d0:    461d        .F      MOV      r5,r3
        0x000088d2:    d000        ..      BEQ      0x88d6 ; etharp_find_addr + 12
        0x000088d4:    b935        5.      CBNZ     r5,0x88e4 ; etharp_find_addr + 26
        0x000088d6:    a34c        L.      ADR      r3,{pc}+0x132 ; 0x8a08
        0x000088d8:    f44f7218    O..r    MOV      r2,#0x260
        0x000088dc:    a191        ..      ADR      r1,{pc}+0x248 ; 0x8b24
        0x000088de:    a067        g.      ADR      r0,{pc}+0x19e ; 0x8a7c
        0x000088e0:    f000ff5a    ..Z.    BL       __0printf$5 ; 0x9798
        0x000088e4:    2102        .!      MOVS     r1,#2
        0x000088e6:    4630        0F      MOV      r0,r6
        0x000088e8:    f7fffec2    ....    BL       etharp_find_entry ; 0x8670
        0x000088ec:    2800        .(      CMP      r0,#0
        0x000088ee:    db0d        ..      BLT      0x890c ; etharp_find_addr + 66
        0x000088f0:    4943        CI      LDR      r1,[pc,#268] ; [0x8a00] = 0x200071fc
        0x000088f2:    eb000280    ....    ADD      r2,r0,r0,LSL #2
        0x000088f6:    eb010182    ....    ADD      r1,r1,r2,LSL #2
        0x000088fa:    7c8a        .|      LDRB     r2,[r1,#0x12]
        0x000088fc:    2a02        .*      CMP      r2,#2
        0x000088fe:    d305        ..      BCC      0x890c ; etharp_find_addr + 66
        0x00008900:    f101020c    ....    ADD      r2,r1,#0xc
        0x00008904:    1d09        ..      ADDS     r1,r1,#4
        0x00008906:    6022        "`      STR      r2,[r4,#0]
        0x00008908:    6029        )`      STR      r1,[r5,#0]
        0x0000890a:    bd70        p.      POP      {r4-r6,pc}
        0x0000890c:    f04f30ff    O..0    MOV      r0,#0xffffffff
        0x00008910:    bd70        p.      POP      {r4-r6,pc}
    etharp_arp_input
        0x00008912:    e92d4ff8    -..O    PUSH     {r3-r11,lr}
        0x00008916:    0005        ..      MOVS     r5,r0
        0x00008918:    4689        .F      MOV      r9,r1
        0x0000891a:    4617        .F      MOV      r7,r2
        0x0000891c:    d00e        ..      BEQ      0x893c ; etharp_arp_input + 42
        0x0000891e:    8978        x.      LDRH     r0,[r7,#0xa]
        0x00008920:    282a        *(      CMP      r0,#0x2a
        0x00008922:    d314        ..      BCC      0x894e ; etharp_arp_input + 60
        0x00008924:    687e        ~h      LDR      r6,[r7,#4]
        0x00008926:    f44f7a80    O..z    MOV      r10,#0x100
        0x0000892a:    f106040e    ....    ADD      r4,r6,#0xe
        0x0000892e:    89f0        ..      LDRH     r0,[r6,#0xe]
        0x00008930:    4550        PE      CMP      r0,r10
        0x00008932:    d10c        ..      BNE      0x894e ; etharp_arp_input + 60
        0x00008934:    7920         y      LDRB     r0,[r4,#4]
        0x00008936:    2806        .(      CMP      r0,#6
        0x00008938:    d109        ..      BNE      0x894e ; etharp_arp_input + 60
        0x0000893a:    e00a        ..      B        0x8952 ; etharp_arp_input + 64
        0x0000893c:    a332        2.      ADR      r3,{pc}+0xcc ; 0x8a08
        0x0000893e:    f24022bb    @.."    MOV      r2,#0x2bb
        0x00008942:    a181        ..      ADR      r1,{pc}+0x206 ; 0x8b48
        0x00008944:    a04d        M.      ADR      r0,{pc}+0x138 ; 0x8a7c
        0x00008946:    f000ff27    ..'.    BL       __0printf$5 ; 0x9798
        0x0000894a:    e8bd8ff8    ....    POP      {r3-r11,pc}
        0x0000894e:    4610        .F      MOV      r0,r2
        0x00008950:    e10c        ..      B        0x8b6c ; etharp_arp_input + 602
        0x00008952:    7960        `y      LDRB     r0,[r4,#5]
        0x00008954:    2804        .(      CMP      r0,#4
        0x00008956:    d1fa        ..      BNE      0x894e ; etharp_arp_input + 60
        0x00008958:    8860        `.      LDRH     r0,[r4,#2]
        0x0000895a:    2808        .(      CMP      r0,#8
        0x0000895c:    d1f7        ..      BNE      0x894e ; etharp_arp_input + 60
        0x0000895e:    f8d4000e    ....    LDR      r0,[r4,#0xe]
        0x00008962:    9000        ..      STR      r0,[sp,#0]
        0x00008964:    69a1        .i      LDR      r1,[r4,#0x18]
        0x00008966:    1d28        (.      ADDS     r0,r5,#4
        0x00008968:    f04f0301    O...    MOV      r3,#1
        0x0000896c:    d004        ..      BEQ      0x8978 ; etharp_arp_input + 102
        0x0000896e:    6868        hh      LDR      r0,[r5,#4]
        0x00008970:    b110        ..      CBZ      r0,0x8978 ; etharp_arp_input + 102
        0x00008972:    4698        .F      MOV      r8,r3
        0x00008974:    4281        .B      CMP      r1,r0
        0x00008976:    d001        ..      BEQ      0x897c ; etharp_arp_input + 106
        0x00008978:    f04f0800    O...    MOV      r8,#0
        0x0000897c:    f1b80f00    ....    CMP      r8,#0
        0x00008980:    d100        ..      BNE      0x8984 ; etharp_arp_input + 114
        0x00008982:    2302        .#      MOVS     r3,#2
        0x00008984:    f1040208    ....    ADD      r2,r4,#8
        0x00008988:    4669        iF      MOV      r1,sp
        0x0000898a:    4628        (F      MOV      r0,r5
        0x0000898c:    f7ffff41    ..A.    BL       etharp_update_arp_entry ; 0x8812
        0x00008990:    88e0        ..      LDRH     r0,[r4,#6]
        0x00008992:    4550        PE      CMP      r0,r10
        0x00008994:    d003        ..      BEQ      0x899e ; etharp_arp_input + 140
        0x00008996:    f5b07f00    ....    CMP      r0,#0x200
        0x0000899a:    d130        0.      BNE      0x89fe ; etharp_arp_input + 236
        0x0000899c:    e0e1        ..      B        0x8b62 ; etharp_arp_input + 592
        0x0000899e:    f1b80f00    ....    CMP      r8,#0
        0x000089a2:    d02c        ,.      BEQ      0x89fe ; etharp_arp_input + 236
        0x000089a4:    2002        .       MOVS     r0,#2
        0x000089a6:    f7f8f9d5    ....    BL       lwip_htons ; 0xd54
        0x000089aa:    80e0        ..      STRH     r0,[r4,#6]
        0x000089ac:    f8d4000e    ....    LDR      r0,[r4,#0xe]
        0x000089b0:    61a0        .a      STR      r0,[r4,#0x18]
        0x000089b2:    6868        hh      LDR      r0,[r5,#4]
        0x000089b4:    f8c4000e    ....    STR      r0,[r4,#0xe]
        0x000089b8:    f8950026    ..&.    LDRB     r0,[r5,#0x26]
        0x000089bc:    2806        .(      CMP      r0,#6
        0x000089be:    d007        ..      BEQ      0x89d0 ; etharp_arp_input + 190
        0x000089c0:    4910        .I      LDR      r1,[pc,#64] ; [0x8a04] = 0x9c18
        0x000089c2:    a311        ..      ADR      r3,{pc}+0x46 ; 0x8a08
        0x000089c4:    f2403211    @..2    MOV      r2,#0x311
        0x000089c8:    310c        .1      ADDS     r1,r1,#0xc
        0x000089ca:    a02c        ,.      ADR      r0,{pc}+0xb2 ; 0x8a7c
        0x000089cc:    f000fee4    ....    BL       __0printf$5 ; 0x9798
        0x000089d0:    68a0        .h      LDR      r0,[r4,#8]
        0x000089d2:    f8c40012    ....    STR      r0,[r4,#0x12]
        0x000089d6:    89a0        ..      LDRH     r0,[r4,#0xc]
        0x000089d8:    82e0        ..      STRH     r0,[r4,#0x16]
        0x000089da:    68a0        .h      LDR      r0,[r4,#8]
        0x000089dc:    6030        0`      STR      r0,[r6,#0]
        0x000089de:    89a0        ..      LDRH     r0,[r4,#0xc]
        0x000089e0:    80b0        ..      STRH     r0,[r6,#4]
        0x000089e2:    f8d90000    ....    LDR      r0,[r9,#0]
        0x000089e6:    60a0        .`      STR      r0,[r4,#8]
        0x000089e8:    f8b90004    ....    LDRH     r0,[r9,#4]
        0x000089ec:    81a0        ..      STRH     r0,[r4,#0xc]
        0x000089ee:    f8d90000    ....    LDR      r0,[r9,#0]
        0x000089f2:    f8c60006    ....    STR      r0,[r6,#6]
        0x000089f6:    f8b90004    ....    LDRH     r0,[r9,#4]
        0x000089fa:    8170        p.      STRH     r0,[r6,#0xa]
        0x000089fc:    e0ac        ..      B        0x8b58 ; etharp_arp_input + 582
        0x000089fe:    e0b4        ..      B        0x8b6a ; etharp_arp_input + 600
    $d
        0x00008a00:    200071fc    .q.     DCD    536900092
        0x00008a04:    00009c18    ....    DCD    39960
        0x00008a08:    2e5c2e2e    ..\.    DCD    777793070
        0x00008a0c:    2e2e5c2e    .\..    DCD    774790190
        0x00008a10:    6968545c    \Thi    DCD    1768445020
        0x00008a14:    61506472    rdPa    DCD    1632658546
        0x00008a18:    5c797472    rty\    DCD    1551463538
        0x00008a1c:    7069776c    lwip    DCD    1885960044
        0x00008a20:    342e312d    -1.4    DCD    875442477
        0x00008a24:    735c312e    .1\s    DCD    1935421742
        0x00008a28:    6e5c6372    rc\n    DCD    1851548530
        0x00008a2c:    66697465    etif    DCD    1718187109
        0x00008a30:    6874655c    \eth    DCD    1752458588
        0x00008a34:    2e707261    arp.    DCD    779121249
        0x00008a38:    00000063    c...    DCD    99
        0x00008a3c:    74617473    stat    DCD    1952543859
        0x00008a40:    3d3d2065    e ==    DCD    1027416165
        0x00008a44:    48544520     ETH    DCD    1213482272
        0x00008a48:    5f505241    ARP_    DCD    1599099457
        0x00008a4c:    54415453    STAT    DCD    1413567571
        0x00008a50:    45505f45    E_PE    DCD    1162895173
        0x00008a54:    4e49444e    NDIN    DCD    1313424462
        0x00008a58:    7c7c2047    G ||    DCD    2088509511
        0x00008a5c:    61747320     sta    DCD    1635021600
        0x00008a60:    3e206574    te >    DCD    1042310516
        0x00008a64:    5445203d    = ET    DCD    1413816381
        0x00008a68:    50524148    HARP    DCD    1347567944
        0x00008a6c:    4154535f    _STA    DCD    1096045407
        0x00008a70:    535f4554    TE_S    DCD    1398752596
        0x00008a74:    4c424154    TABL    DCD    1279410516
        0x00008a78:    00000045    E...    DCD    69
        0x00008a7c:    65737341    Asse    DCD    1702064961
        0x00008a80:    6f697472    rtio    DCD    1869182066
        0x00008a84:    2522206e    n "%    DCD    622993518
        0x00008a88:    66202273    s" f    DCD    1713382003
        0x00008a8c:    656c6961    aile    DCD    1701603681
        0x00008a90:    74612064    d at    DCD    1952522340
        0x00008a94:    6e696c20     lin    DCD    1852402720
        0x00008a98:    64252065    e %d    DCD    1680154725
        0x00008a9c:    206e6920     in     DCD    544106784
        0x00008aa0:    000a7325    %s..    DCD    684837
        0x00008aa4:    5f707261    arp_    DCD    1601204833
        0x00008aa8:    6c626174    tabl    DCD    1818386804
        0x00008aac:    5d695b65    e[i]    DCD    1567185765
        0x00008ab0:    3d20712e    .q =    DCD    1025536302
        0x00008ab4:    554e203d    = NU    DCD    1431183421
        0x00008ab8:    00004c4c    LL..    DCD    19532
        0x00008abc:    203c2069    i <     DCD    540811369
        0x00008ac0:    5f505241    ARP_    DCD    1599099457
        0x00008ac4:    4c424154    TABL    DCD    1279410516
        0x00008ac8:    49535f45    E_SI    DCD    1230200645
        0x00008acc:    0000455a    ZE..    DCD    17754
        0x00008ad0:    5f707261    arp_    DCD    1601204833
        0x00008ad4:    6c626174    tabl    DCD    1818386804
        0x00008ad8:    5d695b65    e[i]    DCD    1567185765
        0x00008adc:    6174732e    .sta    DCD    1635021614
        0x00008ae0:    3d206574    te =    DCD    1025533300
        0x00008ae4:    5445203d    = ET    DCD    1413816381
        0x00008ae8:    50524148    HARP    DCD    1347567944
        0x00008aec:    4154535f    _STA    DCD    1096045407
        0x00008af0:    455f4554    TE_E    DCD    1163871572
        0x00008af4:    5954504d    MPTY    DCD    1498697805
        0x00008af8:    00000000    ....    DCD    0
        0x00008afc:    6974656e    neti    DCD    1769235822
        0x00008b00:    683e2d66    f->h    DCD    1748905318
        0x00008b04:    64646177    wadd    DCD    1684300151
        0x00008b08:    656c5f72    r_le    DCD    1701601138
        0x00008b0c:    3d3d206e    n ==    DCD    1027416174
        0x00008b10:    48544520     ETH    DCD    1213482272
        0x00008b14:    5f505241    ARP_    DCD    1599099457
        0x00008b18:    44415748    HWAD    DCD    1145132872
        0x00008b1c:    4c5f5244    DR_L    DCD    1281315396
        0x00008b20:    00004e45    EN..    DCD    20037
        0x00008b24:    5f687465    eth_    DCD    1600681061
        0x00008b28:    20746572    ret     DCD    544499058
        0x00008b2c:    4e203d21    != N    DCD    1310735649
        0x00008b30:    204c4c55    ULL     DCD    541871189
        0x00008b34:    69202626    && i    DCD    1763714598
        0x00008b38:    65725f70    p_re    DCD    1701994352
        0x00008b3c:    3d212074    t !=    DCD    1025581172
        0x00008b40:    4c554e20     NUL    DCD    1280658976
        0x00008b44:    0000004c    L...    DCD    76
        0x00008b48:    6974656e    neti    DCD    1769235822
        0x00008b4c:    3d212066    f !=    DCD    1025581158
        0x00008b50:    4c554e20     NUL    DCD    1280658976
        0x00008b54:    0000004c    L...    DCD    76
    $t
        0x00008b58:    69aa        .i      LDR      r2,[r5,#0x18]
        0x00008b5a:    4639        9F      MOV      r1,r7
        0x00008b5c:    4628        (F      MOV      r0,r5
        0x00008b5e:    4790        .G      BLX      r2
        0x00008b60:    e003        ..      B        0x8b6a ; etharp_arp_input + 600
        0x00008b62:    4669        iF      MOV      r1,sp
        0x00008b64:    4628        (F      MOV      r0,r5
        0x00008b66:    f7f9facd    ....    BL       dhcp_arp_reply ; 0x2104
        0x00008b6a:    4638        8F      MOV      r0,r7
        0x00008b6c:    f7fafb0e    ....    BL       pbuf_free ; 0x318c
        0x00008b70:    e6eb        ..      B        0x894a ; etharp_arp_input + 56
    etharp_raw
        0x00008b72:    e92d5fff    -.._    PUSH     {r0-r12,lr}
        0x00008b76:    0007        ..      MOVS     r7,r0
        0x00008b78:    f8ddb03c    ..<.    LDR      r11,[sp,#0x3c]
        0x00008b7c:    4689        .F      MOV      r9,r1
        0x00008b7e:    4692        .F      MOV      r10,r2
        0x00008b80:    4698        .F      MOV      r8,r3
        0x00008b82:    d109        ..      BNE      0x8b98 ; etharp_raw + 38
        0x00008b84:    f2af1380    ....    ADR      r3,{pc}-0x17c ; 0x8a08
        0x00008b88:    f24042a5    @..B    MOV      r2,#0x4a5
        0x00008b8c:    f2af0148    ..H.    ADR      r1,{pc}-0x44 ; 0x8b48
        0x00008b90:    f2af1018    ....    ADR      r0,{pc}-0x114 ; 0x8a7c
        0x00008b94:    f000fe00    ....    BL       __0printf$5 ; 0x9798
        0x00008b98:    2200        ."      MOVS     r2,#0
        0x00008b9a:    212a        *!      MOVS     r1,#0x2a
        0x00008b9c:    2003        .       MOVS     r0,#3
        0x00008b9e:    f7fafb3d    ..=.    BL       pbuf_alloc ; 0x321c
        0x00008ba2:    0006        ..      MOVS     r6,r0
        0x00008ba4:    d058        X.      BEQ      0x8c58 ; etharp_raw + 230
        0x00008ba6:    8970        p.      LDRH     r0,[r6,#0xa]
        0x00008ba8:    282a        *(      CMP      r0,#0x2a
        0x00008baa:    d208        ..      BCS      0x8bbe ; etharp_raw + 76
        0x00008bac:    f2af13a8    ....    ADR      r3,{pc}-0x1a4 ; 0x8a08
        0x00008bb0:    f44f6296    O..b    MOV      r2,#0x4b0
        0x00008bb4:    a1fa        ..      ADR      r1,{pc}+0x3ec ; 0x8fa0
        0x00008bb6:    f2af103c    ..<.    ADR      r0,{pc}-0x13a ; 0x8a7c
        0x00008bba:    f000fded    ....    BL       __0printf$5 ; 0x9798
        0x00008bbe:    6875        uh      LDR      r5,[r6,#4]
        0x00008bc0:    9811        ..      LDR      r0,[sp,#0x44]
        0x00008bc2:    f105040e    ....    ADD      r4,r5,#0xe
        0x00008bc6:    f7f8f8c5    ....    BL       lwip_htons ; 0xd54
        0x00008bca:    80e0        ..      STRH     r0,[r4,#6]
        0x00008bcc:    f8970026    ..&.    LDRB     r0,[r7,#0x26]
        0x00008bd0:    2806        .(      CMP      r0,#6
        0x00008bd2:    d008        ..      BEQ      0x8be6 ; etharp_raw + 116
        0x00008bd4:    f2af13d0    ....    ADR      r3,{pc}-0x1cc ; 0x8a08
        0x00008bd8:    49fe        .I      LDR      r1,[pc,#1016] ; [0x8fd4] = 0x9c24
        0x00008bda:    f44f6297    O..b    MOV      r2,#0x4b8
        0x00008bde:    f2af1064    ..d.    ADR      r0,{pc}-0x162 ; 0x8a7c
        0x00008be2:    f000fdd9    ....    BL       __0printf$5 ; 0x9798
        0x00008be6:    f8d80000    ....    LDR      r0,[r8,#0]
        0x00008bea:    60a0        .`      STR      r0,[r4,#8]
        0x00008bec:    f8b80004    ....    LDRH     r0,[r8,#4]
        0x00008bf0:    81a0        ..      STRH     r0,[r4,#0xc]
        0x00008bf2:    f8db0000    ....    LDR      r0,[r11,#0]
        0x00008bf6:    f8c40012    ....    STR      r0,[r4,#0x12]
        0x00008bfa:    f8bb0004    ....    LDRH     r0,[r11,#4]
        0x00008bfe:    82e0        ..      STRH     r0,[r4,#0x16]
        0x00008c00:    f8da0000    ....    LDR      r0,[r10,#0]
        0x00008c04:    6028        (`      STR      r0,[r5,#0]
        0x00008c06:    f8ba0004    ....    LDRH     r0,[r10,#4]
        0x00008c0a:    80a8        ..      STRH     r0,[r5,#4]
        0x00008c0c:    f8d90000    ....    LDR      r0,[r9,#0]
        0x00008c10:    f8c50006    ....    STR      r0,[r5,#6]
        0x00008c14:    f8b90004    ....    LDRH     r0,[r9,#4]
        0x00008c18:    8168        h.      STRH     r0,[r5,#0xa]
        0x00008c1a:    980e        ..      LDR      r0,[sp,#0x38]
        0x00008c1c:    4631        1F      MOV      r1,r6
        0x00008c1e:    6800        .h      LDR      r0,[r0,#0]
        0x00008c20:    f8c4000e    ....    STR      r0,[r4,#0xe]
        0x00008c24:    9810        ..      LDR      r0,[sp,#0x40]
        0x00008c26:    6800        .h      LDR      r0,[r0,#0]
        0x00008c28:    61a0        .a      STR      r0,[r4,#0x18]
        0x00008c2a:    f44f7080    O..p    MOV      r0,#0x100
        0x00008c2e:    8020         .      STRH     r0,[r4,#0]
        0x00008c30:    2008        .       MOVS     r0,#8
        0x00008c32:    8060        `.      STRH     r0,[r4,#2]
        0x00008c34:    2006        .       MOVS     r0,#6
        0x00008c36:    7120         q      STRB     r0,[r4,#4]
        0x00008c38:    2004        .       MOVS     r0,#4
        0x00008c3a:    7160        `q      STRB     r0,[r4,#5]
        0x00008c3c:    f44f60c1    O..`    MOV      r0,#0x608
        0x00008c40:    81a8        ..      STRH     r0,[r5,#0xc]
        0x00008c42:    69ba        .i      LDR      r2,[r7,#0x18]
        0x00008c44:    4638        8F      MOV      r0,r7
        0x00008c46:    4790        .G      BLX      r2
        0x00008c48:    4604        .F      MOV      r4,r0
        0x00008c4a:    4630        0F      MOV      r0,r6
        0x00008c4c:    f7fafa9e    ....    BL       pbuf_free ; 0x318c
        0x00008c50:    4620         F      MOV      r0,r4
        0x00008c52:    b004        ..      ADD      sp,sp,#0x10
        0x00008c54:    e8bd9ff0    ....    POP      {r4-r12,pc}
        0x00008c58:    f04f30ff    O..0    MOV      r0,#0xffffffff
        0x00008c5c:    e7f9        ..      B        0x8c52 ; etharp_raw + 224
    etharp_request
        0x00008c5e:    b51f        ..      PUSH     {r0-r4,lr}
        0x00008c60:    460a        .F      MOV      r2,r1
        0x00008c62:    49dc        .I      LDR      r1,[pc,#880] ; [0x8fd4] = 0x9c24
        0x00008c64:    4684        .F      MOV      r12,r0
        0x00008c66:    2301        .#      MOVS     r3,#1
        0x00008c68:    1f89        ..      SUBS     r1,r1,#6
        0x00008c6a:    1d00        ..      ADDS     r0,r0,#4
        0x00008c6c:    e88d000f    ....    STM      sp,{r0-r3}
        0x00008c70:    4ad8        .J      LDR      r2,[pc,#864] ; [0x8fd4] = 0x9c24
        0x00008c72:    f10c0327    ..'.    ADD      r3,r12,#0x27
        0x00008c76:    4619        .F      MOV      r1,r3
        0x00008c78:    3a0c        .:      SUBS     r2,r2,#0xc
        0x00008c7a:    4660        `F      MOV      r0,r12
        0x00008c7c:    f7ffff79    ..y.    BL       etharp_raw ; 0x8b72
        0x00008c80:    b004        ..      ADD      sp,sp,#0x10
        0x00008c82:    bd10        ..      POP      {r4,pc}
    etharp_output_to_arp_index
        0x00008c84:    b570        p.      PUSH     {r4-r6,lr}
        0x00008c86:    4605        .F      MOV      r5,r0
        0x00008c88:    460e        .F      MOV      r6,r1
        0x00008c8a:    48d3        .H      LDR      r0,[pc,#844] ; [0x8fd8] = 0x200071fc
        0x00008c8c:    eb020182    ....    ADD      r1,r2,r2,LSL #2
        0x00008c90:    eb000481    ....    ADD      r4,r0,r1,LSL #2
        0x00008c94:    7ca0        .|      LDRB     r0,[r4,#0x12]
        0x00008c96:    2802        .(      CMP      r0,#2
        0x00008c98:    d208        ..      BCS      0x8cac ; etharp_output_to_arp_index + 40
        0x00008c9a:    f2af2394    ...#    ADR      r3,{pc}-0x292 ; 0x8a08
        0x00008c9e:    f44f7253    O.Sr    MOV      r2,#0x34c
        0x00008ca2:    a1ce        ..      ADR      r1,{pc}+0x33a ; 0x8fdc
        0x00008ca4:    f2af202c    ..,     ADR      r0,{pc}-0x228 ; 0x8a7c
        0x00008ca8:    f000fd76    ..v.    BL       __0printf$5 ; 0x9798
        0x00008cac:    7ca0        .|      LDRB     r0,[r4,#0x12]
        0x00008cae:    2802        .(      CMP      r0,#2
        0x00008cb0:    d109        ..      BNE      0x8cc6 ; etharp_output_to_arp_index + 66
        0x00008cb2:    7ce0        .|      LDRB     r0,[r4,#0x13]
        0x00008cb4:    28e4        .(      CMP      r0,#0xe4
        0x00008cb6:    d306        ..      BCC      0x8cc6 ; etharp_output_to_arp_index + 66
        0x00008cb8:    1d21        !.      ADDS     r1,r4,#4
        0x00008cba:    4628        (F      MOV      r0,r5
        0x00008cbc:    f7ffffcf    ....    BL       etharp_request ; 0x8c5e
        0x00008cc0:    b908        ..      CBNZ     r0,0x8cc6 ; etharp_output_to_arp_index + 66
        0x00008cc2:    2003        .       MOVS     r0,#3
        0x00008cc4:    74a0        .t      STRB     r0,[r4,#0x12]
        0x00008cc6:    f104030c    ....    ADD      r3,r4,#0xc
        0x00008cca:    f1050227    ..'.    ADD      r2,r5,#0x27
        0x00008cce:    4631        1F      MOV      r1,r6
        0x00008cd0:    4628        (F      MOV      r0,r5
        0x00008cd2:    e8bd4070    ..p@    POP      {r4-r6,lr}
        0x00008cd6:    e578        x.      B        etharp_send_ip ; 0x87ca
    etharp_query
        0x00008cd8:    e92d5ff0    -.._    PUSH     {r4-r12,lr}
        0x00008cdc:    4682        .F      MOV      r10,r0
        0x00008cde:    f1000b27    ..'.    ADD      r11,r0,#0x27
        0x00008ce2:    4688        .F      MOV      r8,r1
        0x00008ce4:    6808        .h      LDR      r0,[r1,#0]
        0x00008ce6:    4617        .F      MOV      r7,r2
        0x00008ce8:    f04f34ff    O..4    MOV      r4,#0xffffffff
        0x00008cec:    4651        QF      MOV      r1,r10
        0x00008cee:    f7fff83b    ..;.    BL       ip4_addr_isbroadcast ; 0x7d68
        0x00008cf2:    bb40        @.      CBNZ     r0,0x8d46 ; etharp_query + 110
        0x00008cf4:    f8d80000    ....    LDR      r0,[r8,#0]
        0x00008cf8:    f3c01103    ....    UBFX     r1,r0,#4,#4
        0x00008cfc:    290e        .)      CMP      r1,#0xe
        0x00008cfe:    d022        ".      BEQ      0x8d46 ; etharp_query + 110
        0x00008d00:    f1b80f00    ....    CMP      r8,#0
        0x00008d04:    d01f        ..      BEQ      0x8d46 ; etharp_query + 110
        0x00008d06:    b1f0        ..      CBZ      r0,0x8d46 ; etharp_query + 110
        0x00008d08:    2101        .!      MOVS     r1,#1
        0x00008d0a:    4640        @F      MOV      r0,r8
        0x00008d0c:    f7fffcb0    ....    BL       etharp_find_entry ; 0x8670
        0x00008d10:    1e06        ..      SUBS     r6,r0,#0
        0x00008d12:    db9f        ..      BLT      0x8c54 ; etharp_raw + 226
        0x00008d14:    48b0        .H      LDR      r0,[pc,#704] ; [0x8fd8] = 0x200071fc
        0x00008d16:    eb060986    ....    ADD      r9,r6,r6,LSL #2
        0x00008d1a:    eb000589    ....    ADD      r5,r0,r9,LSL #2
        0x00008d1e:    7ca8        .|      LDRB     r0,[r5,#0x12]
        0x00008d20:    b1a0        ..      CBZ      r0,0x8d4c ; etharp_query + 116
        0x00008d22:    2801        .(      CMP      r0,#1
        0x00008d24:    d014        ..      BEQ      0x8d50 ; etharp_query + 120
        0x00008d26:    2802        .(      CMP      r0,#2
        0x00008d28:    d20b        ..      BCS      0x8d42 ; etharp_query + 106
        0x00008d2a:    f2af3324    ..$3    ADR      r3,{pc}-0x322 ; 0x8a08
        0x00008d2e:    f2404219    @..B    MOV      r2,#0x419
        0x00008d32:    a1b6        ..      ADR      r1,{pc}+0x2da ; 0x900c
        0x00008d34:    f2af20bc    ...     ADR      r0,{pc}-0x2b8 ; 0x8a7c
        0x00008d38:    f000fd2e    ....    BL       __0printf$5 ; 0x9798
        0x00008d3c:    7ca8        .|      LDRB     r0,[r5,#0x12]
        0x00008d3e:    2801        .(      CMP      r0,#1
        0x00008d40:    d006        ..      BEQ      0x8d50 ; etharp_query + 120
        0x00008d42:    b12f        /.      CBZ      r7,0x8d50 ; etharp_query + 120
        0x00008d44:    e00b        ..      B        0x8d5e ; etharp_query + 134
        0x00008d46:    f06f000d    o...    MVN      r0,#0xd
        0x00008d4a:    e783        ..      B        0x8c54 ; etharp_raw + 226
        0x00008d4c:    2001        .       MOVS     r0,#1
        0x00008d4e:    74a8        .t      STRB     r0,[r5,#0x12]
        0x00008d50:    4641        AF      MOV      r1,r8
        0x00008d52:    4650        PF      MOV      r0,r10
        0x00008d54:    f7ffff83    ....    BL       etharp_request ; 0x8c5e
        0x00008d58:    4604        .F      MOV      r4,r0
        0x00008d5a:    2f00        ./      CMP      r7,#0
        0x00008d5c:    d0f5        ..      BEQ      0x8d4a ; etharp_query + 114
        0x00008d5e:    7ca8        .|      LDRB     r0,[r5,#0x12]
        0x00008d60:    f8df8274    ..t.    LDR      r8,[pc,#628] ; [0x8fd8] = 0x200071fc
        0x00008d64:    2802        .(      CMP      r0,#2
        0x00008d66:    d30a        ..      BCC      0x8d7e ; etharp_query + 166
        0x00008d68:    48b2        .H      LDR      r0,[pc,#712] ; [0x9034] = 0x200000e4
        0x00008d6a:    f105030c    ....    ADD      r3,r5,#0xc
        0x00008d6e:    465a        ZF      MOV      r2,r11
        0x00008d70:    7006        .p      STRB     r6,[r0,#0]
        0x00008d72:    4639        9F      MOV      r1,r7
        0x00008d74:    4650        PF      MOV      r0,r10
        0x00008d76:    f7fffd28    ..(.    BL       etharp_send_ip ; 0x87ca
        0x00008d7a:    4604        .F      MOV      r4,r0
        0x00008d7c:    e039        9.      B        0x8df2 ; etharp_query + 282
        0x00008d7e:    2801        .(      CMP      r0,#1
        0x00008d80:    d137        7.      BNE      0x8df2 ; etharp_query + 282
        0x00008d82:    2500        .%      MOVS     r5,#0
        0x00008d84:    463c        <F      MOV      r4,r7
        0x00008d86:    f240463e    @.>F    MOV      r6,#0x43e
        0x00008d8a:    8960        `.      LDRH     r0,[r4,#0xa]
        0x00008d8c:    8921        !.      LDRH     r1,[r4,#8]
        0x00008d8e:    4288        .B      CMP      r0,r1
        0x00008d90:    d109        ..      BNE      0x8da6 ; etharp_query + 206
        0x00008d92:    6820         h      LDR      r0,[r4,#0]
        0x00008d94:    b138        8.      CBZ      r0,0x8da6 ; etharp_query + 206
        0x00008d96:    f2af3390    ...3    ADR      r3,{pc}-0x38e ; 0x8a08
        0x00008d9a:    4632        2F      MOV      r2,r6
        0x00008d9c:    a1a6        ..      ADR      r1,{pc}+0x29c ; 0x9038
        0x00008d9e:    f2af3024    ..$0    ADR      r0,{pc}-0x322 ; 0x8a7c
        0x00008da2:    f000fcf9    ....    BL       __0printf$5 ; 0x9798
        0x00008da6:    7b20         {      LDRB     r0,[r4,#0xc]
        0x00008da8:    2801        .(      CMP      r0,#1
        0x00008daa:    d103        ..      BNE      0x8db4 ; etharp_query + 220
        0x00008dac:    6824        $h      LDR      r4,[r4,#0]
        0x00008dae:    2c00        .,      CMP      r4,#0
        0x00008db0:    d1eb        ..      BNE      0x8d8a ; etharp_query + 178
        0x00008db2:    b175        u.      CBZ      r5,0x8dd2 ; etharp_query + 250
        0x00008db4:    8921        !.      LDRH     r1,[r4,#8]
        0x00008db6:    2200        ."      MOVS     r2,#0
        0x00008db8:    2003        .       MOVS     r0,#3
        0x00008dba:    f7fafa2f    ../.    BL       pbuf_alloc ; 0x321c
        0x00008dbe:    0005        ..      MOVS     r5,r0
        0x00008dc0:    d015        ..      BEQ      0x8dee ; etharp_query + 278
        0x00008dc2:    4639        9F      MOV      r1,r7
        0x00008dc4:    f7fafd77    ..w.    BL       pbuf_copy ; 0x38b6
        0x00008dc8:    b140        @.      CBZ      r0,0x8ddc ; etharp_query + 260
        0x00008dca:    4628        (F      MOV      r0,r5
        0x00008dcc:    f7faf9de    ....    BL       pbuf_free ; 0x318c
        0x00008dd0:    e00d        ..      B        0x8dee ; etharp_query + 278
        0x00008dd2:    463d        =F      MOV      r5,r7
        0x00008dd4:    4638        8F      MOV      r0,r7
        0x00008dd6:    f7fafcf8    ....    BL       pbuf_ref ; 0x37ca
        0x00008dda:    b145        E.      CBZ      r5,0x8dee ; etharp_query + 278
        0x00008ddc:    f8580029    X.).    LDR      r0,[r8,r9,LSL #2]
        0x00008de0:    b108        ..      CBZ      r0,0x8de6 ; etharp_query + 270
        0x00008de2:    f7faf9d3    ....    BL       pbuf_free ; 0x318c
        0x00008de6:    f8485029    H.)P    STR      r5,[r8,r9,LSL #2]
        0x00008dea:    2400        .$      MOVS     r4,#0
        0x00008dec:    e001        ..      B        0x8df2 ; etharp_query + 282
        0x00008dee:    f04f34ff    O..4    MOV      r4,#0xffffffff
        0x00008df2:    4620         F      MOV      r0,r4
        0x00008df4:    e72e        ..      B        0x8c54 ; etharp_raw + 226
    etharp_output
        0x00008df6:    e92d41fc    -..A    PUSH     {r2-r8,lr}
        0x00008dfa:    0004        ..      MOVS     r4,r0
        0x00008dfc:    460e        .F      MOV      r6,r1
        0x00008dfe:    4615        .F      MOV      r5,r2
        0x00008e00:    d109        ..      BNE      0x8e16 ; etharp_output + 32
        0x00008e02:    f2af33fc    ...3    ADR      r3,{pc}-0x3fa ; 0x8a08
        0x00008e06:    f2403275    @.u2    MOV      r2,#0x375
        0x00008e0a:    f2af21c4    ...!    ADR      r1,{pc}-0x2c2 ; 0x8b48
        0x00008e0e:    f2af3094    ...0    ADR      r0,{pc}-0x392 ; 0x8a7c
        0x00008e12:    f000fcc1    ....    BL       __0printf$5 ; 0x9798
        0x00008e16:    b946        F.      CBNZ     r6,0x8e2a ; etharp_output + 52
        0x00008e18:    f2af4314    ...C    ADR      r3,{pc}-0x410 ; 0x8a08
        0x00008e1c:    f2403276    @.v2    MOV      r2,#0x376
        0x00008e20:    a18c        ..      ADR      r1,{pc}+0x234 ; 0x9054
        0x00008e22:    f2af30a8    ...0    ADR      r0,{pc}-0x3a6 ; 0x8a7c
        0x00008e26:    f000fcb7    ....    BL       __0printf$5 ; 0x9798
        0x00008e2a:    b945        E.      CBNZ     r5,0x8e3e ; etharp_output + 72
        0x00008e2c:    f2af4328    ..(C    ADR      r3,{pc}-0x424 ; 0x8a08
        0x00008e30:    f2403277    @.w2    MOV      r2,#0x377
        0x00008e34:    a18a        ..      ADR      r1,{pc}+0x22c ; 0x9060
        0x00008e36:    f2af30bc    ...0    ADR      r0,{pc}-0x3ba ; 0x8a7c
        0x00008e3a:    f000fcad    ....    BL       __0printf$5 ; 0x9798
        0x00008e3e:    210e        .!      MOVS     r1,#0xe
        0x00008e40:    4630        0F      MOV      r0,r6
        0x00008e42:    f7fafb33    ..3.    BL       pbuf_header ; 0x34ac
        0x00008e46:    b118        ..      CBZ      r0,0x8e50 ; etharp_output + 90
        0x00008e48:    f06f0001    o...    MVN      r0,#1
        0x00008e4c:    e8bd81fc    ....    POP      {r2-r8,pc}
        0x00008e50:    4621        !F      MOV      r1,r4
        0x00008e52:    6828        (h      LDR      r0,[r5,#0]
        0x00008e54:    f7feff88    ....    BL       ip4_addr_isbroadcast ; 0x7d68
        0x00008e58:    b110        ..      CBZ      r0,0x8e60 ; etharp_output + 106
        0x00008e5a:    4b5e        ^K      LDR      r3,[pc,#376] ; [0x8fd4] = 0x9c24
        0x00008e5c:    3b0c        .;      SUBS     r3,r3,#0xc
        0x00008e5e:    e03c        <.      B        0x8eda ; etharp_output + 228
        0x00008e60:    6828        (h      LDR      r0,[r5,#0]
        0x00008e62:    f3c01103    ....    UBFX     r1,r0,#4,#4
        0x00008e66:    290e        .)      CMP      r1,#0xe
        0x00008e68:    d022        ".      BEQ      0x8eb0 ; etharp_output + 186
        0x00008e6a:    68a1        .h      LDR      r1,[r4,#8]
        0x00008e6c:    6863        ch      LDR      r3,[r4,#4]
        0x00008e6e:    ea000201    ....    AND      r2,r0,r1
        0x00008e72:    400b        .@      ANDS     r3,r3,r1
        0x00008e74:    429a        .B      CMP      r2,r3
        0x00008e76:    d00b        ..      BEQ      0x8e90 ; etharp_output + 154
        0x00008e78:    b280        ..      UXTH     r0,r0
        0x00008e7a:    f5a0417e    ..~A    SUB      r1,r0,#0xfe00
        0x00008e7e:    39a9        .9      SUBS     r1,r1,#0xa9
        0x00008e80:    d006        ..      BEQ      0x8e90 ; etharp_output + 154
        0x00008e82:    f114000c    ....    ADDS     r0,r4,#0xc
        0x00008e86:    d02f        /.      BEQ      0x8ee8 ; etharp_output + 242
        0x00008e88:    68e0        .h      LDR      r0,[r4,#0xc]
        0x00008e8a:    b368        h.      CBZ      r0,0x8ee8 ; etharp_output + 242
        0x00008e8c:    f104050c    ....    ADD      r5,r4,#0xc
        0x00008e90:    4b68        hK      LDR      r3,[pc,#416] ; [0x9034] = 0x200000e4
        0x00008e92:    4a51        QJ      LDR      r2,[pc,#324] ; [0x8fd8] = 0x200071fc
        0x00008e94:    7818        .x      LDRB     r0,[r3,#0]
        0x00008e96:    eb000180    ....    ADD      r1,r0,r0,LSL #2
        0x00008e9a:    eb020181    ....    ADD      r1,r2,r1,LSL #2
        0x00008e9e:    7c8f        .|      LDRB     r7,[r1,#0x12]
        0x00008ea0:    2f02        ./      CMP      r7,#2
        0x00008ea2:    d324        $.      BCC      0x8eee ; etharp_output + 248
        0x00008ea4:    682f        /h      LDR      r7,[r5,#0]
        0x00008ea6:    6849        Ih      LDR      r1,[r1,#4]
        0x00008ea8:    428f        .B      CMP      r7,r1
        0x00008eaa:    d120         .      BNE      0x8eee ; etharp_output + 248
        0x00008eac:    4602        .F      MOV      r2,r0
        0x00008eae:    e02c        ,.      B        0x8f0a ; etharp_output + 276
        0x00008eb0:    2001        .       MOVS     r0,#1
        0x00008eb2:    f88d0000    ....    STRB     r0,[sp,#0]
        0x00008eb6:    2000        .       MOVS     r0,#0
        0x00008eb8:    f88d0001    ....    STRB     r0,[sp,#1]
        0x00008ebc:    205e        ^       MOVS     r0,#0x5e
        0x00008ebe:    f88d0002    ....    STRB     r0,[sp,#2]
        0x00008ec2:    7868        hx      LDRB     r0,[r5,#1]
        0x00008ec4:    466b        kF      MOV      r3,sp
        0x00008ec6:    f000007f    ....    AND      r0,r0,#0x7f
        0x00008eca:    f88d0003    ....    STRB     r0,[sp,#3]
        0x00008ece:    78a8        .x      LDRB     r0,[r5,#2]
        0x00008ed0:    f88d0004    ....    STRB     r0,[sp,#4]
        0x00008ed4:    78e8        .x      LDRB     r0,[r5,#3]
        0x00008ed6:    f88d0005    ....    STRB     r0,[sp,#5]
        0x00008eda:    f1040227    ..'.    ADD      r2,r4,#0x27
        0x00008ede:    4631        1F      MOV      r1,r6
        0x00008ee0:    4620         F      MOV      r0,r4
        0x00008ee2:    f7fffc72    ..r.    BL       etharp_send_ip ; 0x87ca
        0x00008ee6:    e7b1        ..      B        0x8e4c ; etharp_output + 86
        0x00008ee8:    f06f0003    o...    MVN      r0,#3
        0x00008eec:    e7ae        ..      B        0x8e4c ; etharp_output + 86
        0x00008eee:    2000        .       MOVS     r0,#0
        0x00008ef0:    eb000180    ....    ADD      r1,r0,r0,LSL #2
        0x00008ef4:    eb020181    ....    ADD      r1,r2,r1,LSL #2
        0x00008ef8:    7c8f        .|      LDRB     r7,[r1,#0x12]
        0x00008efa:    2f02        ./      CMP      r7,#2
        0x00008efc:    d30a        ..      BCC      0x8f14 ; etharp_output + 286
        0x00008efe:    682f        /h      LDR      r7,[r5,#0]
        0x00008f00:    6849        Ih      LDR      r1,[r1,#4]
        0x00008f02:    428f        .B      CMP      r7,r1
        0x00008f04:    d106        ..      BNE      0x8f14 ; etharp_output + 286
        0x00008f06:    b2c2        ..      UXTB     r2,r0
        0x00008f08:    701a        .p      STRB     r2,[r3,#0]
        0x00008f0a:    4631        1F      MOV      r1,r6
        0x00008f0c:    4620         F      MOV      r0,r4
        0x00008f0e:    f7fffeb9    ....    BL       etharp_output_to_arp_index ; 0x8c84
        0x00008f12:    e79b        ..      B        0x8e4c ; etharp_output + 86
        0x00008f14:    1c40        @.      ADDS     r0,r0,#1
        0x00008f16:    b240        @.      SXTB     r0,r0
        0x00008f18:    280a        .(      CMP      r0,#0xa
        0x00008f1a:    dbe9        ..      BLT      0x8ef0 ; etharp_output + 250
        0x00008f1c:    4632        2F      MOV      r2,r6
        0x00008f1e:    4629        )F      MOV      r1,r5
        0x00008f20:    4620         F      MOV      r0,r4
        0x00008f22:    f7fffed9    ....    BL       etharp_query ; 0x8cd8
        0x00008f26:    e791        ..      B        0x8e4c ; etharp_output + 86
    ethernet_input
        0x00008f28:    b570        p.      PUSH     {r4-r6,lr}
        0x00008f2a:    4604        .F      MOV      r4,r0
        0x00008f2c:    8940        @.      LDRH     r0,[r0,#0xa]
        0x00008f2e:    460d        .F      MOV      r5,r1
        0x00008f30:    280e        .(      CMP      r0,#0xe
        0x00008f32:    d933        3.      BLS      0x8f9c ; ethernet_input + 116
        0x00008f34:    6860        `h      LDR      r0,[r4,#4]
        0x00008f36:    7801        .x      LDRB     r1,[r0,#0]
        0x00008f38:    8986        ..      LDRH     r6,[r0,#0xc]
        0x00008f3a:    07ca        ..      LSLS     r2,r1,#31
        0x00008f3c:    d015        ..      BEQ      0x8f6a ; ethernet_input + 66
        0x00008f3e:    2901        .)      CMP      r1,#1
        0x00008f40:    d006        ..      BEQ      0x8f50 ; ethernet_input + 40
        0x00008f42:    4924        $I      LDR      r1,[pc,#144] ; [0x8fd4] = 0x9c24
        0x00008f44:    2206        ."      MOVS     r2,#6
        0x00008f46:    390c        .9      SUBS     r1,r1,#0xc
        0x00008f48:    f000fbe8    ....    BL       memcmp ; 0x971c
        0x00008f4c:    b148        H.      CBZ      r0,0x8f62 ; ethernet_input + 58
        0x00008f4e:    e00c        ..      B        0x8f6a ; ethernet_input + 66
        0x00008f50:    7841        Ax      LDRB     r1,[r0,#1]
        0x00008f52:    b951        Q.      CBNZ     r1,0x8f6a ; ethernet_input + 66
        0x00008f54:    7880        .x      LDRB     r0,[r0,#2]
        0x00008f56:    285e        ^(      CMP      r0,#0x5e
        0x00008f58:    d107        ..      BNE      0x8f6a ; ethernet_input + 66
        0x00008f5a:    7b60        `{      LDRB     r0,[r4,#0xd]
        0x00008f5c:    f0400010    @...    ORR      r0,r0,#0x10
        0x00008f60:    e002        ..      B        0x8f68 ; ethernet_input + 64
        0x00008f62:    7b60        `{      LDRB     r0,[r4,#0xd]
        0x00008f64:    f0400008    @...    ORR      r0,r0,#8
        0x00008f68:    7360        `s      STRB     r0,[r4,#0xd]
        0x00008f6a:    2e08        ..      CMP      r6,#8
        0x00008f6c:    d003        ..      BEQ      0x8f76 ; ethernet_input + 78
        0x00008f6e:    f5b66fc1    ...o    CMP      r6,#0x608
        0x00008f72:    d113        ..      BNE      0x8f9c ; ethernet_input + 116
        0x00008f74:    e093        ..      B        0x909e ; ethernet_input + 374
        0x00008f76:    f895002d    ..-.    LDRB     r0,[r5,#0x2d]
        0x00008f7a:    0680        ..      LSLS     r0,r0,#26
        0x00008f7c:    d50e        ..      BPL      0x8f9c ; ethernet_input + 116
        0x00008f7e:    f06f010d    o...    MVN      r1,#0xd
        0x00008f82:    4620         F      MOV      r0,r4
        0x00008f84:    f7fafa92    ....    BL       pbuf_header ; 0x34ac
        0x00008f88:    b148        H.      CBZ      r0,0x8f9e ; ethernet_input + 118
        0x00008f8a:    f2af5384    ...S    ADR      r3,{pc}-0x582 ; 0x8a08
        0x00008f8e:    f240524f    @.OR    MOV      r2,#0x54f
        0x00008f92:    a137        7.      ADR      r1,{pc}+0xde ; 0x9070
        0x00008f94:    f2af501c    ...P    ADR      r0,{pc}-0x518 ; 0x8a7c
        0x00008f98:    f000fbfe    ....    BL       __0printf$5 ; 0x9798
        0x00008f9c:    e08b        ..      B        0x90b6 ; ethernet_input + 398
        0x00008f9e:    e079        y.      B        0x9094 ; ethernet_input + 364
    $d
        0x00008fa0:    63656863    chec    DCD    1667590243
        0x00008fa4:    6874206b    k th    DCD    1752440939
        0x00008fa8:    66207461    at f    DCD    1713402977
        0x00008fac:    74737269    irst    DCD    1953722985
        0x00008fb0:    75627020     pbu    DCD    1969385504
        0x00008fb4:    61632066    f ca    DCD    1633886310
        0x00008fb8:    6f68206e    n ho    DCD    1869095022
        0x00008fbc:    7320646c    ld s    DCD    1931502700
        0x00008fc0:    63757274    truc    DCD    1668641396
        0x00008fc4:    74652074    t et    DCD    1952784500
        0x00008fc8:    70726168    harp    DCD    1886544232
        0x00008fcc:    7264685f    _hdr    DCD    1919182943
        0x00008fd0:    00000000    ....    DCD    0
        0x00008fd4:    00009c24    $...    DCD    39972
        0x00008fd8:    200071fc    .q.     DCD    536900092
        0x00008fdc:    5f707261    arp_    DCD    1601204833
        0x00008fe0:    6c626174    tabl    DCD    1818386804
        0x00008fe4:    72615b65    e[ar    DCD    1918983013
        0x00008fe8:    64695f70    p_id    DCD    1684627312
        0x00008fec:    732e5d78    x].s    DCD    1932418424
        0x00008ff0:    65746174    tate    DCD    1702125940
        0x00008ff4:    203d3e20     >=     DCD    540884512
        0x00008ff8:    41485445    ETHA    DCD    1095259205
        0x00008ffc:    535f5052    RP_S    DCD    1398755410
        0x00009000:    45544154    TATE    DCD    1163149652
        0x00009004:    4154535f    _STA    DCD    1096045407
        0x00009008:    00454c42    BLE.    DCD    4541506
        0x0000900c:    5f707261    arp_    DCD    1601204833
        0x00009010:    6c626174    tabl    DCD    1818386804
        0x00009014:    5d695b65    e[i]    DCD    1567185765
        0x00009018:    6174732e    .sta    DCD    1635021614
        0x0000901c:    3d206574    te =    DCD    1025533300
        0x00009020:    4550203d    = PE    DCD    1162879037
        0x00009024:    4e49444e    NDIN    DCD    1313424462
        0x00009028:    726f2047    G or    DCD    1919885383
        0x0000902c:    41545320     STA    DCD    1096045344
        0x00009030:    00454c42    BLE.    DCD    4541506
        0x00009034:    200000e4    ...     DCD    536871140
        0x00009038:    70206f6e    no p    DCD    1881173870
        0x0000903c:    656b6361    acke    DCD    1701536609
        0x00009040:    75712074    t qu    DCD    1970348148
        0x00009044:    73657565    eues    DCD    1936029029
        0x00009048:    6c6c6120     all    DCD    1819042080
        0x0000904c:    6465776f    owed    DCD    1684371311
        0x00009050:    00000021    !...    DCD    33
        0x00009054:    3d212071    q !=    DCD    1025581169
        0x00009058:    4c554e20     NUL    DCD    1280658976
        0x0000905c:    0000004c    L...    DCD    76
        0x00009060:    64617069    ipad    DCD    1684107369
        0x00009064:    21207264    dr !    DCD    555774564
        0x00009068:    554e203d    = NU    DCD    1431183421
        0x0000906c:    00004c4c    LL..    DCD    19532
        0x00009070:    276e6143    Can'    DCD    661545283
        0x00009074:    6f6d2074    t mo    DCD    1869422708
        0x00009078:    6f206576    ve o    DCD    1864394102
        0x0000907c:    20726576    ver     DCD    544367990
        0x00009080:    64616568    head    DCD    1684104552
        0x00009084:    69207265    er i    DCD    1763734117
        0x00009088:    6170206e    n pa    DCD    1634738286
        0x0000908c:    74656b63    cket    DCD    1952803683
        0x00009090:    00000000    ....    DCD    0
    $t
        0x00009094:    4629        )F      MOV      r1,r5
        0x00009096:    4620         F      MOV      r0,r4
        0x00009098:    f7fefcc5    ....    BL       ip_input ; 0x7a26
        0x0000909c:    e009        ..      B        0x90b2 ; ethernet_input + 394
        0x0000909e:    f895002d    ..-.    LDRB     r0,[r5,#0x2d]
        0x000090a2:    0680        ..      LSLS     r0,r0,#26
        0x000090a4:    d507        ..      BPL      0x90b6 ; ethernet_input + 398
        0x000090a6:    4622        "F      MOV      r2,r4
        0x000090a8:    f1050127    ..'.    ADD      r1,r5,#0x27
        0x000090ac:    4628        (F      MOV      r0,r5
        0x000090ae:    f7fffc30    ..0.    BL       etharp_arp_input ; 0x8912
        0x000090b2:    2000        .       MOVS     r0,#0
        0x000090b4:    bd70        p.      POP      {r4-r6,pc}
        0x000090b6:    4620         F      MOV      r0,r4
        0x000090b8:    f7faf868    ..h.    BL       pbuf_free ; 0x318c
        0x000090bc:    e7f9        ..      B        0x90b2 ; ethernet_input + 394
        0x000090be:    0000        ..      MOVS     r0,r0
    .text
    low_level_output
        0x000090c0:    e92d41f0    -..A    PUSH     {r4-r8,lr}
        0x000090c4:    460f        .F      MOV      r7,r1
        0x000090c6:    2500        .%      MOVS     r5,#0
        0x000090c8:    f000f9c0    ....    BL       ETH_get_tx_buf ; 0x944c
        0x000090cc:    0006        ..      MOVS     r6,r0
        0x000090ce:    d001        ..      BEQ      0x90d4 ; low_level_output + 20
        0x000090d0:    463c        <F      MOV      r4,r7
        0x000090d2:    e00c        ..      B        0x90ee ; low_level_output + 46
        0x000090d4:    f04f30ff    O..0    MOV      r0,#0xffffffff
        0x000090d8:    e8bd81f0    ....    POP      {r4-r8,pc}
        0x000090dc:    8962        b.      LDRH     r2,[r4,#0xa]
        0x000090de:    1970        p.      ADDS     r0,r6,r5
        0x000090e0:    6861        ah      LDR      r1,[r4,#4]
        0x000090e2:    f000fae0    ....    BL       __aeabi_memcpy ; 0x96a6
        0x000090e6:    8960        `.      LDRH     r0,[r4,#0xa]
        0x000090e8:    6824        $h      LDR      r4,[r4,#0]
        0x000090ea:    4428        (D      ADD      r0,r0,r5
        0x000090ec:    b285        ..      UXTH     r5,r0
        0x000090ee:    2c00        .,      CMP      r4,#0
        0x000090f0:    d1f4        ..      BNE      0x90dc ; low_level_output + 28
        0x000090f2:    7b78        x{      LDRB     r0,[r7,#0xd]
        0x000090f4:    2100        .!      MOVS     r1,#0
        0x000090f6:    0640        @.      LSLS     r0,r0,#25
        0x000090f8:    d500        ..      BPL      0x90fc ; low_level_output + 60
        0x000090fa:    4639        9F      MOV      r1,r7
        0x000090fc:    4628        (F      MOV      r0,r5
        0x000090fe:    f000f9ae    ....    BL       ETH_trigger_tx ; 0x945e
        0x00009102:    2000        .       MOVS     r0,#0
        0x00009104:    e7e8        ..      B        0x90d8 ; low_level_output + 24
    ethernetif_input
        0x00009106:    e92d47f0    -..G    PUSH     {r4-r10,lr}
        0x0000910a:    460f        .F      MOV      r7,r1
        0x0000910c:    4690        .F      MOV      r8,r2
        0x0000910e:    4601        .F      MOV      r1,r0
        0x00009110:    2203        ."      MOVS     r2,#3
        0x00009112:    4699        .F      MOV      r9,r3
        0x00009114:    f8dfa0f4    ....    LDR      r10,[pc,#244] ; [0x920c] = 0x200000e8
        0x00009118:    4610        .F      MOV      r0,r2
        0x0000911a:    f7faf87f    ....    BL       pbuf_alloc ; 0x321c
        0x0000911e:    0006        ..      MOVS     r6,r0
        0x00009120:    d00c        ..      BEQ      0x913c ; ethernetif_input + 54
        0x00009122:    2500        .%      MOVS     r5,#0
        0x00009124:    4604        .F      MOV      r4,r0
        0x00009126:    1979        y.      ADDS     r1,r7,r5
        0x00009128:    8962        b.      LDRH     r2,[r4,#0xa]
        0x0000912a:    6860        `h      LDR      r0,[r4,#4]
        0x0000912c:    f000fabb    ....    BL       __aeabi_memcpy ; 0x96a6
        0x00009130:    8960        `.      LDRH     r0,[r4,#0xa]
        0x00009132:    6824        $h      LDR      r4,[r4,#0]
        0x00009134:    4428        (D      ADD      r0,r0,r5
        0x00009136:    b285        ..      UXTH     r5,r0
        0x00009138:    2c00        .,      CMP      r4,#0
        0x0000913a:    d1f4        ..      BNE      0x9126 ; ethernetif_input + 32
        0x0000913c:    0034        4.      MOVS     r4,r6
        0x0000913e:    d018        ..      BEQ      0x9172 ; ethernetif_input + 108
        0x00009140:    e9c48904    ....    STRD     r8,r9,[r4,#0x10]
        0x00009144:    6860        `h      LDR      r0,[r4,#4]
        0x00009146:    8980        ..      LDRH     r0,[r0,#0xc]
        0x00009148:    f7f7fe04    ....    BL       lwip_htons ; 0xd54
        0x0000914c:    f5b06f00    ...o    CMP      r0,#0x800
        0x00009150:    d003        ..      BEQ      0x915a ; ethernetif_input + 84
        0x00009152:    f5a06000    ...`    SUB      r0,r0,#0x800
        0x00009156:    3806        .8      SUBS     r0,#6
        0x00009158:    d106        ..      BNE      0x9168 ; ethernetif_input + 98
        0x0000915a:    f8da1000    ....    LDR      r1,[r10,#0]
        0x0000915e:    4620         F      MOV      r0,r4
        0x00009160:    690a        .i      LDR      r2,[r1,#0x10]
        0x00009162:    4790        .G      BLX      r2
        0x00009164:    2800        .(      CMP      r0,#0
        0x00009166:    d004        ..      BEQ      0x9172 ; ethernetif_input + 108
        0x00009168:    4620         F      MOV      r0,r4
        0x0000916a:    e8bd47f0    ...G    POP      {r4-r10,lr}
        0x0000916e:    f7fab80d    ....    B        pbuf_free ; 0x318c
        0x00009172:    e8bd87f0    ....    POP      {r4-r10,pc}
    ethernetif_loopback_input
        0x00009176:    b510        ..      PUSH     {r4,lr}
        0x00009178:    4604        .F      MOV      r4,r0
        0x0000917a:    6840        @h      LDR      r0,[r0,#4]
        0x0000917c:    8980        ..      LDRH     r0,[r0,#0xc]
        0x0000917e:    f7f7fde9    ....    BL       lwip_htons ; 0xd54
        0x00009182:    f5b06f00    ...o    CMP      r0,#0x800
        0x00009186:    d003        ..      BEQ      0x9190 ; ethernetif_loopback_input + 26
        0x00009188:    f5a06000    ...`    SUB      r0,r0,#0x800
        0x0000918c:    3806        .8      SUBS     r0,#6
        0x0000918e:    d106        ..      BNE      0x919e ; ethernetif_loopback_input + 40
        0x00009190:    481e        .H      LDR      r0,[pc,#120] ; [0x920c] = 0x200000e8
        0x00009192:    6801        .h      LDR      r1,[r0,#0]
        0x00009194:    4620         F      MOV      r0,r4
        0x00009196:    690a        .i      LDR      r2,[r1,#0x10]
        0x00009198:    4790        .G      BLX      r2
        0x0000919a:    2800        .(      CMP      r0,#0
        0x0000919c:    d004        ..      BEQ      0x91a8 ; ethernetif_loopback_input + 50
        0x0000919e:    4620         F      MOV      r0,r4
        0x000091a0:    e8bd4010    ...@    POP      {r4,lr}
        0x000091a4:    f7f9bff2    ....    B        pbuf_free ; 0x318c
        0x000091a8:    bd10        ..      POP      {r4,pc}
    ethernetif_init
        0x000091aa:    b510        ..      PUSH     {r4,lr}
        0x000091ac:    0004        ..      MOVS     r4,r0
        0x000091ae:    d106        ..      BNE      0x91be ; ethernetif_init + 20
        0x000091b0:    a317        ..      ADR      r3,{pc}+0x60 ; 0x9210
        0x000091b2:    f240123d    @.=.    MOV      r2,#0x13d
        0x000091b6:    a120         .      ADR      r1,{pc}+0x82 ; 0x9238
        0x000091b8:    a023        #.      ADR      r0,{pc}+0x90 ; 0x9248
        0x000091ba:    f000faed    ....    BL       __0printf$5 ; 0x9798
        0x000091be:    4813        .H      LDR      r0,[pc,#76] ; [0x920c] = 0x200000e8
        0x000091c0:    6004        .`      STR      r4,[r0,#0]
        0x000091c2:    2004        .       MOVS     r0,#4
        0x000091c4:    f7f9fc59    ..Y.    BL       mem_malloc ; 0x2a7a
        0x000091c8:    b1e0        ..      CBZ      r0,0x9204 ; ethernetif_init + 90
        0x000091ca:    2165        e!      MOVS     r1,#0x65
        0x000091cc:    61e0        .a      STR      r0,[r4,#0x1c]
        0x000091ce:    f884102e    ....    STRB     r1,[r4,#0x2e]
        0x000091d2:    216e        n!      MOVS     r1,#0x6e
        0x000091d4:    f884102f    ../.    STRB     r1,[r4,#0x2f]
        0x000091d8:    4925        %I      LDR      r1,[pc,#148] ; [0x9270] = 0x8df7
        0x000091da:    6161        aa      STR      r1,[r4,#0x14]
        0x000091dc:    4925        %I      LDR      r1,[pc,#148] ; [0x9274] = 0x90c1
        0x000091de:    61a1        .a      STR      r1,[r4,#0x18]
        0x000091e0:    f1040127    ..'.    ADD      r1,r4,#0x27
        0x000091e4:    6001        .`      STR      r1,[r0,#0]
        0x000091e6:    f1040424    ..$.    ADD      r4,r4,#0x24
        0x000091ea:    2006        .       MOVS     r0,#6
        0x000091ec:    70a0        .p      STRB     r0,[r4,#2]
        0x000091ee:    f24050dc    @..P    MOV      r0,#0x5dc
        0x000091f2:    8020         .      STRH     r0,[r4,#0]
        0x000091f4:    f04f00b2    O...    MOV      r0,#0xb2
        0x000091f8:    7260        `r      STRB     r0,[r4,#9]
        0x000091fa:    4608        .F      MOV      r0,r1
        0x000091fc:    f000f89d    ....    BL       ETH_init ; 0x933a
        0x00009200:    2000        .       MOVS     r0,#0
        0x00009202:    bd10        ..      POP      {r4,pc}
        0x00009204:    f04f30ff    O..0    MOV      r0,#0xffffffff
        0x00009208:    bd10        ..      POP      {r4,pc}
    $d
        0x0000920a:    0000        ..      DCW    0
        0x0000920c:    200000e8    ...     DCD    536871144
        0x00009210:    6c5c2e2e    ..\l    DCD    1817980462
        0x00009214:    2d706977    wip-    DCD    762341751
        0x00009218:    2e342e31    1.4.    DCD    775171633
        0x0000921c:    6f705c31    1\po    DCD    1869634609
        0x00009220:    6e5c7472    rt\n    DCD    1851552882
        0x00009224:    66697465    etif    DCD    1718187109
        0x00009228:    6874655c    \eth    DCD    1752458588
        0x0000922c:    656e7265    erne    DCD    1701737061
        0x00009230:    2e666974    tif.    DCD    778463604
        0x00009234:    00000063    c...    DCD    99
        0x00009238:    6974656e    neti    DCD    1769235822
        0x0000923c:    3d212066    f !=    DCD    1025581158
        0x00009240:    4c554e20     NUL    DCD    1280658976
        0x00009244:    0000004c    L...    DCD    76
        0x00009248:    65737341    Asse    DCD    1702064961
        0x0000924c:    6f697472    rtio    DCD    1869182066
        0x00009250:    2522206e    n "%    DCD    622993518
        0x00009254:    66202273    s" f    DCD    1713382003
        0x00009258:    656c6961    aile    DCD    1701603681
        0x0000925c:    74612064    d at    DCD    1952522340
        0x00009260:    6e696c20     lin    DCD    1852402720
        0x00009264:    64252065    e %d    DCD    1680154725
        0x00009268:    206e6920     in     DCD    544106784
        0x0000926c:    000a7325    %s..    DCD    684837
        0x00009270:    00008df7    ....    DCD    36343
        0x00009274:    000090c1    ....    DCD    37057
    $t
    .text
    reset_phy
        0x00009278:    e92d41f0    -..A    PUSH     {r4-r8,lr}
        0x0000927c:    f44f4200    O..B    MOV      r2,#0x8000
        0x00009280:    2100        .!      MOVS     r1,#0
        0x00009282:    2001        .       MOVS     r0,#1
        0x00009284:    f000f94e    ..N.    BL       mdio_write ; 0x9524
        0x00009288:    f44f64fa    O..d    MOV      r4,#0x7d0
        0x0000928c:    f04f36ff    O..6    MOV      r6,#0xffffffff
        0x00009290:    e005        ..      B        0x929e ; reset_phy + 38
        0x00009292:    2100        .!      MOVS     r1,#0
        0x00009294:    2001        .       MOVS     r0,#1
        0x00009296:    f000f954    ..T.    BL       mdio_read ; 0x9542
        0x0000929a:    0400        ..      LSLS     r0,r0,#16
        0x0000929c:    d502        ..      BPL      0x92a4 ; reset_phy + 44
        0x0000929e:    1e64        d.      SUBS     r4,r4,#1
        0x000092a0:    d2f7        ..      BCS      0x9292 ; reset_phy + 26
        0x000092a2:    e000        ..      B        0x92a6 ; reset_phy + 46
        0x000092a4:    b19c        ..      CBZ      r4,0x92ce ; reset_phy + 86
        0x000092a6:    f24012e1    @...    MOV      r2,#0x1e1
        0x000092aa:    2104        .!      MOVS     r1,#4
        0x000092ac:    2001        .       MOVS     r0,#1
        0x000092ae:    f000f939    ..9.    BL       mdio_write ; 0x9524
        0x000092b2:    2100        .!      MOVS     r1,#0
        0x000092b4:    2001        .       MOVS     r0,#1
        0x000092b6:    f000f944    ..D.    BL       mdio_read ; 0x9542
        0x000092ba:    f4407200    @..r    ORR      r2,r0,#0x200
        0x000092be:    2100        .!      MOVS     r1,#0
        0x000092c0:    2001        .       MOVS     r0,#1
        0x000092c2:    f000f92f    ../.    BL       mdio_write ; 0x9524
        0x000092c6:    4cce        .L      LDR      r4,[pc,#824] ; [0x9600] = 0x30d40
        0x000092c8:    4dce        .M      LDR      r5,[pc,#824] ; [0x9604] = 0x4000b000
        0x000092ca:    2724        $'      MOVS     r7,#0x24
        0x000092cc:    e009        ..      B        0x92e2 ; reset_phy + 106
        0x000092ce:    4630        0F      MOV      r0,r6
        0x000092d0:    e8bd81f0    ....    POP      {r4-r8,pc}
        0x000092d4:    2101        .!      MOVS     r1,#1
        0x000092d6:    4608        .F      MOV      r0,r1
        0x000092d8:    f000f933    ..3.    BL       mdio_read ; 0x9542
        0x000092dc:    ea370000    7...    BICS     r0,r7,r0
        0x000092e0:    d002        ..      BEQ      0x92e8 ; reset_phy + 112
        0x000092e2:    1e64        d.      SUBS     r4,r4,#1
        0x000092e4:    d2f6        ..      BCS      0x92d4 ; reset_phy + 92
        0x000092e6:    e000        ..      B        0x92ea ; reset_phy + 114
        0x000092e8:    b154        T.      CBZ      r4,0x9300 ; reset_phy + 136
        0x000092ea:    2105        .!      MOVS     r1,#5
        0x000092ec:    2001        .       MOVS     r0,#1
        0x000092ee:    f000f928    ..(.    BL       mdio_read ; 0x9542
        0x000092f2:    05c1        ..      LSLS     r1,r0,#23
        0x000092f4:    d50a        ..      BPL      0x930c ; reset_phy + 148
        0x000092f6:    f8550f90    U...    LDR      r0,[r5,#0x90]!
        0x000092fa:    f44010a0    @...    ORR      r0,r0,#0x140000
        0x000092fe:    e019        ..      B        0x9334 ; reset_phy + 188
        0x00009300:    f8550f90    U...    LDR      r0,[r5,#0x90]!
        0x00009304:    f44010a0    @...    ORR      r0,r0,#0x140000
        0x00009308:    6028        (`      STR      r0,[r5,#0]
        0x0000930a:    e7e0        ..      B        0x92ce ; reset_phy + 86
        0x0000930c:    0601        ..      LSLS     r1,r0,#24
        0x0000930e:    d506        ..      BPL      0x931e ; reset_phy + 166
        0x00009310:    f8550f90    U...    LDR      r0,[r5,#0x90]!
        0x00009314:    f4202080     ..     BIC      r0,r0,#0x40000
        0x00009318:    f4401080    @...    ORR      r0,r0,#0x100000
        0x0000931c:    e00a        ..      B        0x9334 ; reset_phy + 188
        0x0000931e:    0640        @.      LSLS     r0,r0,#25
        0x00009320:    f8550f90    U...    LDR      r0,[r5,#0x90]!
        0x00009324:    d504        ..      BPL      0x9330 ; reset_phy + 184
        0x00009326:    f4201080     ...    BIC      r0,r0,#0x100000
        0x0000932a:    f4402080    @..     ORR      r0,r0,#0x40000
        0x0000932e:    e001        ..      B        0x9334 ; reset_phy + 188
        0x00009330:    f42010a0     ...    BIC      r0,r0,#0x140000
        0x00009334:    6028        (`      STR      r0,[r5,#0]
        0x00009336:    2000        .       MOVS     r0,#0
        0x00009338:    e7ca        ..      B        0x92d0 ; reset_phy + 88
    ETH_init
        0x0000933a:    b570        p.      PUSH     {r4-r6,lr}
        0x0000933c:    4db1        .M      LDR      r5,[pc,#708] ; [0x9604] = 0x4000b000
        0x0000933e:    4604        .F      MOV      r4,r0
        0x00009340:    f04f7080    O..p    MOV      r0,#0x1000000
        0x00009344:    f8c50090    ....    STR      r0,[r5,#0x90]
        0x00009348:    f000f90a    ....    BL       init_tx_desc ; 0x9560
        0x0000934c:    f000f92b    ..+.    BL       init_rx_desc ; 0x95a6
        0x00009350:    6820         h      LDR      r0,[r4,#0]
        0x00009352:    78e1        .x      LDRB     r1,[r4,#3]
        0x00009354:    ba00        ..      REV      r0,r0
        0x00009356:    f02000ff     ...    BIC      r0,r0,#0xff
        0x0000935a:    4308        .C      ORRS     r0,r0,r1
        0x0000935c:    60a8        .`      STR      r0,[r5,#8]
        0x0000935e:    88a0        ..      LDRH     r0,[r4,#4]
        0x00009360:    ba40        @.      REV16    r0,r0
        0x00009362:    0400        ..      LSLS     r0,r0,#16
        0x00009364:    60e8        .`      STR      r0,[r5,#0xc]
        0x00009366:    2016        .       MOVS     r0,#0x16
        0x00009368:    6028        (`      STR      r0,[r5,#0]
        0x0000936a:    2001        .       MOVS     r0,#1
        0x0000936c:    6068        h`      STR      r0,[r5,#4]
        0x0000936e:    f7ffff83    ....    BL       reset_phy ; 0x9278
        0x00009372:    f8550f90    U...    LDR      r0,[r5,#0x90]!
        0x00009376:    49a4        .I      LDR      r1,[pc,#656] ; [0x9608] = 0x480121
        0x00009378:    4308        .C      ORRS     r0,r0,r1
        0x0000937a:    6028        (`      STR      r0,[r5,#0]
        0x0000937c:    69e8        .i      LDR      r0,[r5,#0x1c]
        0x0000937e:    49a3        .I      LDR      r1,[pc,#652] ; [0x960c] = 0x1250c11
        0x00009380:    4308        .C      ORRS     r0,r0,r1
        0x00009382:    61e8        .a      STR      r0,[r5,#0x1c]
        0x00009384:    2000        .       MOVS     r0,#0
        0x00009386:    6168        ha      STR      r0,[r5,#0x14]
        0x00009388:    bd70        p.      POP      {r4-r6,pc}
    ETH_halt
        0x0000938a:    48a1        .H      LDR      r0,[pc,#644] ; [0x9610] = 0x4000b090
        0x0000938c:    6801        .h      LDR      r1,[r0,#0]
        0x0000938e:    f2401201    @...    MOV      r2,#0x101
        0x00009392:    ea210102    !...    BIC      r1,r1,r2
        0x00009396:    6001        .`      STR      r1,[r0,#0]
        0x00009398:    4770        pG      BX       lr
    EMAC_RX_IRQHandler
        0x0000939a:    b570        p.      PUSH     {r4-r6,lr}
        0x0000939c:    4e9d        .N      LDR      r6,[pc,#628] ; [0x9614] = 0x4000b0b0
        0x0000939e:    6830        0h      LDR      r0,[r6,#0]
        0x000093a0:    b284        ..      UXTH     r4,r0
        0x000093a2:    f84649b0    F..I    STR      r4,[r6],#-0xb0
        0x000093a6:    4d9c        .M      LDR      r5,[pc,#624] ; [0x9618] = 0x200000ec
        0x000093a8:    f8d610d4    ....    LDR      r1,[r6,#0xd4]
        0x000093ac:    6868        hh      LDR      r0,[r5,#4]
        0x000093ae:    4281        .B      CMP      r1,r0
        0x000093b0:    d101        ..      BNE      0x93b6 ; EMAC_RX_IRQHandler + 28
        0x000093b2:    0561        a.      LSLS     r1,r4,#21
        0x000093b4:    d518        ..      BPL      0x93e8 ; EMAC_RX_IRQHandler + 78
        0x000093b6:    6804        .h      LDR      r4,[r0,#0]
        0x000093b8:    2c00        .,      CMP      r4,#0
        0x000093ba:    db15        ..      BLT      0x93e8 ; EMAC_RX_IRQHandler + 78
        0x000093bc:    02e1        ..      LSLS     r1,r4,#11
        0x000093be:    d50c        ..      BPL      0x93da ; EMAC_RX_IRQHandler + 64
        0x000093c0:    0221        !.      LSLS     r1,r4,#8
        0x000093c2:    d504        ..      BPL      0x93ce ; EMAC_RX_IRQHandler + 52
        0x000093c4:    68a9        .h      LDR      r1,[r5,#8]
        0x000093c6:    690a        .i      LDR      r2,[r1,#0x10]
        0x000093c8:    6042        B`      STR      r2,[r0,#4]
        0x000093ca:    6949        Ii      LDR      r1,[r1,#0x14]
        0x000093cc:    60c1        .`      STR      r1,[r0,#0xc]
        0x000093ce:    68c3        .h      LDR      r3,[r0,#0xc]
        0x000093d0:    6882        .h      LDR      r2,[r0,#8]
        0x000093d2:    6841        Ah      LDR      r1,[r0,#4]
        0x000093d4:    b2a0        ..      UXTH     r0,r4
        0x000093d6:    f7fffe96    ....    BL       ethernetif_input ; 0x9106
        0x000093da:    6868        hh      LDR      r0,[r5,#4]
        0x000093dc:    f04f4100    O..A    MOV      r1,#0x80000000
        0x000093e0:    6001        .`      STR      r1,[r0,#0]
        0x000093e2:    68c0        .h      LDR      r0,[r0,#0xc]
        0x000093e4:    6068        h`      STR      r0,[r5,#4]
        0x000093e6:    e7df        ..      B        0x93a8 ; EMAC_RX_IRQHandler + 14
        0x000093e8:    2000        .       MOVS     r0,#0
        0x000093ea:    f8c600a4    ....    STR      r0,[r6,#0xa4]
        0x000093ee:    bd70        p.      POP      {r4-r6,pc}
    EMAC_TX_IRQHandler
        0x000093f0:    b570        p.      PUSH     {r4-r6,lr}
        0x000093f2:    4988        .I      LDR      r1,[pc,#544] ; [0x9614] = 0x4000b0b0
        0x000093f4:    6808        .h      LDR      r0,[r1,#0]
        0x000093f6:    f36f000f    o...    BFC      r0,#0,#16
        0x000093fa:    f84109b0    A...    STR      r0,[r1],#-0xb0
        0x000093fe:    01c0        ..      LSLS     r0,r0,#7
        0x00009400:    d423        #.      BMI      0x944a ; EMAC_TX_IRQHandler + 90
        0x00009402:    f8d140cc    ...@    LDR      r4,[r1,#0xcc]
        0x00009406:    4d84        .M      LDR      r5,[pc,#528] ; [0x9618] = 0x200000ec
        0x00009408:    68a8        .h      LDR      r0,[r5,#8]
        0x0000940a:    e01c        ..      B        0x9446 ; EMAC_TX_IRQHandler + 86
        0x0000940c:    6881        .h      LDR      r1,[r0,#8]
        0x0000940e:    0109        ..      LSLS     r1,r1,#4
        0x00009410:    6981        .i      LDR      r1,[r0,#0x18]
        0x00009412:    d50f        ..      BPL      0x9434 ; EMAC_TX_IRQHandler + 68
        0x00009414:    b141        A.      CBZ      r1,0x9428 ; EMAC_TX_IRQHandler + 56
        0x00009416:    6841        Ah      LDR      r1,[r0,#4]
        0x00009418:    6982        .i      LDR      r2,[r0,#0x18]
        0x0000941a:    6151        Qa      STR      r1,[r2,#0x14]
        0x0000941c:    68c1        .h      LDR      r1,[r0,#0xc]
        0x0000941e:    6982        .i      LDR      r2,[r0,#0x18]
        0x00009420:    6111        .a      STR      r1,[r2,#0x10]
        0x00009422:    6980        .i      LDR      r0,[r0,#0x18]
        0x00009424:    f7fffea7    ....    BL       ethernetif_loopback_input ; 0x9176
        0x00009428:    68a8        .h      LDR      r0,[r5,#8]
        0x0000942a:    6901        .i      LDR      r1,[r0,#0x10]
        0x0000942c:    6041        A`      STR      r1,[r0,#4]
        0x0000942e:    6941        Ai      LDR      r1,[r0,#0x14]
        0x00009430:    60c1        .`      STR      r1,[r0,#0xc]
        0x00009432:    e003        ..      B        0x943c ; EMAC_TX_IRQHandler + 76
        0x00009434:    b111        ..      CBZ      r1,0x943c ; EMAC_TX_IRQHandler + 76
        0x00009436:    6980        .i      LDR      r0,[r0,#0x18]
        0x00009438:    f7f9fea8    ....    BL       pbuf_free ; 0x318c
        0x0000943c:    68a8        .h      LDR      r0,[r5,#8]
        0x0000943e:    2100        .!      MOVS     r1,#0
        0x00009440:    6181        .a      STR      r1,[r0,#0x18]
        0x00009442:    68c0        .h      LDR      r0,[r0,#0xc]
        0x00009444:    60a8        .`      STR      r0,[r5,#8]
        0x00009446:    4284        .B      CMP      r4,r0
        0x00009448:    d1e0        ..      BNE      0x940c ; EMAC_TX_IRQHandler + 28
        0x0000944a:    bd70        p.      POP      {r4-r6,pc}
    ETH_get_tx_buf
        0x0000944c:    4872        rH      LDR      r0,[pc,#456] ; [0x9618] = 0x200000ec
        0x0000944e:    6800        .h      LDR      r0,[r0,#0]
        0x00009450:    6801        .h      LDR      r1,[r0,#0]
        0x00009452:    2900        .)      CMP      r1,#0
        0x00009454:    da01        ..      BGE      0x945a ; ETH_get_tx_buf + 14
        0x00009456:    2000        .       MOVS     r0,#0
        0x00009458:    4770        pG      BX       lr
        0x0000945a:    6840        @h      LDR      r0,[r0,#4]
        0x0000945c:    4770        pG      BX       lr
    ETH_trigger_tx
        0x0000945e:    4b6e        nK      LDR      r3,[pc,#440] ; [0x9618] = 0x200000ec
        0x00009460:    b510        ..      PUSH     {r4,lr}
        0x00009462:    681a        .h      LDR      r2,[r3,#0]
        0x00009464:    6090        .`      STR      r0,[r2,#8]
        0x00009466:    68d0        .h      LDR      r0,[r2,#0xc]
        0x00009468:    6814        .h      LDR      r4,[r2,#0]
        0x0000946a:    f0444400    D..D    ORR      r4,r4,#0x80000000
        0x0000946e:    6014        .`      STR      r4,[r2,#0]
        0x00009470:    6018        .`      STR      r0,[r3,#0]
        0x00009472:    6181        .a      STR      r1,[r0,#0x18]
        0x00009474:    4969        iI      LDR      r1,[pc,#420] ; [0x961c] = 0x4000b0a0
        0x00009476:    2000        .       MOVS     r0,#0
        0x00009478:    6008        .`      STR      r0,[r1,#0]
        0x0000947a:    bd10        ..      POP      {r4,pc}
    ETH_settime
        0x0000947c:    b510        ..      PUSH     {r4,lr}
        0x0000947e:    4c68        hL      LDR      r4,[pc,#416] ; [0x9620] = 0x4000b100
        0x00009480:    2201        ."      MOVS     r2,#1
        0x00009482:    6022        "`      STR      r2,[r4,#0]
        0x00009484:    6220         b      STR      r0,[r4,#0x20]
        0x00009486:    4608        .F      MOV      r0,r1
        0x00009488:    f000f8b1    ....    BL       nsec2subsec ; 0x95ee
        0x0000948c:    6260        `b      STR      r0,[r4,#0x24]
        0x0000948e:    6820         h      LDR      r0,[r4,#0]
        0x00009490:    f0400006    @...    ORR      r0,r0,#6
        0x00009494:    6020         `      STR      r0,[r4,#0]
        0x00009496:    2000        .       MOVS     r0,#0
        0x00009498:    bd10        ..      POP      {r4,pc}
    ETH_gettime
        0x0000949a:    b510        ..      PUSH     {r4,lr}
        0x0000949c:    4c61        aL      LDR      r4,[pc,#388] ; [0x9624] = 0x4000b110
        0x0000949e:    6862        bh      LDR      r2,[r4,#4]
        0x000094a0:    4b61        aK      LDR      r3,[pc,#388] ; [0x9628] = 0x3b9aca00
        0x000094a2:    fba22303    ...#    UMULL    r2,r3,r2,r3
        0x000094a6:    ea4f72d2    O..r    LSR      r2,r2,#31
        0x000094aa:    ea420243    B.C.    ORR      r2,r2,r3,LSL #1
        0x000094ae:    600a        .`      STR      r2,[r1,#0]
        0x000094b0:    6821        !h      LDR      r1,[r4,#0]
        0x000094b2:    6001        .`      STR      r1,[r0,#0]
        0x000094b4:    f04f0000    O...    MOV      r0,#0
        0x000094b8:    bd10        ..      POP      {r4,pc}
    ETH_updatetime
        0x000094ba:    b570        p.      PUSH     {r4-r6,lr}
        0x000094bc:    4d51        QM      LDR      r5,[pc,#324] ; [0x9604] = 0x4000b000
        0x000094be:    4604        .F      MOV      r4,r0
        0x000094c0:    4610        .F      MOV      r0,r2
        0x000094c2:    f8c51120    .. .    STR      r1,[r5,#0x120]
        0x000094c6:    f000f892    ....    BL       nsec2subsec ; 0x95ee
        0x000094ca:    f8c50124    ..$.    STR      r0,[r5,#0x124]
        0x000094ce:    b12c        ,.      CBZ      r4,0x94dc ; ETH_updatetime + 34
        0x000094d0:    f8d50124    ..$.    LDR      r0,[r5,#0x124]
        0x000094d4:    f0404000    @..@    ORR      r0,r0,#0x80000000
        0x000094d8:    f8c50124    ..$.    STR      r0,[r5,#0x124]
        0x000094dc:    f8d50100    ....    LDR      r0,[r5,#0x100]
        0x000094e0:    f0400008    @...    ORR      r0,r0,#8
        0x000094e4:    f8c50100    ....    STR      r0,[r5,#0x100]
        0x000094e8:    2000        .       MOVS     r0,#0
        0x000094ea:    bd70        p.      POP      {r4-r6,pc}
    ETH_adjtimex
        0x000094ec:    4a45        EJ      LDR      r2,[pc,#276] ; [0x9604] = 0x4000b000
        0x000094ee:    b510        ..      PUSH     {r4,lr}
        0x000094f0:    f8d2111c    ....    LDR      r1,[r2,#0x11c]
        0x000094f4:    494d        MI      LDR      r1,[pc,#308] ; [0x962c] = 0x1e70c600
        0x000094f6:    f04f34ff    O..4    MOV      r4,#0xffffffff
        0x000094fa:    4348        HC      MULS     r0,r1,r0
        0x000094fc:    494a        JI      LDR      r1,[pc,#296] ; [0x9628] = 0x3b9aca00
        0x000094fe:    2300        .#      MOVS     r3,#0
        0x00009500:    fb90f0f1    ....    SDIV     r0,r0,r1
        0x00009504:    4949        II      LDR      r1,[pc,#292] ; [0x962c] = 0x1e70c600
        0x00009506:    4408        .D      ADD      r0,r0,r1
        0x00009508:    17c1        ..      ASRS     r1,r0,#31
        0x0000950a:    1a24        $.      SUBS     r4,r4,r0
        0x0000950c:    418b        .A      SBCS     r3,r3,r1
        0x0000950e:    da01        ..      BGE      0x9514 ; ETH_adjtimex + 40
        0x00009510:    f04f30ff    O..0    MOV      r0,#0xffffffff
        0x00009514:    f8c2011c    ....    STR      r0,[r2,#0x11c]
        0x00009518:    2000        .       MOVS     r0,#0
        0x0000951a:    bd10        ..      POP      {r4,pc}
    ETH_setinc
        0x0000951c:    4944        DI      LDR      r1,[pc,#272] ; [0x9630] = 0x4000b118
        0x0000951e:    20d7        .       MOVS     r0,#0xd7
        0x00009520:    6008        .`      STR      r0,[r1,#0]
        0x00009522:    4770        pG      BX       lr
    mdio_write
        0x00009524:    4b3a        :K      LDR      r3,[pc,#232] ; [0x9610] = 0x4000b090
        0x00009526:    1d1b        ..      ADDS     r3,r3,#4
        0x00009528:    601a        .`      STR      r2,[r3,#0]
        0x0000952a:    ea412000    A..     ORR      r0,r1,r0,LSL #8
        0x0000952e:    f4402030    @.0     ORR      r0,r0,#0xb0000
        0x00009532:    6058        X`      STR      r0,[r3,#4]
        0x00009534:    f1a30394    ....    SUB      r3,r3,#0x94
        0x00009538:    f8d30098    ....    LDR      r0,[r3,#0x98]
        0x0000953c:    0380        ..      LSLS     r0,r0,#14
        0x0000953e:    d4fb        ..      BMI      0x9538 ; mdio_write + 20
        0x00009540:    4770        pG      BX       lr
    mdio_read
        0x00009542:    ea412000    A..     ORR      r0,r1,r0,LSL #8
        0x00009546:    f4402120    @. !    ORR      r1,r0,#0xa0000
        0x0000954a:    482e        .H      LDR      r0,[pc,#184] ; [0x9604] = 0x4000b000
        0x0000954c:    f8c01098    ....    STR      r1,[r0,#0x98]
        0x00009550:    f8d01098    ....    LDR      r1,[r0,#0x98]
        0x00009554:    0389        ..      LSLS     r1,r1,#14
        0x00009556:    d4fb        ..      BMI      0x9550 ; mdio_read + 14
        0x00009558:    f8d00094    ....    LDR      r0,[r0,#0x94]
        0x0000955c:    b280        ..      UXTH     r0,r0
        0x0000955e:    4770        pG      BX       lr
    init_tx_desc
        0x00009560:    b5f0        ..      PUSH     {r4-r7,lr}
        0x00009562:    482d        -H      LDR      r0,[pc,#180] ; [0x9618] = 0x200000ec
        0x00009564:    4c33        3L      LDR      r4,[pc,#204] ; [0x9634] = 0x20007344
        0x00009566:    6084        .`      STR      r4,[r0,#8]
        0x00009568:    6004        .`      STR      r4,[r0,#0]
        0x0000956a:    2000        .       MOVS     r0,#0
        0x0000956c:    4605        .F      MOV      r5,r0
        0x0000956e:    2607        .&      MOVS     r6,#7
        0x00009570:    f50457c2    ...W    ADD      r7,r4,#0x1840
        0x00009574:    eb041140    ..@.    ADD      r1,r4,r0,LSL #5
        0x00009578:    ebc01240    ..@.    RSB      r2,r0,r0,LSL #5
        0x0000957c:    eb021280    ....    ADD      r2,r2,r0,LSL #6
        0x00009580:    1c43        C.      ADDS     r3,r0,#1
        0x00009582:    eb071202    ....    ADD      r2,r7,r2,LSL #4
        0x00009586:    600e        .`      STR      r6,[r1,#0]
        0x00009588:    e9c12501    ...%    STRD     r2,r5,[r1,#4]
        0x0000958c:    f0030303    ....    AND      r3,r3,#3
        0x00009590:    eb041343    ..C.    ADD      r3,r4,r3,LSL #5
        0x00009594:    e9c13203    ...2    STRD     r3,r2,[r1,#0xc]
        0x00009598:    1c40        @.      ADDS     r0,r0,#1
        0x0000959a:    614b        Ka      STR      r3,[r1,#0x14]
        0x0000959c:    2804        .(      CMP      r0,#4
        0x0000959e:    d3e9        ..      BCC      0x9574 ; init_tx_desc + 20
        0x000095a0:    4825        %H      LDR      r0,[pc,#148] ; [0x9638] = 0x4000b088
        0x000095a2:    6004        .`      STR      r4,[r0,#0]
        0x000095a4:    bdf0        ..      POP      {r4-r7,pc}
    init_rx_desc
        0x000095a6:    b5f0        ..      PUSH     {r4-r7,lr}
        0x000095a8:    4c22        "L      LDR      r4,[pc,#136] ; [0x9634] = 0x20007344
        0x000095aa:    481b        .H      LDR      r0,[pc,#108] ; [0x9618] = 0x200000ec
        0x000095ac:    3c80        .<      SUBS     r4,r4,#0x80
        0x000095ae:    f04f4600    O..F    MOV      r6,#0x80000000
        0x000095b2:    6044        D`      STR      r4,[r0,#4]
        0x000095b4:    2000        .       MOVS     r0,#0
        0x000095b6:    4605        .F      MOV      r5,r0
        0x000095b8:    f5047780    ...w    ADD      r7,r4,#0x100
        0x000095bc:    eb041140    ..@.    ADD      r1,r4,r0,LSL #5
        0x000095c0:    ebc01240    ..@.    RSB      r2,r0,r0,LSL #5
        0x000095c4:    eb021280    ....    ADD      r2,r2,r0,LSL #6
        0x000095c8:    1c43        C.      ADDS     r3,r0,#1
        0x000095ca:    eb071202    ....    ADD      r2,r7,r2,LSL #4
        0x000095ce:    600e        .`      STR      r6,[r1,#0]
        0x000095d0:    e9c12501    ...%    STRD     r2,r5,[r1,#4]
        0x000095d4:    f0030303    ....    AND      r3,r3,#3
        0x000095d8:    eb041343    ..C.    ADD      r3,r4,r3,LSL #5
        0x000095dc:    e9c13203    ...2    STRD     r3,r2,[r1,#0xc]
        0x000095e0:    1c40        @.      ADDS     r0,r0,#1
        0x000095e2:    614b        Ka      STR      r3,[r1,#0x14]
        0x000095e4:    2804        .(      CMP      r0,#4
        0x000095e6:    d3e9        ..      BCC      0x95bc ; init_rx_desc + 22
        0x000095e8:    4814        .H      LDR      r0,[pc,#80] ; [0x963c] = 0x4000b08c
        0x000095ea:    6004        .`      STR      r4,[r0,#0]
        0x000095ec:    bdf0        ..      POP      {r4-r7,pc}
    nsec2subsec
        0x000095ee:    2100        .!      MOVS     r1,#0
        0x000095f0:    07c9        ..      LSLS     r1,r1,#31
        0x000095f2:    ea410150    A.P.    ORR      r1,r1,r0,LSR #1
        0x000095f6:    07c0        ..      LSLS     r0,r0,#31
        0x000095f8:    4a0b        .J      LDR      r2,[pc,#44] ; [0x9628] = 0x3b9aca00
        0x000095fa:    2300        .#      MOVS     r3,#0
        0x000095fc:    f000b820    .. .    B.W      __aeabi_uldivmod ; 0x9640
    $d
        0x00009600:    00030d40    @...    DCD    200000
        0x00009604:    4000b000    ...@    DCD    1073786880
        0x00009608:    00480121    !.H.    DCD    4718881
        0x0000960c:    01250c11    ..%.    DCD    19205137
        0x00009610:    4000b090    ...@    DCD    1073787024
        0x00009614:    4000b0b0    ...@    DCD    1073787056
        0x00009618:    200000ec    ...     DCD    536871148
        0x0000961c:    4000b0a0    ...@    DCD    1073787040
        0x00009620:    4000b100    ...@    DCD    1073787136
        0x00009624:    4000b110    ...@    DCD    1073787152
        0x00009628:    3b9aca00    ...;    DCD    1000000000
        0x0000962c:    1e70c600    ..p.    DCD    510707200
        0x00009630:    4000b118    ...@    DCD    1073787160
        0x00009634:    20007344    Ds.     DCD    536900420
        0x00009638:    4000b088    ...@    DCD    1073787016
        0x0000963c:    4000b08c    ...@    DCD    1073787020
    $t
    .text
    __aeabi_uldivmod
        0x00009640:    e92d5ff0    -.._    PUSH     {r4-r12,lr}
        0x00009644:    4605        .F      MOV      r5,r0
        0x00009646:    2000        .       MOVS     r0,#0
        0x00009648:    4692        .F      MOV      r10,r2
        0x0000964a:    469b        .F      MOV      r11,r3
        0x0000964c:    4688        .F      MOV      r8,r1
        0x0000964e:    4606        .F      MOV      r6,r0
        0x00009650:    4681        .F      MOV      r9,r0
        0x00009652:    2440        @$      MOVS     r4,#0x40
        0x00009654:    e01d        ..      B        0x9692 ; __aeabi_uldivmod + 82
        0x00009656:    4628        (F      MOV      r0,r5
        0x00009658:    4641        AF      MOV      r1,r8
        0x0000965a:    4647        GF      MOV      r7,r8
        0x0000965c:    4622        "F      MOV      r2,r4
        0x0000965e:    f000f879    ..y.    BL       __aeabi_llsr ; 0x9754
        0x00009662:    ebb0000a    ....    SUBS     r0,r0,r10
        0x00009666:    4652        RF      MOV      r2,r10
        0x00009668:    465b        [F      MOV      r3,r11
        0x0000966a:    eb71010b    q...    SBCS     r1,r1,r11
        0x0000966e:    d310        ..      BCC      0x9692 ; __aeabi_uldivmod + 82
        0x00009670:    4610        .F      MOV      r0,r2
        0x00009672:    4619        .F      MOV      r1,r3
        0x00009674:    4622        "F      MOV      r2,r4
        0x00009676:    f000f85e    ..^.    BL       __aeabi_llsl ; 0x9736
        0x0000967a:    1a2d        -.      SUBS     r5,r5,r0
        0x0000967c:    eb670801    g...    SBC      r8,r7,r1
        0x00009680:    464f        OF      MOV      r7,r9
        0x00009682:    4622        "F      MOV      r2,r4
        0x00009684:    2001        .       MOVS     r0,#1
        0x00009686:    2100        .!      MOVS     r1,#0
        0x00009688:    f000f855    ..U.    BL       __aeabi_llsl ; 0x9736
        0x0000968c:    eb170900    ....    ADDS     r9,r7,r0
        0x00009690:    414e        NA      ADCS     r6,r6,r1
        0x00009692:    1e20         .      SUBS     r0,r4,#0
        0x00009694:    f1a40401    ....    SUB      r4,r4,#1
        0x00009698:    dcdd        ..      BGT      0x9656 ; __aeabi_uldivmod + 22
        0x0000969a:    4648        HF      MOV      r0,r9
        0x0000969c:    4631        1F      MOV      r1,r6
        0x0000969e:    462a        *F      MOV      r2,r5
        0x000096a0:    4643        CF      MOV      r3,r8
        0x000096a2:    e8bd9ff0    ....    POP      {r4-r12,pc}
    .text
    __aeabi_memcpy
    __aeabi_memcpy4
    __aeabi_memcpy8
        0x000096a6:    ea400301    @...    ORR      r3,r0,r1
        0x000096aa:    079b        ..      LSLS     r3,r3,#30
        0x000096ac:    d003        ..      BEQ      0x96b6 ; __aeabi_memcpy + 16
        0x000096ae:    e009        ..      B        0x96c4 ; __aeabi_memcpy + 30
        0x000096b0:    c908        ..      LDM      r1!,{r3}
        0x000096b2:    1f12        ..      SUBS     r2,r2,#4
        0x000096b4:    c008        ..      STM      r0!,{r3}
        0x000096b6:    2a04        .*      CMP      r2,#4
        0x000096b8:    d2fa        ..      BCS      0x96b0 ; __aeabi_memcpy + 10
        0x000096ba:    e003        ..      B        0x96c4 ; __aeabi_memcpy + 30
        0x000096bc:    f8113b01    ...;    LDRB     r3,[r1],#1
        0x000096c0:    f8003b01    ...;    STRB     r3,[r0],#1
        0x000096c4:    1e52        R.      SUBS     r2,r2,#1
        0x000096c6:    d2f9        ..      BCS      0x96bc ; __aeabi_memcpy + 22
        0x000096c8:    4770        pG      BX       lr
    .text
    __aeabi_memset
    __aeabi_memset4
    __aeabi_memset8
        0x000096ca:    b2d2        ..      UXTB     r2,r2
        0x000096cc:    e001        ..      B        0x96d2 ; __aeabi_memset + 8
        0x000096ce:    f8002b01    ...+    STRB     r2,[r0],#1
        0x000096d2:    1e49        I.      SUBS     r1,r1,#1
        0x000096d4:    d2fb        ..      BCS      0x96ce ; __aeabi_memset + 4
        0x000096d6:    4770        pG      BX       lr
    __aeabi_memclr
    __aeabi_memclr4
    __aeabi_memclr8
        0x000096d8:    2200        ."      MOVS     r2,#0
        0x000096da:    e7f6        ..      B        __aeabi_memset ; 0x96ca
    _memset$wrapper
        0x000096dc:    b510        ..      PUSH     {r4,lr}
        0x000096de:    4604        .F      MOV      r4,r0
        0x000096e0:    4608        .F      MOV      r0,r1
        0x000096e2:    4611        .F      MOV      r1,r2
        0x000096e4:    4602        .F      MOV      r2,r0
        0x000096e6:    4620         F      MOV      r0,r4
        0x000096e8:    f7ffffef    ....    BL       __aeabi_memset ; 0x96ca
        0x000096ec:    4620         F      MOV      r0,r4
        0x000096ee:    bd10        ..      POP      {r4,pc}
    .text
    strlen
        0x000096f0:    4601        .F      MOV      r1,r0
        0x000096f2:    2000        .       MOVS     r0,#0
        0x000096f4:    e000        ..      B        0x96f8 ; strlen + 8
        0x000096f6:    1c40        @.      ADDS     r0,r0,#1
        0x000096f8:    5c0a        .\      LDRB     r2,[r1,r0]
        0x000096fa:    2a00        .*      CMP      r2,#0
        0x000096fc:    d1fb        ..      BNE      0x96f6 ; strlen + 6
        0x000096fe:    4770        pG      BX       lr
    .text
    strcmp
        0x00009700:    b510        ..      PUSH     {r4,lr}
        0x00009702:    2200        ."      MOVS     r2,#0
        0x00009704:    e000        ..      B        0x9708 ; strcmp + 8
        0x00009706:    1c52        R.      ADDS     r2,r2,#1
        0x00009708:    5c83        .\      LDRB     r3,[r0,r2]
        0x0000970a:    5c8c        .\      LDRB     r4,[r1,r2]
        0x0000970c:    42a3        .B      CMP      r3,r4
        0x0000970e:    d101        ..      BNE      0x9714 ; strcmp + 20
        0x00009710:    2b00        .+      CMP      r3,#0
        0x00009712:    d1f8        ..      BNE      0x9706 ; strcmp + 6
        0x00009714:    b2d8        ..      UXTB     r0,r3
        0x00009716:    b2e1        ..      UXTB     r1,r4
        0x00009718:    1a40        @.      SUBS     r0,r0,r1
        0x0000971a:    bd10        ..      POP      {r4,pc}
    .text
    memcmp
        0x0000971c:    b530        0.      PUSH     {r4,r5,lr}
        0x0000971e:    4604        .F      MOV      r4,r0
        0x00009720:    2000        .       MOVS     r0,#0
        0x00009722:    4603        .F      MOV      r3,r0
        0x00009724:    e000        ..      B        0x9728 ; memcmp + 12
        0x00009726:    1c5b        [.      ADDS     r3,r3,#1
        0x00009728:    4293        .B      CMP      r3,r2
        0x0000972a:    d203        ..      BCS      0x9734 ; memcmp + 24
        0x0000972c:    5ce0        .\      LDRB     r0,[r4,r3]
        0x0000972e:    5ccd        .\      LDRB     r5,[r1,r3]
        0x00009730:    1b40        @.      SUBS     r0,r0,r5
        0x00009732:    d0f8        ..      BEQ      0x9726 ; memcmp + 10
        0x00009734:    bd30        0.      POP      {r4,r5,pc}
    .text
    __aeabi_llsl
    _ll_shift_l
        0x00009736:    2a20         *      CMP      r2,#0x20
        0x00009738:    db04        ..      BLT      0x9744 ; __aeabi_llsl + 14
        0x0000973a:    3a20         :      SUBS     r2,r2,#0x20
        0x0000973c:    fa00f102    ....    LSL      r1,r0,r2
        0x00009740:    2000        .       MOVS     r0,#0
        0x00009742:    4770        pG      BX       lr
        0x00009744:    4091        .@      LSLS     r1,r1,r2
        0x00009746:    f1c20320    .. .    RSB      r3,r2,#0x20
        0x0000974a:    fa20f303     ...    LSR      r3,r0,r3
        0x0000974e:    4319        .C      ORRS     r1,r1,r3
        0x00009750:    4090        .@      LSLS     r0,r0,r2
        0x00009752:    4770        pG      BX       lr
    .text
    __aeabi_llsr
    _ll_ushift_r
        0x00009754:    2a20         *      CMP      r2,#0x20
        0x00009756:    db04        ..      BLT      0x9762 ; __aeabi_llsr + 14
        0x00009758:    3a20         :      SUBS     r2,r2,#0x20
        0x0000975a:    fa21f002    !...    LSR      r0,r1,r2
        0x0000975e:    2100        .!      MOVS     r1,#0
        0x00009760:    4770        pG      BX       lr
        0x00009762:    fa21f302    !...    LSR      r3,r1,r2
        0x00009766:    40d0        .@      LSRS     r0,r0,r2
        0x00009768:    f1c20220    .. .    RSB      r2,r2,#0x20
        0x0000976c:    4091        .@      LSLS     r1,r1,r2
        0x0000976e:    4308        .C      ORRS     r0,r0,r1
        0x00009770:    4619        .F      MOV      r1,r3
        0x00009772:    4770        pG      BX       lr
    .text
    __scatterload
    __scatterload_rt2
        0x00009774:    4c06        .L      LDR      r4,[pc,#24] ; [0x9790] = 0x9cd0
        0x00009776:    4d07        .M      LDR      r5,[pc,#28] ; [0x9794] = 0x9cf0
        0x00009778:    e006        ..      B        0x9788 ; __scatterload + 20
        0x0000977a:    68e0        .h      LDR      r0,[r4,#0xc]
        0x0000977c:    f0400301    @...    ORR      r3,r0,#1
        0x00009780:    e8940007    ....    LDM      r4,{r0-r2}
        0x00009784:    4798        .G      BLX      r3
        0x00009786:    3410        .4      ADDS     r4,r4,#0x10
        0x00009788:    42ac        .B      CMP      r4,r5
        0x0000978a:    d3f6        ..      BCC      0x977a ; __scatterload + 6
        0x0000978c:    f7f6fd78    ..x.    BL       __main_after_scatterload ; 0x280
    $d
        0x00009790:    00009cd0    ....    DCD    40144
        0x00009794:    00009cf0    ....    DCD    40176
    $t
    i.__0printf$5
    __0printf$5
    __1printf$5
    __2printf
        0x00009798:    b40f        ..      PUSH     {r0-r3}
        0x0000979a:    4b05        .K      LDR      r3,[pc,#20] ; [0x97b0] = 0x9c7
        0x0000979c:    b510        ..      PUSH     {r4,lr}
        0x0000979e:    a903        ..      ADD      r1,sp,#0xc
        0x000097a0:    4a04        .J      LDR      r2,[pc,#16] ; [0x97b4] = 0x2000004c
        0x000097a2:    9802        ..      LDR      r0,[sp,#8]
        0x000097a4:    f000f818    ....    BL       _printf_core ; 0x97d8
        0x000097a8:    bc10        ..      POP      {r4}
        0x000097aa:    f85dfb14    ]...    LDR      pc,[sp],#0x14
    $d
        0x000097ae:    0000        ..      DCW    0
        0x000097b0:    000009c7    ....    DCD    2503
        0x000097b4:    2000004c    L..     DCD    536870988
    $t
    i.__scatterload_copy
    __scatterload_copy
        0x000097b8:    e002        ..      B        0x97c0 ; __scatterload_copy + 8
        0x000097ba:    c808        ..      LDM      r0!,{r3}
        0x000097bc:    1f12        ..      SUBS     r2,r2,#4
        0x000097be:    c108        ..      STM      r1!,{r3}
        0x000097c0:    2a00        .*      CMP      r2,#0
        0x000097c2:    d1fa        ..      BNE      0x97ba ; __scatterload_copy + 2
        0x000097c4:    4770        pG      BX       lr
    i.__scatterload_null
    __scatterload_null
        0x000097c6:    4770        pG      BX       lr
    i.__scatterload_zeroinit
    __scatterload_zeroinit
        0x000097c8:    2000        .       MOVS     r0,#0
        0x000097ca:    e001        ..      B        0x97d0 ; __scatterload_zeroinit + 8
        0x000097cc:    c101        ..      STM      r1!,{r0}
        0x000097ce:    1f12        ..      SUBS     r2,r2,#4
        0x000097d0:    2a00        .*      CMP      r2,#0
        0x000097d2:    d1fb        ..      BNE      0x97cc ; __scatterload_zeroinit + 4
        0x000097d4:    4770        pG      BX       lr
        0x000097d6:    0000        ..      MOVS     r0,r0
    i._printf_core
    _printf_core
        0x000097d8:    e92d4fff    -..O    PUSH     {r0-r11,lr}
        0x000097dc:    b08d        ..      SUB      sp,sp,#0x34
        0x000097de:    4604        .F      MOV      r4,r0
        0x000097e0:    469b        .F      MOV      r11,r3
        0x000097e2:    460f        .F      MOV      r7,r1
        0x000097e4:    2600        .&      MOVS     r6,#0
        0x000097e6:    e13b        ;.      B        0x9a60 ; _printf_core + 648
        0x000097e8:    2825        %(      CMP      r0,#0x25
        0x000097ea:    d001        ..      BEQ      0x97f0 ; _printf_core + 24
        0x000097ec:    990f        ..      LDR      r1,[sp,#0x3c]
        0x000097ee:    e063        c.      B        0x98b8 ; _printf_core + 224
        0x000097f0:    2500        .%      MOVS     r5,#0
        0x000097f2:    1c64        d.      ADDS     r4,r4,#1
        0x000097f4:    4a9e        .J      LDR      r2,[pc,#632] ; [0x9a70] = 0x12809
        0x000097f6:    46a8        .F      MOV      r8,r5
        0x000097f8:    2101        .!      MOVS     r1,#1
        0x000097fa:    7823        #x      LDRB     r3,[r4,#0]
        0x000097fc:    3b20         ;      SUBS     r3,r3,#0x20
        0x000097fe:    fa01f003    ....    LSL      r0,r1,r3
        0x00009802:    4210        .B      TST      r0,r2
        0x00009804:    d002        ..      BEQ      0x980c ; _printf_core + 52
        0x00009806:    4305        .C      ORRS     r5,r5,r0
        0x00009808:    1c64        d.      ADDS     r4,r4,#1
        0x0000980a:    e7f6        ..      B        0x97fa ; _printf_core + 34
        0x0000980c:    7820         x      LDRB     r0,[r4,#0]
        0x0000980e:    282e        .(      CMP      r0,#0x2e
        0x00009810:    d117        ..      BNE      0x9842 ; _printf_core + 106
        0x00009812:    f8140f01    ....    LDRB     r0,[r4,#1]!
        0x00009816:    f0450504    E...    ORR      r5,r5,#4
        0x0000981a:    282a        *(      CMP      r0,#0x2a
        0x0000981c:    d00e        ..      BEQ      0x983c ; _printf_core + 100
        0x0000981e:    f06f022f    o./.    MVN      r2,#0x2f
        0x00009822:    7820         x      LDRB     r0,[r4,#0]
        0x00009824:    f1a00130    ..0.    SUB      r1,r0,#0x30
        0x00009828:    2909        .)      CMP      r1,#9
        0x0000982a:    d80a        ..      BHI      0x9842 ; _printf_core + 106
        0x0000982c:    eb080188    ....    ADD      r1,r8,r8,LSL #2
        0x00009830:    eb020141    ..A.    ADD      r1,r2,r1,LSL #1
        0x00009834:    eb000801    ....    ADD      r8,r0,r1
        0x00009838:    1c64        d.      ADDS     r4,r4,#1
        0x0000983a:    e7f2        ..      B        0x9822 ; _printf_core + 74
        0x0000983c:    f8578b04    W...    LDR      r8,[r7],#4
        0x00009840:    1c64        d.      ADDS     r4,r4,#1
        0x00009842:    7820         x      LDRB     r0,[r4,#0]
        0x00009844:    286c        l(      CMP      r0,#0x6c
        0x00009846:    d00d        ..      BEQ      0x9864 ; _printf_core + 140
        0x00009848:    dc04        ..      BGT      0x9854 ; _printf_core + 124
        0x0000984a:    284c        L(      CMP      r0,#0x4c
        0x0000984c:    d012        ..      BEQ      0x9874 ; _printf_core + 156
        0x0000984e:    286a        j(      CMP      r0,#0x6a
        0x00009850:    d111        ..      BNE      0x9876 ; _printf_core + 158
        0x00009852:    e004        ..      B        0x985e ; _printf_core + 134
        0x00009854:    2874        t(      CMP      r0,#0x74
        0x00009856:    d00d        ..      BEQ      0x9874 ; _printf_core + 156
        0x00009858:    287a        z(      CMP      r0,#0x7a
        0x0000985a:    d10c        ..      BNE      0x9876 ; _printf_core + 158
        0x0000985c:    e00a        ..      B        0x9874 ; _printf_core + 156
        0x0000985e:    f4451500    E...    ORR      r5,r5,#0x200000
        0x00009862:    e007        ..      B        0x9874 ; _printf_core + 156
        0x00009864:    7861        ax      LDRB     r1,[r4,#1]
        0x00009866:    f4451580    E...    ORR      r5,r5,#0x100000
        0x0000986a:    4281        .B      CMP      r1,r0
        0x0000986c:    d102        ..      BNE      0x9874 ; _printf_core + 156
        0x0000986e:    1c64        d.      ADDS     r4,r4,#1
        0x00009870:    f5051580    ....    ADD      r5,r5,#0x100000
        0x00009874:    1c64        d.      ADDS     r4,r4,#1
        0x00009876:    f894c000    ....    LDRB     r12,[r4,#0]
        0x0000987a:    f1bc0f69    ..i.    CMP      r12,#0x69
        0x0000987e:    d04d        M.      BEQ      0x991c ; _printf_core + 324
        0x00009880:    dc0c        ..      BGT      0x989c ; _printf_core + 196
        0x00009882:    f1bc0f00    ....    CMP      r12,#0
        0x00009886:    d070        p.      BEQ      0x996a ; _printf_core + 402
        0x00009888:    f1bc0f58    ..X.    CMP      r12,#0x58
        0x0000988c:    d06f        o.      BEQ      0x996e ; _printf_core + 406
        0x0000988e:    f1bc0f63    ..c.    CMP      r12,#0x63
        0x00009892:    d016        ..      BEQ      0x98c2 ; _printf_core + 234
        0x00009894:    f1bc0f64    ..d.    CMP      r12,#0x64
        0x00009898:    d10c        ..      BNE      0x98b4 ; _printf_core + 220
        0x0000989a:    e03f        ?.      B        0x991c ; _printf_core + 324
        0x0000989c:    f1bc0f70    ..p.    CMP      r12,#0x70
        0x000098a0:    d06a        j.      BEQ      0x9978 ; _printf_core + 416
        0x000098a2:    f1bc0f73    ..s.    CMP      r12,#0x73
        0x000098a6:    d015        ..      BEQ      0x98d4 ; _printf_core + 252
        0x000098a8:    f1bc0f75    ..u.    CMP      r12,#0x75
        0x000098ac:    d05b        [.      BEQ      0x9966 ; _printf_core + 398
        0x000098ae:    f1bc0f78    ..x.    CMP      r12,#0x78
        0x000098b2:    d05c        \.      BEQ      0x996e ; _printf_core + 406
        0x000098b4:    990f        ..      LDR      r1,[sp,#0x3c]
        0x000098b6:    4660        `F      MOV      r0,r12
        0x000098b8:    465a        ZF      MOV      r2,r11
        0x000098ba:    4790        .G      BLX      r2
        0x000098bc:    f1060601    ....    ADD      r6,r6,#1
        0x000098c0:    e0cd        ..      B        0x9a5e ; _printf_core + 646
        0x000098c2:    cf01        ..      LDM      r7!,{r0}
        0x000098c4:    f88d0000    ....    STRB     r0,[sp,#0]
        0x000098c8:    2000        .       MOVS     r0,#0
        0x000098ca:    f88d0001    ....    STRB     r0,[sp,#1]
        0x000098ce:    46e9        .F      MOV      r9,sp
        0x000098d0:    2001        .       MOVS     r0,#1
        0x000098d2:    e003        ..      B        0x98dc ; _printf_core + 260
        0x000098d4:    f8579b04    W...    LDR      r9,[r7],#4
        0x000098d8:    f04f30ff    O..0    MOV      r0,#0xffffffff
        0x000098dc:    0769        i.      LSLS     r1,r5,#29
        0x000098de:    f04f0500    O...    MOV      r5,#0
        0x000098e2:    d401        ..      BMI      0x98e8 ; _printf_core + 272
        0x000098e4:    e00a        ..      B        0x98fc ; _printf_core + 292
        0x000098e6:    1c6d        m.      ADDS     r5,r5,#1
        0x000098e8:    4545        EE      CMP      r5,r8
        0x000098ea:    da0d        ..      BGE      0x9908 ; _printf_core + 304
        0x000098ec:    4285        .B      CMP      r5,r0
        0x000098ee:    dbfa        ..      BLT      0x98e6 ; _printf_core + 270
        0x000098f0:    f8191005    ....    LDRB     r1,[r9,r5]
        0x000098f4:    2900        .)      CMP      r1,#0
        0x000098f6:    d1f6        ..      BNE      0x98e6 ; _printf_core + 270
        0x000098f8:    e006        ..      B        0x9908 ; _printf_core + 304
        0x000098fa:    1c6d        m.      ADDS     r5,r5,#1
        0x000098fc:    4285        .B      CMP      r5,r0
        0x000098fe:    dbfc        ..      BLT      0x98fa ; _printf_core + 290
        0x00009900:    f8191005    ....    LDRB     r1,[r9,r5]
        0x00009904:    2900        .)      CMP      r1,#0
        0x00009906:    d1f8        ..      BNE      0x98fa ; _printf_core + 290
        0x00009908:    442e        .D      ADD      r6,r6,r5
        0x0000990a:    e004        ..      B        0x9916 ; _printf_core + 318
        0x0000990c:    f8190b01    ....    LDRB     r0,[r9],#1
        0x00009910:    465a        ZF      MOV      r2,r11
        0x00009912:    990f        ..      LDR      r1,[sp,#0x3c]
        0x00009914:    4790        .G      BLX      r2
        0x00009916:    1e6d        m.      SUBS     r5,r5,#1
        0x00009918:    d2f8        ..      BCS      0x990c ; _printf_core + 308
        0x0000991a:    e0a0        ..      B        0x9a5e ; _printf_core + 646
        0x0000991c:    200a        .       MOVS     r0,#0xa
        0x0000991e:    2100        .!      MOVS     r1,#0
        0x00009920:    e9cd0108    ....    STRD     r0,r1,[sp,#0x20]
        0x00009924:    f3c55002    ...P    UBFX     r0,r5,#20,#3
        0x00009928:    2802        .(      CMP      r0,#2
        0x0000992a:    d00a        ..      BEQ      0x9942 ; _printf_core + 362
        0x0000992c:    cf01        ..      LDM      r7!,{r0}
        0x0000992e:    17c1        ..      ASRS     r1,r0,#31
        0x00009930:    2900        .)      CMP      r1,#0
        0x00009932:    da0d        ..      BGE      0x9950 ; _printf_core + 376
        0x00009934:    2300        .#      MOVS     r3,#0
        0x00009936:    ebd00003    ....    RSBS     r0,r0,r3
        0x0000993a:    eb630101    c...    SBC      r1,r3,r1
        0x0000993e:    222d        -"      MOVS     r2,#0x2d
        0x00009940:    e009        ..      B        0x9956 ; _printf_core + 382
        0x00009942:    f1070707    ....    ADD      r7,r7,#7
        0x00009946:    f0270707    '...    BIC      r7,r7,#7
        0x0000994a:    e8f70102    ....    LDRD     r0,r1,[r7],#8
        0x0000994e:    e7ef        ..      B        0x9930 ; _printf_core + 344
        0x00009950:    052a        *.      LSLS     r2,r5,#20
        0x00009952:    d504        ..      BPL      0x995e ; _printf_core + 390
        0x00009954:    222b        +"      MOVS     r2,#0x2b
        0x00009956:    f88d2028    ..(     STRB     r2,[sp,#0x28]
        0x0000995a:    2201        ."      MOVS     r2,#1
        0x0000995c:    e030        0.      B        0x99c0 ; _printf_core + 488
        0x0000995e:    07ea        ..      LSLS     r2,r5,#31
        0x00009960:    d02e        ..      BEQ      0x99c0 ; _printf_core + 488
        0x00009962:    2220         "      MOVS     r2,#0x20
        0x00009964:    e7f7        ..      B        0x9956 ; _printf_core + 382
        0x00009966:    200a        .       MOVS     r0,#0xa
        0x00009968:    e002        ..      B        0x9970 ; _printf_core + 408
        0x0000996a:    e07d        }.      B        0x9a68 ; _printf_core + 656
        0x0000996c:    e7ff        ..      B        0x996e ; _printf_core + 406
        0x0000996e:    2010        .       MOVS     r0,#0x10
        0x00009970:    2100        .!      MOVS     r1,#0
        0x00009972:    e9cd0108    ....    STRD     r0,r1,[sp,#0x20]
        0x00009976:    e007        ..      B        0x9988 ; _printf_core + 432
        0x00009978:    2010        .       MOVS     r0,#0x10
        0x0000997a:    2100        .!      MOVS     r1,#0
        0x0000997c:    f0450504    E...    ORR      r5,r5,#4
        0x00009980:    e9cd0108    ....    STRD     r0,r1,[sp,#0x20]
        0x00009984:    f04f0808    O...    MOV      r8,#8
        0x00009988:    f3c55002    ...P    UBFX     r0,r5,#20,#3
        0x0000998c:    2802        .(      CMP      r0,#2
        0x0000998e:    d021        !.      BEQ      0x99d4 ; _printf_core + 508
        0x00009990:    cf01        ..      LDM      r7!,{r0}
        0x00009992:    2100        .!      MOVS     r1,#0
        0x00009994:    f04f0a00    O...    MOV      r10,#0
        0x00009998:    072a        *.      LSLS     r2,r5,#28
        0x0000999a:    d512        ..      BPL      0x99c2 ; _printf_core + 490
        0x0000999c:    f1bc0f70    ..p.    CMP      r12,#0x70
        0x000099a0:    d01e        ..      BEQ      0x99e0 ; _printf_core + 520
        0x000099a2:    e9dd3208    ...2    LDRD     r3,r2,[sp,#0x20]
        0x000099a6:    f0830310    ....    EOR      r3,r3,#0x10
        0x000099aa:    4313        .C      ORRS     r3,r3,r2
        0x000099ac:    d109        ..      BNE      0x99c2 ; _printf_core + 490
        0x000099ae:    ea500201    P...    ORRS     r2,r0,r1
        0x000099b2:    d006        ..      BEQ      0x99c2 ; _printf_core + 490
        0x000099b4:    2230        0"      MOVS     r2,#0x30
        0x000099b6:    f88d2028    ..(     STRB     r2,[sp,#0x28]
        0x000099ba:    f88dc029    ..).    STRB     r12,[sp,#0x29]
        0x000099be:    2202        ."      MOVS     r2,#2
        0x000099c0:    4692        .F      MOV      r10,r2
        0x000099c2:    a22c        ,.      ADR      r2,{pc}+0xb2 ; 0x9a74
        0x000099c4:    f1bc0f58    ..X.    CMP      r12,#0x58
        0x000099c8:    d000        ..      BEQ      0x99cc ; _printf_core + 500
        0x000099ca:    a22f        /.      ADR      r2,{pc}+0xbe ; 0x9a88
        0x000099cc:    f10d0920    .. .    ADD      r9,sp,#0x20
        0x000099d0:    920b        ..      STR      r2,[sp,#0x2c]
        0x000099d2:    e00f        ..      B        0x99f4 ; _printf_core + 540
        0x000099d4:    1dff        ..      ADDS     r7,r7,#7
        0x000099d6:    f0270707    '...    BIC      r7,r7,#7
        0x000099da:    e8f70102    ....    LDRD     r0,r1,[r7],#8
        0x000099de:    e7d9        ..      B        0x9994 ; _printf_core + 444
        0x000099e0:    2240        @"      MOVS     r2,#0x40
        0x000099e2:    e7b8        ..      B        0x9956 ; _printf_core + 382
        0x000099e4:    e9dd2308    ...#    LDRD     r2,r3,[sp,#0x20]
        0x000099e8:    f7fffe2a    ..*.    BL       __aeabi_uldivmod ; 0x9640
        0x000099ec:    9b0b        ..      LDR      r3,[sp,#0x2c]
        0x000099ee:    5c9b        .\      LDRB     r3,[r3,r2]
        0x000099f0:    f8093d01    ...=    STRB     r3,[r9,#-1]!
        0x000099f4:    ea500201    P...    ORRS     r2,r0,r1
        0x000099f8:    d1f4        ..      BNE      0x99e4 ; _printf_core + 524
        0x000099fa:    ebad0009    ....    SUB      r0,sp,r9
        0x000099fe:    f1000020    .. .    ADD      r0,r0,#0x20
        0x00009a02:    9008        ..      STR      r0,[sp,#0x20]
        0x00009a04:    0768        h.      LSLS     r0,r5,#29
        0x00009a06:    d401        ..      BMI      0x9a0c ; _printf_core + 564
        0x00009a08:    f04f0801    O...    MOV      r8,#1
        0x00009a0c:    9a08        ..      LDR      r2,[sp,#0x20]
        0x00009a0e:    2000        .       MOVS     r0,#0
        0x00009a10:    4590        .E      CMP      r8,r2
        0x00009a12:    dd01        ..      BLE      0x9a18 ; _printf_core + 576
        0x00009a14:    eba80002    ....    SUB      r0,r8,r2
        0x00009a18:    4680        .F      MOV      r8,r0
        0x00009a1a:    2500        .%      MOVS     r5,#0
        0x00009a1c:    e006        ..      B        0x9a2c ; _printf_core + 596
        0x00009a1e:    a80a        ..      ADD      r0,sp,#0x28
        0x00009a20:    465a        ZF      MOV      r2,r11
        0x00009a22:    5d40        @]      LDRB     r0,[r0,r5]
        0x00009a24:    990f        ..      LDR      r1,[sp,#0x3c]
        0x00009a26:    4790        .G      BLX      r2
        0x00009a28:    1c76        v.      ADDS     r6,r6,#1
        0x00009a2a:    1c6d        m.      ADDS     r5,r5,#1
        0x00009a2c:    4555        UE      CMP      r5,r10
        0x00009a2e:    dbf6        ..      BLT      0x9a1e ; _printf_core + 582
        0x00009a30:    e004        ..      B        0x9a3c ; _printf_core + 612
        0x00009a32:    2030        0       MOVS     r0,#0x30
        0x00009a34:    465a        ZF      MOV      r2,r11
        0x00009a36:    990f        ..      LDR      r1,[sp,#0x3c]
        0x00009a38:    4790        .G      BLX      r2
        0x00009a3a:    1c76        v.      ADDS     r6,r6,#1
        0x00009a3c:    f1b80100    ....    SUBS     r1,r8,#0
        0x00009a40:    f1a80801    ....    SUB      r8,r8,#1
        0x00009a44:    dcf5        ..      BGT      0x9a32 ; _printf_core + 602
        0x00009a46:    e005        ..      B        0x9a54 ; _printf_core + 636
        0x00009a48:    f8190b01    ....    LDRB     r0,[r9],#1
        0x00009a4c:    465a        ZF      MOV      r2,r11
        0x00009a4e:    990f        ..      LDR      r1,[sp,#0x3c]
        0x00009a50:    4790        .G      BLX      r2
        0x00009a52:    1c76        v.      ADDS     r6,r6,#1
        0x00009a54:    9908        ..      LDR      r1,[sp,#0x20]
        0x00009a56:    1e48        H.      SUBS     r0,r1,#1
        0x00009a58:    9008        ..      STR      r0,[sp,#0x20]
        0x00009a5a:    2900        .)      CMP      r1,#0
        0x00009a5c:    dcf4        ..      BGT      0x9a48 ; _printf_core + 624
        0x00009a5e:    1c64        d.      ADDS     r4,r4,#1
        0x00009a60:    7820         x      LDRB     r0,[r4,#0]
        0x00009a62:    2800        .(      CMP      r0,#0
        0x00009a64:    f47faec0    ....    BNE      0x97e8 ; _printf_core + 16
        0x00009a68:    b011        ..      ADD      sp,sp,#0x44
        0x00009a6a:    4630        0F      MOV      r0,r6
        0x00009a6c:    e8bd8ff0    ....    POP      {r4-r11,pc}
    $d
        0x00009a70:    00012809    .(..    DCD    75785
        0x00009a74:    33323130    0123    DCD    858927408
        0x00009a78:    37363534    4567    DCD    926299444
        0x00009a7c:    42413938    89AB    DCD    1111570744
        0x00009a80:    46454443    CDEF    DCD    1178944579
        0x00009a84:    00000000    ....    DCD    0
        0x00009a88:    33323130    0123    DCD    858927408
        0x00009a8c:    37363534    4567    DCD    926299444
        0x00009a90:    62613938    89ab    DCD    1650538808
        0x00009a94:    66656463    cdef    DCD    1717920867
        0x00009a98:    00000000    ....    DCD    0
    $d.realdata
    .constdata
        0x00009a9c:    00b71b00    ....    DCD    12000000
        0x00009aa0:    00000000    ....    DCD    0
        0x00009aa4:    01518000    ..Q.    DCD    22118400
        0x00009aa8:    01518000    ..Q.    DCD    22118400
        0x00009aac:    00b71b00    ....    DCD    12000000
        0x00009ab0:    00000000    ....    DCD    0
        0x00009ab4:    01518000    ..Q.    DCD    22118400
        0x00009ab8:    01518000    ..Q.    DCD    22118400
    .constdata
        0x00009abc:    70636864    dhcp    DCD    1885562980
        0x00009ac0:    74706f5f    _opt    DCD    1953525599
        0x00009ac4:    3a6e6f69    ion:    DCD    980316009
        0x00009ac8:    63686420     dhc    DCD    1667785760
        0x00009acc:    6f3e2d70    p->o    DCD    1866345840
        0x00009ad0:    6f697470    ptio    DCD    1869182064
        0x00009ad4:    6f5f736e    ns_o    DCD    1868526446
        0x00009ad8:    6c5f7475    ut_l    DCD    1818195061
        0x00009adc:    2b206e65    en +    DCD    723545701
        0x00009ae0:    2b203220     2 +    DCD    723530272
        0x00009ae4:    74706f20     opt    DCD    1953525536
        0x00009ae8:    5f6e6f69    ion_    DCD    1601073001
        0x00009aec:    206e656c    len     DCD    544105836
        0x00009af0:    44203d3c    <= D    DCD    1142963516
        0x00009af4:    5f504348    HCP_    DCD    1599095624
        0x00009af8:    4954504f    OPTI    DCD    1230262351
        0x00009afc:    5f534e4f    ONS_    DCD    1599295055
        0x00009b00:    004e454c    LEN.    DCD    5129548
        0x00009b04:    70636864    dhcp    DCD    1885562980
        0x00009b08:    74706f5f    _opt    DCD    1953525599
        0x00009b0c:    5f6e6f69    ion_    DCD    1601073001
        0x00009b10:    726f6873    shor    DCD    1919903859
        0x00009b14:    64203a74    t: d    DCD    1679833716
        0x00009b18:    2d706368    hcp-    DCD    762340200
        0x00009b1c:    74706f3e    >opt    DCD    1953525566
        0x00009b20:    736e6f69    ions    DCD    1936617321
        0x00009b24:    74756f5f    _out    DCD    1953853279
        0x00009b28:    6e656c5f    _len    DCD    1852140639
        0x00009b2c:    32202b20     + 2    DCD    840968992
        0x00009b30:    203d3c20     <=     DCD    540884000
        0x00009b34:    50434844    DHCP    DCD    1346586692
        0x00009b38:    54504f5f    _OPT    DCD    1414549343
        0x00009b3c:    534e4f49    IONS    DCD    1397641033
        0x00009b40:    4e454c5f    _LEN    DCD    1313164383
        0x00009b44:    0000        ..      DCW    0
    .constdata
    memp_sizes
        0x00009b46:    0020         .      DCW    32
        0x00009b48:    001c0094    ....    DCD    1835156
        0x00009b4c:    00200014    .. .    DCD    2097172
        0x00009b50:    04380018    ..8.    DCD    70778904
    memp_num
        0x00009b54:    00040004    ....    DCD    262148
        0x00009b58:    00100004    ....    DCD    1048580
        0x00009b5c:    00100001    ....    DCD    1048577
        0x00009b60:    00000008    ....    DCD    8
    .constdata
    tcp_persist_backoff
        0x00009b64:    180c0603    ....    DCD    403441155
        0x00009b68:    00786030    0`x.    DCD    7888944
    tcp_state_str
        0x00009b6c:    00009c8a    ....    DCD    40074
        0x00009b70:    00009cab    ....    DCD    40107
        0x00009b74:    00009cc7    ....    DCD    40135
        0x00009b78:    00009c91    ....    DCD    40081
        0x00009b7c:    00009c7e    ~...    DCD    40062
        0x00009b80:    00009c68    h...    DCD    40040
        0x00009b84:    00009c73    s...    DCD    40051
        0x00009b88:    00009cbc    ....    DCD    40124
        0x00009b8c:    00009c9a    ....    DCD    40090
        0x00009b90:    00009ca2    ....    DCD    40098
        0x00009b94:    00009cb2    ....    DCD    40114
    tcp_backoff
        0x00009b98:    04030201    ....    DCD    67305985
        0x00009b9c:    07070605    ....    DCD    117900805
        0x00009ba0:    07070707    ....    DCD    117901063
        0x00009ba4:    00000007    ....    DCD    7
    tcp_pcb_lists
        0x00009ba8:    20000094    ...     DCD    536871060
        0x00009bac:    20000090    ...     DCD    536871056
        0x00009bb0:    20000098    ...     DCD    536871064
        0x00009bb4:    2000009c    ...     DCD    536871068
    .constdata
        0x00009bb8:    5f706374    tcp_    DCD    1601201012
        0x00009bbc:    75716e65    enqu    DCD    1970368101
        0x00009bc0:    5f657565    eue_    DCD    1600484709
        0x00009bc4:    67616c66    flag    DCD    1734437990
        0x00009bc8:    6e203a73    s: n    DCD    1847605875
        0x00009bcc:    20646565    eed     DCD    543450469
        0x00009bd0:    68746965    eith    DCD    1752459621
        0x00009bd4:    54207265    er T    DCD    1411412581
        0x00009bd8:    535f5043    CP_S    DCD    1398755395
        0x00009bdc:    6f204e59    YN o    DCD    1864388185
        0x00009be0:    43542072    r TC    DCD    1129586802
        0x00009be4:    49465f50    P_FI    DCD    1229348688
        0x00009be8:    6e69204e    N in    DCD    1852383310
        0x00009bec:    616c6620     fla    DCD    1634493984
        0x00009bf0:    28207367    gs (    DCD    673215335
        0x00009bf4:    676f7270    prog    DCD    1735357040
        0x00009bf8:    6d6d6172    ramm    DCD    1835884914
        0x00009bfc:    76207265    er v    DCD    1981837925
        0x00009c00:    616c6f69    iola    DCD    1634496361
        0x00009c04:    20736574    tes     DCD    544433524
        0x00009c08:    29495041    API)    DCD    692670529
        0x00009c0c:    00000000    ....    DCD    0
    .constdata
    ip_addr_any
        0x00009c10:    00000000    ....    DCD    0
    .constdata
    ip_addr_broadcast
        0x00009c14:    ffffffff    ....    DCD    4294967295
    .constdata
    ethbroadcast
        0x00009c18:    ffffffff    ....    DCD    4294967295
        0x00009c1c:    ffff        ..      DCW    65535
    ethzero
        0x00009c1e:    0000        ..      DCW    0
        0x00009c20:    00000000    ....    DCD    0
        0x00009c24:    6974656e    neti    DCD    1769235822
        0x00009c28:    683e2d66    f->h    DCD    1748905318
        0x00009c2c:    64646177    wadd    DCD    1684300151
        0x00009c30:    656c5f72    r_le    DCD    1701601138
        0x00009c34:    756d206e    n mu    DCD    1970085998
        0x00009c38:    62207473    st b    DCD    1646294131
        0x00009c3c:    68742065    e th    DCD    1752440933
        0x00009c40:    61732065    e sa    DCD    1634934885
        0x00009c44:    6120656d    me a    DCD    1629513069
        0x00009c48:    54452073    s ET    DCD    1413816435
        0x00009c4c:    50524148    HARP    DCD    1347567944
        0x00009c50:    4157485f    _HWA    DCD    1096239199
        0x00009c54:    5f524444    DDR_    DCD    1599226948
        0x00009c58:    204e454c    LEN     DCD    542000460
        0x00009c5c:    20726f66    for     DCD    544370534
        0x00009c60:    61687465    etha    DCD    1634235493
        0x00009c64:    00217072    rp!.    DCD    2191474
    .conststring
        0x00009c68:    5f4e4946    FIN_    DCD    1598966086
        0x00009c6c:    54494157    WAIT    DCD    1414086999
        0x00009c70:    4600315f    _1.F    DCD    1174417759
        0x00009c74:    575f4e49    IN_W    DCD    1465863753
        0x00009c78:    5f544941    AIT_    DCD    1599359297
        0x00009c7c:    53450032    2.ES    DCD    1397030962
        0x00009c80:    4c424154    TABL    DCD    1279410516
        0x00009c84:    45485349    ISHE    DCD    1162367817
        0x00009c88:    4c430044    D.CL    DCD    1279459396
        0x00009c8c:    4445534f    OSED    DCD    1145393999
        0x00009c90:    4e595300    .SYN    DCD    1314476800
        0x00009c94:    5643525f    _RCV    DCD    1447252575
        0x00009c98:    4c430044    D.CL    DCD    1279459396
        0x00009c9c:    4e49534f    OSIN    DCD    1313428303
        0x00009ca0:    414c0047    G.LA    DCD    1095499847
        0x00009ca4:    415f5453    ST_A    DCD    1096766547
        0x00009ca8:    4c004b43    CK.L    DCD    1275087683
        0x00009cac:    45545349    ISTE    DCD    1163154249
        0x00009cb0:    4954004e    N.TI    DCD    1230241870
        0x00009cb4:    575f454d    ME_W    DCD    1465861453
        0x00009cb8:    00544941    AIT.    DCD    5523777
        0x00009cbc:    534f4c43    CLOS    DCD    1397705795
        0x00009cc0:    41575f45    E_WA    DCD    1096245061
        0x00009cc4:    53005449    IT.S    DCD    1392530505
        0x00009cc8:    535f4e59    YN_S    DCD    1398754905
        0x00009ccc:    00544e45    ENT.    DCD    5525061
    Region$$Table$$Base
        0x00009cd0:    00009cf0    ....    DCD    40176
        0x00009cd4:    20000000    ...     DCD    536870912
        0x00009cd8:    000000f8    ....    DCD    248
        0x00009cdc:    000097b8    ....    DCD    38840
        0x00009ce0:    00009de8    ....    DCD    40424
        0x00009ce4:    200000f8    ...     DCD    536871160
        0x00009ce8:    0000aa50    P...    DCD    43600
        0x00009cec:    000097c8    ....    DCD    38856
    Region$$Table$$Limit

** Section #2 'RW_IRAM1' (SHT_PROGBITS) [SHF_ALLOC + SHF_WRITE]
    Size   : 248 bytes (alignment 4)
    Address: 0x20000000


** Section #3 'RW_IRAM1' (SHT_NOBITS) [SHF_ALLOC + SHF_WRITE]
    Size   : 43600 bytes (alignment 8)
    Address: 0x200000f8


** Section #4 '.debug_abbrev' (SHT_PROGBITS)
    Size   : 1476 bytes


** Section #5 '.debug_frame' (SHT_PROGBITS)
    Size   : 9232 bytes


** Section #6 '.debug_info' (SHT_PROGBITS)
    Size   : 117508 bytes


** Section #7 '.debug_line' (SHT_PROGBITS)
    Size   : 43864 bytes


** Section #8 '.debug_loc' (SHT_PROGBITS)
    Size   : 34724 bytes


** Section #9 '.debug_macinfo' (SHT_PROGBITS)
    Size   : 647972 bytes


** Section #10 '.debug_pubnames' (SHT_PROGBITS)
    Size   : 7124 bytes


** Section #11 '.symtab' (SHT_SYMTAB)
    Size   : 13200 bytes (alignment 4)
    String table #12 '.strtab'
    Last local symbol no. 375


** Section #12 '.strtab' (SHT_STRTAB)
    Size   : 11408 bytes


** Section #13 '.note' (SHT_NOTE)
    Size   : 28 bytes (alignment 4)


** Section #14 '.comment' (SHT_PROGBITS)
    Size   : 33204 bytes


** Section #15 '.shstrtab' (SHT_STRTAB)
    Size   : 156 bytes


